 xerces-c_3_1

 Timestamp is 55d86e81 (Sat Aug 22 15:43:45 2015)

 Preferred load address is 12000000

 Start         Length     Name                   Class
 0001:00000000 000007d7H .text$di                CODE
 0001:000007e0 00103358H .text$mn                CODE
 0001:00103b40 0001480bH .text$x                 CODE
 0001:00118350 000004c3H .text$yd                CODE
 0002:00000000 0000019cH .idata$5                DATA
 0002:0000019c 00000004H .CRT$XCA                DATA
 0002:000001a0 00000034H .CRT$XCU                DATA
 0002:000001d4 00000004H .CRT$XCZ                DATA
 0002:000001d8 00000004H .CRT$XIA                DATA
 0002:000001dc 00000004H .CRT$XIAA               DATA
 0002:000001e0 00000004H .CRT$XIC                DATA
 0002:000001e4 00000004H .CRT$XIZ                DATA
 0002:000001f0 00035528H .rdata                  DATA
 0002:00035718 0000009cH .rdata$debug            DATA
 0002:000357b4 0000a5a4H .rdata$r                DATA
 0002:0003fd60 00001354H .rdata$sxdata           DATA
 0002:000410b4 00000004H .rtc$IAA                DATA
 0002:000410b8 00000004H .rtc$IZZ                DATA
 0002:000410bc 00000004H .rtc$TAA                DATA
 0002:000410c0 00000004H .rtc$TZZ                DATA
 0002:000410c8 000158f4H .xdata$x                DATA
 0002:000569c0 00081f84H .edata                  DATA
 0002:000d8944 0000003cH .idata$2                DATA
 0002:000d8980 00000014H .idata$3                DATA
 0002:000d8994 0000019cH .idata$4                DATA
 0002:000d8b30 00000674H .idata$6                DATA
 0003:00000000 000212c4H .data                   DATA
 0003:000212c8 00006d88H .data$r                 DATA
 0003:00028050 000004c8H .bss                    DATA
 0004:00000000 000009a0H .rsrc$01                DATA
 0004:000009a0 00013130H .rsrc$02                DATA

  Address         Publics by Value              Rva+Base       Lib:Object

 0000:00000000       ___guard_flags             00000000     <absolute>
 0000:00000000       __except_list              00000000     <absolute>
 0000:00000000       ___guard_fids_table        00000000     <absolute>
 0000:00000000       ___guard_fids_count        00000000     <absolute>
 0000:000004d5       ___safe_se_handler_count   000004d5     <absolute>
 0000:00009876       __fltused                  00009876     <absolute>
 0000:00009876       __ldused                   00009876     <absolute>
 0000:00000000       ___ImageBase               12000000     <linker-defined>
 0001:000007e0       ??0ArrayIndexOutOfBoundsException@xercesc_3_1@@QAE@ABV01@@Z 120017e0 f i Base64.obj
 0001:00000840       ??0ArrayIndexOutOfBoundsException@xercesc_3_1@@QAE@QBD_KW4Codes@XMLExcepts@1@0000PAVMemoryManager@1@@Z 12001840 f i Base64.obj
 0001:000008c0       ??0ArrayIndexOutOfBoundsException@xercesc_3_1@@QAE@QBD_KW4Codes@XMLExcepts@1@PAVMemoryManager@1@@Z 120018c0 f i Base64.obj
 0001:00000930       ??0ArrayIndexOutOfBoundsException@xercesc_3_1@@QAE@QBD_KW4Codes@XMLExcepts@1@QBG333PAVMemoryManager@1@@Z 12001930 f i Base64.obj
 0001:000009b0       ??0DOMError@xercesc_3_1@@IAE@XZ 120019b0 f i Base64.obj
 0001:000009c0       ??0MemoryManager@xercesc_3_1@@IAE@XZ 120019c0 f i Base64.obj
 0001:000009d0       ??0PanicHandler@xercesc_3_1@@IAE@XZ 120019d0 f i Base64.obj
 0001:000009e0       ??0TranscodingException@xercesc_3_1@@QAE@ABV01@@Z 120019e0 f i Base64.obj
 0001:00000a40       ??0TranscodingException@xercesc_3_1@@QAE@QBD_KW4Codes@XMLExcepts@1@0000PAVMemoryManager@1@@Z 12001a40 f i Base64.obj
 0001:00000ac0       ??0TranscodingException@xercesc_3_1@@QAE@QBD_KW4Codes@XMLExcepts@1@PAVMemoryManager@1@@Z 12001ac0 f i Base64.obj
 0001:00000b30       ??0TranscodingException@xercesc_3_1@@QAE@QBD_KW4Codes@XMLExcepts@1@QBG333PAVMemoryManager@1@@Z 12001b30 f i Base64.obj
 0001:00000bb0       ??0XMLBuffer@xercesc_3_1@@QAE@KQAVMemoryManager@1@@Z 12001bb0 f i Base64.obj
 0001:00000c00       ??0XMLBufferFullHandler@xercesc_3_1@@QAE@ABV01@@Z 12001c00 f i Base64.obj
 0001:00000c10       ??0XMLBufferFullHandler@xercesc_3_1@@QAE@XZ 12001c10 f i Base64.obj
 0001:00000c20       ??0XMLDeleter@xercesc_3_1@@IAE@XZ 12001c20 f i Base64.obj
 0001:00000c30       ??0XMLErrorReporter@xercesc_3_1@@IAE@XZ 12001c30 f i Base64.obj
 0001:00000c40       ??0XMLPlatformUtilsException@xercesc_3_1@@QAE@ABV01@@Z 12001c40 f i Base64.obj
 0001:00000ca0       ??0XMLPlatformUtilsException@xercesc_3_1@@QAE@QBD_KW4Codes@XMLExcepts@1@0000PAVMemoryManager@1@@Z 12001ca0 f i Base64.obj
 0001:00000d20       ??0XMLPlatformUtilsException@xercesc_3_1@@QAE@QBD_KW4Codes@XMLExcepts@1@PAVMemoryManager@1@@Z 12001d20 f i Base64.obj
 0001:00000d90       ??0XMLPlatformUtilsException@xercesc_3_1@@QAE@QBD_KW4Codes@XMLExcepts@1@QBG333PAVMemoryManager@1@@Z 12001d90 f i Base64.obj
 0001:00000e10       ??1?$ArrayJanitor@E@xercesc_3_1@@QAE@XZ 12001e10 f i Base64.obj
 0001:00000e50       ??1ArrayIndexOutOfBoundsException@xercesc_3_1@@UAE@XZ 12001e50 f i Base64.obj
 0001:00000ea0       ??1DOMError@xercesc_3_1@@UAE@XZ 12001ea0 f i Base64.obj
 0001:00000eb0       ??1MemoryManager@xercesc_3_1@@UAE@XZ 12001eb0 f i Base64.obj
 0001:00000ec0       ??1PanicHandler@xercesc_3_1@@UAE@XZ 12001ec0 f i Base64.obj
 0001:00000ed0       ??1TranscodingException@xercesc_3_1@@UAE@XZ 12001ed0 f i Base64.obj
 0001:00000f20       ??1XMLBuffer@xercesc_3_1@@QAE@XZ 12001f20 f i Base64.obj
 0001:00000f30       ??1XMLBufferFullHandler@xercesc_3_1@@UAE@XZ 12001f30 f i Base64.obj
 0001:00000f40       ??1XMLDeleter@xercesc_3_1@@UAE@XZ 12001f40 f i Base64.obj
 0001:00000f50       ??1XMLErrorReporter@xercesc_3_1@@UAE@XZ 12001f50 f i Base64.obj
 0001:00000f60       ??1XMLPlatformUtilsException@xercesc_3_1@@UAE@XZ 12001f60 f i Base64.obj
 0001:00000fb0       ??_EArrayIndexOutOfBoundsException@xercesc_3_1@@UAEPAXI@Z 12001fb0 f i Base64.obj
 0001:00001060       ??_EDOMError@xercesc_3_1@@UAEPAXI@Z 12002060 f i Base64.obj
 0001:000010c0       ??_EMemoryManager@xercesc_3_1@@UAEPAXI@Z 120020c0 f i Base64.obj
 0001:00001120       ??_EPanicHandler@xercesc_3_1@@UAEPAXI@Z 12002120 f i Base64.obj
 0001:00001180       ??_ETranscodingException@xercesc_3_1@@UAEPAXI@Z 12002180 f i Base64.obj
 0001:00001230       ??_EXMLBufferFullHandler@xercesc_3_1@@UAEPAXI@Z 12002230 f i Base64.obj
 0001:00001290       ??_EXMLDeleter@xercesc_3_1@@UAEPAXI@Z 12002290 f i Base64.obj
 0001:000012f0       ??_EXMLErrorReporter@xercesc_3_1@@UAEPAXI@Z 120022f0 f i Base64.obj
 0001:00001350       ??_EXMLPlatformUtilsException@xercesc_3_1@@UAEPAXI@Z 12002350 f i Base64.obj
 0001:00001400       ??_FXMLBuffer@xercesc_3_1@@QAEXXZ 12002400 f i Base64.obj
 0001:00001450       ?alignPointerForNewBlockAllocation@XMLPlatformUtils@xercesc_3_1@@SAKK@Z 12002450 f i Base64.obj
 0001:00001470       ?append@XMLBuffer@xercesc_3_1@@QAEXG@Z 12002470 f i Base64.obj
 0001:000014a0       ?append@XMLBuffer@xercesc_3_1@@QAEXQBG@Z 120024a0 f i Base64.obj
 0001:000014f0       ?append@XMLBuffer@xercesc_3_1@@QAEXQBGK@Z 120024f0 f i Base64.obj
 0001:00001580       ?charsLeftInBuffer@XMLReader@xercesc_3_1@@QBEKXZ 12002580 f i Base64.obj
 0001:00001590       ?decode@Base64@xercesc_3_1@@CAPAEQBEPAKAAPAEQAVMemoryManager@2@W4Conformance@12@@Z 12002590 f   Base64.obj
 0001:00001900       ?decode@Base64@xercesc_3_1@@SAPAEQBEPAKQAVMemoryManager@2@W4Conformance@12@@Z 12002900 f   Base64.obj
 0001:00001960       ?decodeToXMLByte@Base64@xercesc_3_1@@SAPAEQBGPAKQAVMemoryManager@2@W4Conformance@12@@Z 12002960 f   Base64.obj
 0001:00001aa0       ?duplicate@ArrayIndexOutOfBoundsException@xercesc_3_1@@UBEPAVXMLException@2@XZ 12002aa0 f i Base64.obj
 0001:00001b40       ?duplicate@TranscodingException@xercesc_3_1@@UBEPAVXMLException@2@XZ 12002b40 f i Base64.obj
 0001:00001be0       ?duplicate@XMLPlatformUtilsException@xercesc_3_1@@UBEPAVXMLException@2@XZ 12002be0 f i Base64.obj
 0001:00001c80       ?encode@Base64@xercesc_3_1@@SAPAEQBEKPAKQAVMemoryManager@2@@Z 12002c80 f   Base64.obj
 0001:00001e80       ?endsWith@XMLString@xercesc_3_1@@SA_NQBG0@Z 12002e80 f i Base64.obj
 0001:00001ef0       ?equals@XMLString@xercesc_3_1@@SA_NPBD0@Z 12002ef0 f i Base64.obj
 0001:00001f50       ?equals@XMLString@xercesc_3_1@@SA_NPBG0@Z 12002f50 f i Base64.obj
 0001:00001fc0       ?equalsN@XMLString@xercesc_3_1@@SA_NPBD0K@Z 12002fc0 f i Base64.obj
 0001:00002030       ?equalsN@XMLString@xercesc_3_1@@SA_NPBG0K@Z 12003030 f i Base64.obj
 0001:000020b0       ?getCanonicalRepresentation@Base64@xercesc_3_1@@SAPAGQBGQAVMemoryManager@2@W4Conformance@12@@Z 120030b0 f   Base64.obj
 0001:00002260       ?getColumnNumber@XMLReader@xercesc_3_1@@QBE_KXZ 12003260 f i Base64.obj
 0001:00002270       ?getDataLength@Base64@xercesc_3_1@@SAHQBGQAVMemoryManager@2@W4Conformance@12@@Z 12003270 f   Base64.obj
 0001:000022d0       ?getEncodingStr@XMLReader@xercesc_3_1@@QBEPBGXZ 120032d0 f i Base64.obj
 0001:000022e0       ?getErrorType@XMLException@xercesc_3_1@@QBE?AW4ErrTypes@XMLErrorReporter@2@XZ 120032e0 f i Base64.obj
 0001:00002320       ?getLineNumber@XMLReader@xercesc_3_1@@QBE_KXZ 12003320 f i Base64.obj
 0001:00002330       ?getNextChar@XMLReader@xercesc_3_1@@QAE_NAAG@Z 12003330 f i Base64.obj
 0001:000023a0       ?getNextCharIfNot@XMLReader@xercesc_3_1@@QAE_NGAAG@Z 120033a0 f i Base64.obj
 0001:00002410       ?getNoMoreFlag@XMLReader@xercesc_3_1@@QBE_NXZ 12003410 f i Base64.obj
 0001:00002420       ?getPublicId@XMLReader@xercesc_3_1@@QBEPBGXZ 12003420 f i Base64.obj
 0001:00002430       ?getRawBuffer@XMLBuffer@xercesc_3_1@@QBEPBGXZ 12003430 f i Base64.obj
 0001:00002430       ?getRawBuffer@XMLBuffer@xercesc_3_1@@QAEPAGXZ 12003430 f i Base64.obj
 0001:00002450       ?getReaderNum@XMLReader@xercesc_3_1@@QBEKXZ 12003450 f i Base64.obj
 0001:00002460       ?getRefFrom@XMLReader@xercesc_3_1@@QBE?AW4RefFrom@12@XZ 12003460 f i Base64.obj
 0001:00002470       ?getSource@XMLReader@xercesc_3_1@@QBE?AW4Sources@12@XZ 12003470 f i Base64.obj
 0001:00002480       ?getSrcFile@XMLException@xercesc_3_1@@QBEPBDXZ 12003480 f i Base64.obj
 0001:00002490       ?getSystemId@XMLReader@xercesc_3_1@@QBEPBGXZ 12003490 f i Base64.obj
 0001:000024a0       ?getThrowAtEnd@XMLReader@xercesc_3_1@@QBE_NXZ 120034a0 f i Base64.obj
 0001:000024b0       ?getType@ArrayIndexOutOfBoundsException@xercesc_3_1@@UBEPBGXZ 120034b0 f i Base64.obj
 0001:000024c0       ?getType@TranscodingException@xercesc_3_1@@UBEPBGXZ 120034c0 f i Base64.obj
 0001:000024d0       ?getType@XMLPlatformUtilsException@xercesc_3_1@@UBEPBGXZ 120034d0 f i Base64.obj
 0001:000024e0       ?getType@XMLReader@xercesc_3_1@@QBE?AW4Types@12@XZ 120034e0 f i Base64.obj
 0001:000024f0       ?hash@XMLString@xercesc_3_1@@SAKQBGK@Z 120034f0 f i Base64.obj
 0001:00002540       ?hashN@XMLString@xercesc_3_1@@SAKQBGKK@Z 12003540 f i Base64.obj
 0001:00002590       ?isControlChar@XMLChar1_0@xercesc_3_1@@SA_NGG@Z 12003590 f i Base64.obj
 0001:000025c0       ?isControlChar@XMLChar1_1@xercesc_3_1@@SA_NGG@Z 120035c0 f i Base64.obj
 0001:000025f0       ?isControlChar@XMLReader@xercesc_3_1@@QBE_NG@Z 120035f0 f i Base64.obj
 0001:00002610       ?isData@Base64@xercesc_3_1@@CA_NABE@Z 12003610 f   Base64.obj
 0001:00002630       ?isEmpty@XMLBuffer@xercesc_3_1@@QBE_NXZ 12003630 f i Base64.obj
 0001:00002640       ?isFirstNCNameChar@XMLChar1_0@xercesc_3_1@@SA_NGG@Z 12003640 f i Base64.obj
 0001:00002670       ?isFirstNCNameChar@XMLChar1_1@xercesc_3_1@@SA_NGG@Z 12003670 f i Base64.obj
 0001:000026d0       ?isFirstNCNameChar@XMLReader@xercesc_3_1@@QBE_NG@Z 120036d0 f i Base64.obj
 0001:00002700       ?isFirstNameChar@XMLChar1_0@xercesc_3_1@@SA_NGG@Z 12003700 f i Base64.obj
 0001:00002730       ?isFirstNameChar@XMLChar1_1@xercesc_3_1@@SA_NGG@Z 12003730 f i Base64.obj
 0001:00002780       ?isFirstNameChar@XMLReader@xercesc_3_1@@QBE_NG@Z 12003780 f i Base64.obj
 0001:000027a0       ?isNCNameChar@XMLChar1_0@xercesc_3_1@@SA_NGG@Z 120037a0 f i Base64.obj
 0001:000027c0       ?isNCNameChar@XMLChar1_1@xercesc_3_1@@SA_NGG@Z 120037c0 f i Base64.obj
 0001:00002810       ?isNCNameChar@XMLReader@xercesc_3_1@@QBE_NG@Z 12003810 f i Base64.obj
 0001:00002830       ?isNameChar@XMLChar1_0@xercesc_3_1@@SA_NGG@Z 12003830 f i Base64.obj
 0001:00002860       ?isNameChar@XMLChar1_1@xercesc_3_1@@SA_NGG@Z 12003860 f i Base64.obj
 0001:000028b0       ?isNameChar@XMLReader@xercesc_3_1@@QBE_NG@Z 120038b0 f i Base64.obj
 0001:000028d0       ?isPad@Base64@xercesc_3_1@@CA_NABE@Z 120038d0 f i Base64.obj
 0001:000028e0       ?isPlainContentChar@XMLChar1_0@xercesc_3_1@@SA_NGG@Z 120038e0 f i Base64.obj
 0001:00002930       ?isPlainContentChar@XMLChar1_1@xercesc_3_1@@SA_NGG@Z 12003930 f i Base64.obj
 0001:00002980       ?isPlainContentChar@XMLReader@xercesc_3_1@@QBE_NG@Z 12003980 f i Base64.obj
 0001:000029a0       ?isSpecialStartTagChar@XMLChar1_0@xercesc_3_1@@SA_NGG@Z 120039a0 f i Base64.obj
 0001:000029d0       ?isSpecialStartTagChar@XMLChar1_1@xercesc_3_1@@SA_NGG@Z 120039d0 f i Base64.obj
 0001:00002a00       ?isSpecialStartTagChar@XMLReader@xercesc_3_1@@QBE_NG@Z 12003a00 f i Base64.obj
 0001:00002a20       ?isWhitespace@XMLChar1_0@xercesc_3_1@@SA_NG@Z 12003a20 f i Base64.obj
 0001:00002a40       ?isWhitespace@XMLChar1_0@xercesc_3_1@@SA_NGG@Z 12003a40 f i Base64.obj
 0001:00002a60       ?isWhitespace@XMLChar1_1@xercesc_3_1@@SA_NGG@Z 12003a60 f i Base64.obj
 0001:00002a80       ?isWhitespace@XMLReader@xercesc_3_1@@QBE_NG@Z 12003a80 f i Base64.obj
 0001:00002aa0       ?isXMLChar@XMLChar1_0@xercesc_3_1@@SA_NGG@Z 12003aa0 f i Base64.obj
 0001:00002af0       ?isXMLChar@XMLChar1_1@xercesc_3_1@@SA_NGG@Z 12003af0 f i Base64.obj
 0001:00002b40       ?isXMLChar@XMLReader@xercesc_3_1@@QBE_NG@Z 12003b40 f i Base64.obj
 0001:00002b60       ?isXMLLetter@XMLChar1_0@xercesc_3_1@@SA_NGG@Z 12003b60 f i Base64.obj
 0001:00002ba0       ?isXMLLetter@XMLChar1_1@xercesc_3_1@@SA_NGG@Z 12003ba0 f i Base64.obj
 0001:00002bd0       ?isXMLLetter@XMLReader@xercesc_3_1@@QBE_NG@Z 12003bd0 f i Base64.obj
 0001:00002c10       ?lastIndexOf@XMLString@xercesc_3_1@@SAHQBGG@Z 12003c10 f i Base64.obj
 0001:00002c50       ?moveChars@XMLString@xercesc_3_1@@SAXQAGQBGK@Z 12003c50 f i Base64.obj
 0001:00002c70       ?movePlainContentChars@XMLReader@xercesc_3_1@@QAEXAAVXMLBuffer@2@@Z 12003c70 f i Base64.obj
 0001:00002d00       ?peekNextChar@XMLReader@xercesc_3_1@@QAE_NAAG@Z 12003d00 f i Base64.obj
 0001:00002d70       ?replicate@XMLString@xercesc_3_1@@SAPAGQBGQAVMemoryManager@2@@Z 12003d70 f i Base64.obj
 0001:00002dc0       ?reset@XMLBuffer@xercesc_3_1@@QAEXXZ 12003dc0 f i Base64.obj
 0001:00002df0       ?set1stOctet@Base64@xercesc_3_1@@CAEABE0@Z 12003df0 f i Base64.obj
 0001:00002e10       ?set2ndOctet@Base64@xercesc_3_1@@CAEABE0@Z 12003e10 f i Base64.obj
 0001:00002e30       ?set3rdOctet@Base64@xercesc_3_1@@CAEABE0@Z 12003e30 f i Base64.obj
 0001:00002e50       ?set@XMLBuffer@xercesc_3_1@@QAEXQBG@Z 12003e50 f i Base64.obj
 0001:00002e80       ?set@XMLBuffer@xercesc_3_1@@QAEXQBGK@Z 12003e80 f i Base64.obj
 0001:00002e90       ?setFullHandler@XMLBuffer@xercesc_3_1@@QAEXPAVXMLBufferFullHandler@2@K@Z 12003e90 f i Base64.obj
 0001:00002ed0       ?setInUse@XMLBuffer@xercesc_3_1@@QAEX_N@Z 12003ed0 f i Base64.obj
 0001:00002ed0       ?hasDefaults@DOMAttrMapImpl@xercesc_3_1@@UAEX_N@Z 12003ed0 f i AbstractDOMParser.obj
 0001:00002ee0       ?setReaderNum@XMLReader@xercesc_3_1@@QAEXK@Z 12003ee0 f i Base64.obj
 0001:00002ef0       ?setThrowAtEnd@XMLReader@xercesc_3_1@@QAEX_N@Z 12003ef0 f i Base64.obj
 0001:00002f00       ?setXMLVersion@XMLReader@xercesc_3_1@@QAEXW4XMLVersion@12@@Z 12003f00 f i Base64.obj
 0001:00002f40       ?split1stOctet@Base64@xercesc_3_1@@CAXABEAAE1@Z 12003f40 f i Base64.obj
 0001:00002f70       ?split2ndOctet@Base64@xercesc_3_1@@CAXABEAAE1@Z 12003f70 f i Base64.obj
 0001:00002fa0       ?split3rdOctet@Base64@xercesc_3_1@@CAXABEAAE1@Z 12003fa0 f i Base64.obj
 0001:00002fc0       ?startsWith@XMLString@xercesc_3_1@@SA_NQBG0@Z 12003fc0 f i Base64.obj
 0001:00003010       ?startsWithI@XMLString@xercesc_3_1@@SA_NQBG0@Z 12004010 f i Base64.obj
 0001:00003060       ?stringLen@XMLString@xercesc_3_1@@SAKQBG@Z 12004060 f i Base64.obj
 0001:00003090       ?validateRegion@XMLString@xercesc_3_1@@CA_NQBGH0HK@Z 12004090 f i Base64.obj
 0001:00003110       ??0BinFileInputStream@xercesc_3_1@@QAE@QAXQAVMemoryManager@1@@Z 12004110 f   BinFileInputStream.obj
 0001:00003180       ??0BinFileInputStream@xercesc_3_1@@QAE@QBDQAVMemoryManager@1@@Z 12004180 f   BinFileInputStream.obj
 0001:000031f0       ??0BinFileInputStream@xercesc_3_1@@QAE@QBGQAVMemoryManager@1@@Z 120041f0 f   BinFileInputStream.obj
 0001:00003260       ??1BinFileInputStream@xercesc_3_1@@UAE@XZ 12004260 f   BinFileInputStream.obj
 0001:000032d0       ??_EBinFileInputStream@xercesc_3_1@@UAEPAXI@Z 120042d0 f i BinFileInputStream.obj
 0001:00003390       ?curPos@BinFileOutputStream@xercesc_3_1@@UBE_KXZ 12004390 f   BinFileOutputStream.obj
 0001:00003390       ?curPos@BinFileInputStream@xercesc_3_1@@UBE_KXZ 12004390 f   BinFileInputStream.obj
 0001:000033a0       ?readBytes@BinFileInputStream@xercesc_3_1@@UAEKQAEK@Z 120043a0 f   BinFileInputStream.obj
 0001:000033c0       ?reset@BinFileOutputStream@xercesc_3_1@@QAEXXZ 120043c0 f   BinFileOutputStream.obj
 0001:000033c0       ?reset@BinFileInputStream@xercesc_3_1@@QAEXXZ 120043c0 f   BinFileInputStream.obj
 0001:000033d0       ??0BinInputStream@xercesc_3_1@@IAE@XZ 120043d0 f   BinInputStream.obj
 0001:000033e0       ??1BinInputStream@xercesc_3_1@@UAE@XZ 120043e0 f   BinInputStream.obj
 0001:000033f0       ??_EBinInputStream@xercesc_3_1@@UAEPAXI@Z 120043f0 f i BinInputStream.obj
 0001:00003450       ??0BinMemInputStream@xercesc_3_1@@QAE@QBEKW4BufOpts@01@QAVMemoryManager@1@@Z 12004450 f   BinMemInputStream.obj
 0001:000034f0       ??1BinMemInputStream@xercesc_3_1@@UAE@XZ 120044f0 f   BinMemInputStream.obj
 0001:00003560       ??_EBinMemInputStream@xercesc_3_1@@UAEPAXI@Z 12004560 f i BinMemInputStream.obj
 0001:00003620       ?getSize@BinMemOutputStream@xercesc_3_1@@QBE_KXZ 12004620 f i BinMemOutputStream.obj
 0001:00003620       ?curPos@BinMemInputStream@xercesc_3_1@@UBE_KXZ 12004620 f i BinMemInputStream.obj
 0001:00003630       ?readBytes@BinMemInputStream@xercesc_3_1@@UAEKQAEK@Z 12004630 f   BinMemInputStream.obj
 0001:00003670       ?reset@BinMemInputStream@xercesc_3_1@@QAEXXZ 12004670 f i BinMemInputStream.obj
 0001:00003680       ??0BitSet@xercesc_3_1@@QAE@ABV01@@Z 12004680 f   BitSet.obj
 0001:000036d0       ??0BitSet@xercesc_3_1@@QAE@KQAVMemoryManager@1@@Z 120046d0 f   BitSet.obj
 0001:00003700       ??1BitSet@xercesc_3_1@@QAE@XZ 12004700 f   BitSet.obj
 0001:00003710       ?allAreCleared@BitSet@xercesc_3_1@@QBE_NXZ 12004710 f   BitSet.obj
 0001:00003740       ?allAreSet@BitSet@xercesc_3_1@@QBE_NXZ 12004740 f   BitSet.obj
 0001:00003770       ?andWith@BitSet@xercesc_3_1@@QAEXABV12@@Z 12004770 f   BitSet.obj
 0001:000037b0       ?clear@BitSet@xercesc_3_1@@QAEXK@Z 120047b0 f   BitSet.obj
 0001:000037f0       ?clearAll@BitSet@xercesc_3_1@@QAEXXZ 120047f0 f   BitSet.obj
 0001:00003820       ?ensureCapacity@BitSet@xercesc_3_1@@AAEXK@Z 12004820 f   BitSet.obj
 0001:000038a0       ?equals@BitSet@xercesc_3_1@@QBE_NABV12@@Z 120048a0 f   BitSet.obj
 0001:000038f0       ?get@BitSet@xercesc_3_1@@QBE_NK@Z 120048f0 f   BitSet.obj
 0001:00003930       ?hash@BitSet@xercesc_3_1@@QBEKK@Z 12004930 f   BitSet.obj
 0001:00003960       ?orWith@BitSet@xercesc_3_1@@QAEXABV12@@Z 12004960 f   BitSet.obj
 0001:000039a0       ?set@BitSet@xercesc_3_1@@QAEXK@Z 120049a0 f   BitSet.obj
 0001:000039e0       ?size@BitSet@xercesc_3_1@@QBEKXZ 120049e0 f   BitSet.obj
 0001:000039f0       ?xorWith@BitSet@xercesc_3_1@@QAEXABV12@@Z 120049f0 f   BitSet.obj
 0001:00003a30       ??0DefaultPanicHandler@xercesc_3_1@@QAE@XZ 12004a30 f i DefaultPanicHandler.obj
 0001:00003a90       ??1DefaultPanicHandler@xercesc_3_1@@UAE@XZ 12004a90 f i DefaultPanicHandler.obj
 0001:00003ae0       ??_EDefaultPanicHandler@xercesc_3_1@@UAEPAXI@Z 12004ae0 f i DefaultPanicHandler.obj
 0001:00003b90       ?panic@DefaultPanicHandler@xercesc_3_1@@UAEXW4PanicReasons@PanicHandler@2@@Z 12004b90 f   DefaultPanicHandler.obj
 0001:00003bc0       ??0EncodingValidator@xercesc_3_1@@AAE@XZ 12004bc0 f   EncodingValidator.obj
 0001:00003be0       ??0IllegalArgumentException@xercesc_3_1@@QAE@ABV01@@Z 12004be0 f i EncodingValidator.obj
 0001:00003c40       ??0IllegalArgumentException@xercesc_3_1@@QAE@QBD_KW4Codes@XMLExcepts@1@0000PAVMemoryManager@1@@Z 12004c40 f i EncodingValidator.obj
 0001:00003cc0       ??0IllegalArgumentException@xercesc_3_1@@QAE@QBD_KW4Codes@XMLExcepts@1@PAVMemoryManager@1@@Z 12004cc0 f i EncodingValidator.obj
 0001:00003d30       ??0IllegalArgumentException@xercesc_3_1@@QAE@QBD_KW4Codes@XMLExcepts@1@QBG333PAVMemoryManager@1@@Z 12004d30 f i EncodingValidator.obj
 0001:00003db0       ??0NoSuchElementException@xercesc_3_1@@QAE@ABV01@@Z 12004db0 f i EncodingValidator.obj
 0001:00003e10       ??0NoSuchElementException@xercesc_3_1@@QAE@QBD_KW4Codes@XMLExcepts@1@0000PAVMemoryManager@1@@Z 12004e10 f i EncodingValidator.obj
 0001:00003e90       ??0NoSuchElementException@xercesc_3_1@@QAE@QBD_KW4Codes@XMLExcepts@1@PAVMemoryManager@1@@Z 12004e90 f i EncodingValidator.obj
 0001:00003f00       ??0NoSuchElementException@xercesc_3_1@@QAE@QBD_KW4Codes@XMLExcepts@1@QBG333PAVMemoryManager@1@@Z 12004f00 f i EncodingValidator.obj
 0001:00003f80       ??0NullPointerException@xercesc_3_1@@QAE@ABV01@@Z 12004f80 f i EncodingValidator.obj
 0001:00003fe0       ??0NullPointerException@xercesc_3_1@@QAE@QBD_KW4Codes@XMLExcepts@1@0000PAVMemoryManager@1@@Z 12004fe0 f i EncodingValidator.obj
 0001:00004060       ??0NullPointerException@xercesc_3_1@@QAE@QBD_KW4Codes@XMLExcepts@1@PAVMemoryManager@1@@Z 12005060 f i EncodingValidator.obj
 0001:000040d0       ??0NullPointerException@xercesc_3_1@@QAE@QBD_KW4Codes@XMLExcepts@1@QBG333PAVMemoryManager@1@@Z 120050d0 f i EncodingValidator.obj
 0001:00004150       ??0RuntimeException@xercesc_3_1@@QAE@ABV01@@Z 12005150 f i EncodingValidator.obj
 0001:000041b0       ??0RuntimeException@xercesc_3_1@@QAE@QBD_KW4Codes@XMLExcepts@1@0000PAVMemoryManager@1@@Z 120051b0 f i EncodingValidator.obj
 0001:00004230       ??0RuntimeException@xercesc_3_1@@QAE@QBD_KW4Codes@XMLExcepts@1@PAVMemoryManager@1@@Z 12005230 f i EncodingValidator.obj
 0001:000042a0       ??0RuntimeException@xercesc_3_1@@QAE@QBD_KW4Codes@XMLExcepts@1@QBG333PAVMemoryManager@1@@Z 120052a0 f i EncodingValidator.obj
 0001:00004320       ??1EncodingValidator@xercesc_3_1@@AAE@XZ 12005320 f   EncodingValidator.obj
 0001:00004350       ??1IllegalArgumentException@xercesc_3_1@@UAE@XZ 12005350 f i EncodingValidator.obj
 0001:000043a0       ??1NoSuchElementException@xercesc_3_1@@UAE@XZ 120053a0 f i EncodingValidator.obj
 0001:000043f0       ??1NullPointerException@xercesc_3_1@@UAE@XZ 120053f0 f i EncodingValidator.obj
 0001:00004440       ??1RuntimeException@xercesc_3_1@@UAE@XZ 12005440 f i EncodingValidator.obj
 0001:00004490       ??4ArrayIndexOutOfBoundsException@xercesc_3_1@@QAEAAV01@ABV01@@Z 12005490 f i Base64.obj
 0001:00004490       ??4XPathException@xercesc_3_1@@QAEAAV01@ABV01@@Z 12005490 f i TraverseSchema.obj
 0001:00004490       ??4NoSuchElementException@xercesc_3_1@@QAEAAV01@ABV01@@Z 12005490 f i EncodingValidator.obj
 0001:00004490       ??4TranscodingException@xercesc_3_1@@QAEAAV01@ABV01@@Z 12005490 f i Base64.obj
 0001:00004490       ??4MalformedURLException@xercesc_3_1@@QAEAAV01@ABV01@@Z 12005490 f i PlatformUtils.obj
 0001:00004490       ??4IOException@xercesc_3_1@@QAEAAV01@ABV01@@Z 12005490 f i HeaderDummy.obj
 0001:00004490       ??4IllegalArgumentException@xercesc_3_1@@QAEAAV01@ABV01@@Z 12005490 f i EncodingValidator.obj
 0001:00004490       ??4UTFDataFormatException@xercesc_3_1@@QAEAAV01@ABV01@@Z 12005490 f i HeaderDummy.obj
 0001:00004490       ??4NullPointerException@xercesc_3_1@@QAEAAV01@ABV01@@Z 12005490 f i EncodingValidator.obj
 0001:00004490       ??4InvalidDatatypeValueException@xercesc_3_1@@QAEAAV01@ABV01@@Z 12005490 f i ValidationContextImpl.obj
 0001:00004490       ??4RuntimeException@xercesc_3_1@@QAEAAV01@ABV01@@Z 12005490 f i EncodingValidator.obj
 0001:00004490       ??4NumberFormatException@xercesc_3_1@@QAEAAV01@ABV01@@Z 12005490 f i XMLAbstractDoubleFloat.obj
 0001:00004490       ??4InvalidDatatypeFacetException@xercesc_3_1@@QAEAAV01@ABV01@@Z 12005490 f i AbstractNumericFacetValidator.obj
 0001:00004490       ??4InvalidCastException@xercesc_3_1@@QAEAAV01@ABV01@@Z 12005490 f i HeaderDummy.obj
 0001:00004490       ??4SchemaDateTimeException@xercesc_3_1@@QAEAAV01@ABV01@@Z 12005490 f i XMLDateTime.obj
 0001:00004490       ??4XMLPlatformUtilsException@xercesc_3_1@@QAEAAV01@ABV01@@Z 12005490 f i Base64.obj
 0001:00004490       ??4UnsupportedEncodingException@xercesc_3_1@@QAEAAV01@ABV01@@Z 12005490 f i HeaderDummy.obj
 0001:00004490       ??4ParseException@xercesc_3_1@@QAEAAV01@ABV01@@Z 12005490 f i ParserForXMLSchema.obj
 0001:00004490       ??4EmptyStackException@xercesc_3_1@@QAEAAV01@ABV01@@Z 12005490 f i HeaderDummy.obj
 0001:00004490       ??4XSerializationException@xercesc_3_1@@QAEAAV01@ABV01@@Z 12005490 f i KVStringPair.obj
 0001:00004490       ??4UnexpectedEOFException@xercesc_3_1@@QAEAAV01@ABV01@@Z 12005490 f i HeaderDummy.obj
 0001:00004490       ??4NetAccessorException@xercesc_3_1@@QAEAAV01@ABV01@@Z 12005490 f i PlatformUtils.obj
 0001:000044b0       ??_EIllegalArgumentException@xercesc_3_1@@UAEPAXI@Z 120054b0 f i EncodingValidator.obj
 0001:00004560       ??_ENoSuchElementException@xercesc_3_1@@UAEPAXI@Z 12005560 f i EncodingValidator.obj
 0001:00004610       ??_ENullPointerException@xercesc_3_1@@UAEPAXI@Z 12005610 f i EncodingValidator.obj
 0001:000046c0       ??_ERuntimeException@xercesc_3_1@@UAEPAXI@Z 120056c0 f i EncodingValidator.obj
 0001:00004770       ?duplicate@IllegalArgumentException@xercesc_3_1@@UBEPAVXMLException@2@XZ 12005770 f i EncodingValidator.obj
 0001:00004810       ?duplicate@NoSuchElementException@xercesc_3_1@@UBEPAVXMLException@2@XZ 12005810 f i EncodingValidator.obj
 0001:000048b0       ?duplicate@NullPointerException@xercesc_3_1@@UBEPAVXMLException@2@XZ 120058b0 f i EncodingValidator.obj
 0001:00004950       ?duplicate@RuntimeException@xercesc_3_1@@UBEPAVXMLException@2@XZ 12005950 f i EncodingValidator.obj
 0001:000049f0       ?getType@IllegalArgumentException@xercesc_3_1@@UBEPBGXZ 120059f0 f i EncodingValidator.obj
 0001:00004a00       ?getType@NoSuchElementException@xercesc_3_1@@UBEPBGXZ 12005a00 f i EncodingValidator.obj
 0001:00004a10       ?getType@NullPointerException@xercesc_3_1@@UBEPBGXZ 12005a10 f i EncodingValidator.obj
 0001:00004a20       ?getType@RuntimeException@xercesc_3_1@@UBEPBGXZ 12005a20 f i EncodingValidator.obj
 0001:00004a30       ?initializeEncodingValidator@XMLInitializer@xercesc_3_1@@CAXXZ 12005a30 f   EncodingValidator.obj
 0001:00004ac0       ?initializeRegistry@EncodingValidator@xercesc_3_1@@AAEXXZ 12005ac0 f   EncodingValidator.obj
 0001:00004ba0       ?instance@EncodingValidator@xercesc_3_1@@SAPAV12@XZ 12005ba0 f   EncodingValidator.obj
 0001:00004bb0       ?isValidEncoding@EncodingValidator@xercesc_3_1@@QAE_NQBG@Z 12005bb0 f   EncodingValidator.obj
 0001:00004bd0       ?put@?$ValueHashTableOf@_NUStringHasher@xercesc_3_1@@@xercesc_3_1@@QAEXPAXAB_N@Z 12005bd0 f i EncodingValidator.obj
 0001:00004ca0       ?terminateEncodingValidator@XMLInitializer@xercesc_3_1@@CAXXZ 12005ca0 f   EncodingValidator.obj
 0001:00004cf0       ??0EmptyStackException@xercesc_3_1@@QAE@ABV01@@Z 12005cf0 f i HeaderDummy.obj
 0001:00004d50       ??0EmptyStackException@xercesc_3_1@@QAE@QBD_KW4Codes@XMLExcepts@1@0000PAVMemoryManager@1@@Z 12005d50 f i HeaderDummy.obj
 0001:00004dd0       ??0EmptyStackException@xercesc_3_1@@QAE@QBD_KW4Codes@XMLExcepts@1@PAVMemoryManager@1@@Z 12005dd0 f i HeaderDummy.obj
 0001:00004e40       ??0EmptyStackException@xercesc_3_1@@QAE@QBD_KW4Codes@XMLExcepts@1@QBG333PAVMemoryManager@1@@Z 12005e40 f i HeaderDummy.obj
 0001:00004ec0       ??0IOException@xercesc_3_1@@QAE@ABV01@@Z 12005ec0 f i HeaderDummy.obj
 0001:00004f20       ??0IOException@xercesc_3_1@@QAE@QBD_KW4Codes@XMLExcepts@1@0000PAVMemoryManager@1@@Z 12005f20 f i HeaderDummy.obj
 0001:00004fa0       ??0IOException@xercesc_3_1@@QAE@QBD_KW4Codes@XMLExcepts@1@PAVMemoryManager@1@@Z 12005fa0 f i HeaderDummy.obj
 0001:00005010       ??0IOException@xercesc_3_1@@QAE@QBD_KW4Codes@XMLExcepts@1@QBG333PAVMemoryManager@1@@Z 12006010 f i HeaderDummy.obj
 0001:00005090       ??0InvalidCastException@xercesc_3_1@@QAE@ABV01@@Z 12006090 f i HeaderDummy.obj
 0001:000050f0       ??0InvalidCastException@xercesc_3_1@@QAE@QBD_KW4Codes@XMLExcepts@1@0000PAVMemoryManager@1@@Z 120060f0 f i HeaderDummy.obj
 0001:00005170       ??0InvalidCastException@xercesc_3_1@@QAE@QBD_KW4Codes@XMLExcepts@1@PAVMemoryManager@1@@Z 12006170 f i HeaderDummy.obj
 0001:000051e0       ??0InvalidCastException@xercesc_3_1@@QAE@QBD_KW4Codes@XMLExcepts@1@QBG333PAVMemoryManager@1@@Z 120061e0 f i HeaderDummy.obj
 0001:00005260       ??0UTFDataFormatException@xercesc_3_1@@QAE@ABV01@@Z 12006260 f i HeaderDummy.obj
 0001:000052c0       ??0UTFDataFormatException@xercesc_3_1@@QAE@QBD_KW4Codes@XMLExcepts@1@0000PAVMemoryManager@1@@Z 120062c0 f i HeaderDummy.obj
 0001:00005340       ??0UTFDataFormatException@xercesc_3_1@@QAE@QBD_KW4Codes@XMLExcepts@1@PAVMemoryManager@1@@Z 12006340 f i HeaderDummy.obj
 0001:000053b0       ??0UTFDataFormatException@xercesc_3_1@@QAE@QBD_KW4Codes@XMLExcepts@1@QBG333PAVMemoryManager@1@@Z 120063b0 f i HeaderDummy.obj
 0001:00005430       ??0UnexpectedEOFException@xercesc_3_1@@QAE@ABV01@@Z 12006430 f i HeaderDummy.obj
 0001:00005490       ??0UnexpectedEOFException@xercesc_3_1@@QAE@QBD_KW4Codes@XMLExcepts@1@0000PAVMemoryManager@1@@Z 12006490 f i HeaderDummy.obj
 0001:00005510       ??0UnexpectedEOFException@xercesc_3_1@@QAE@QBD_KW4Codes@XMLExcepts@1@PAVMemoryManager@1@@Z 12006510 f i HeaderDummy.obj
 0001:00005580       ??0UnexpectedEOFException@xercesc_3_1@@QAE@QBD_KW4Codes@XMLExcepts@1@QBG333PAVMemoryManager@1@@Z 12006580 f i HeaderDummy.obj
 0001:00005600       ??0UnsupportedEncodingException@xercesc_3_1@@QAE@ABV01@@Z 12006600 f i HeaderDummy.obj
 0001:00005660       ??0UnsupportedEncodingException@xercesc_3_1@@QAE@QBD_KW4Codes@XMLExcepts@1@0000PAVMemoryManager@1@@Z 12006660 f i HeaderDummy.obj
 0001:000056e0       ??0UnsupportedEncodingException@xercesc_3_1@@QAE@QBD_KW4Codes@XMLExcepts@1@PAVMemoryManager@1@@Z 120066e0 f i HeaderDummy.obj
 0001:00005750       ??0UnsupportedEncodingException@xercesc_3_1@@QAE@QBD_KW4Codes@XMLExcepts@1@QBG333PAVMemoryManager@1@@Z 12006750 f i HeaderDummy.obj
 0001:000057d0       ??1EmptyStackException@xercesc_3_1@@UAE@XZ 120067d0 f i HeaderDummy.obj
 0001:00005820       ??1IOException@xercesc_3_1@@UAE@XZ 12006820 f i HeaderDummy.obj
 0001:00005870       ??1InvalidCastException@xercesc_3_1@@UAE@XZ 12006870 f i HeaderDummy.obj
 0001:000058c0       ??1UTFDataFormatException@xercesc_3_1@@UAE@XZ 120068c0 f i HeaderDummy.obj
 0001:00005910       ??1UnexpectedEOFException@xercesc_3_1@@UAE@XZ 12006910 f i HeaderDummy.obj
 0001:00005960       ??1UnsupportedEncodingException@xercesc_3_1@@UAE@XZ 12006960 f i HeaderDummy.obj
 0001:000059b0       ??_EEmptyStackException@xercesc_3_1@@UAEPAXI@Z 120069b0 f i HeaderDummy.obj
 0001:00005a60       ??_EIOException@xercesc_3_1@@UAEPAXI@Z 12006a60 f i HeaderDummy.obj
 0001:00005b10       ??_EInvalidCastException@xercesc_3_1@@UAEPAXI@Z 12006b10 f i HeaderDummy.obj
 0001:00005bc0       ??_EUTFDataFormatException@xercesc_3_1@@UAEPAXI@Z 12006bc0 f i HeaderDummy.obj
 0001:00005c70       ??_EUnexpectedEOFException@xercesc_3_1@@UAEPAXI@Z 12006c70 f i HeaderDummy.obj
 0001:00005d20       ??_EUnsupportedEncodingException@xercesc_3_1@@UAEPAXI@Z 12006d20 f i HeaderDummy.obj
 0001:00005dd0       ?duplicate@EmptyStackException@xercesc_3_1@@UBEPAVXMLException@2@XZ 12006dd0 f i HeaderDummy.obj
 0001:00005e70       ?duplicate@IOException@xercesc_3_1@@UBEPAVXMLException@2@XZ 12006e70 f i HeaderDummy.obj
 0001:00005f10       ?duplicate@InvalidCastException@xercesc_3_1@@UBEPAVXMLException@2@XZ 12006f10 f i HeaderDummy.obj
 0001:00005fb0       ?duplicate@UTFDataFormatException@xercesc_3_1@@UBEPAVXMLException@2@XZ 12006fb0 f i HeaderDummy.obj
 0001:00006050       ?duplicate@UnexpectedEOFException@xercesc_3_1@@UBEPAVXMLException@2@XZ 12007050 f i HeaderDummy.obj
 0001:000060f0       ?duplicate@UnsupportedEncodingException@xercesc_3_1@@UBEPAVXMLException@2@XZ 120070f0 f i HeaderDummy.obj
 0001:00006190       ?getType@EmptyStackException@xercesc_3_1@@UBEPBGXZ 12007190 f i HeaderDummy.obj
 0001:000061a0       ?getType@IOException@xercesc_3_1@@UBEPBGXZ 120071a0 f i HeaderDummy.obj
 0001:000061b0       ?getType@InvalidCastException@xercesc_3_1@@UBEPBGXZ 120071b0 f i HeaderDummy.obj
 0001:000061c0       ?getType@UTFDataFormatException@xercesc_3_1@@UBEPBGXZ 120071c0 f i HeaderDummy.obj
 0001:000061d0       ?getType@UnexpectedEOFException@xercesc_3_1@@UBEPBGXZ 120071d0 f i HeaderDummy.obj
 0001:000061e0       ?getType@UnsupportedEncodingException@xercesc_3_1@@UBEPBGXZ 120071e0 f i HeaderDummy.obj
 0001:000061f0       ?swapBytes@BitOps@xercesc_3_1@@SAGG@Z 120071f0 f i HeaderDummy.obj
 0001:00006210       ?swapBytes@BitOps@xercesc_3_1@@SAII@Z 12007210 f i HeaderDummy.obj
 0001:00006240       ?decodeToXMLByte@HexBin@xercesc_3_1@@SAPAEQBGQAVMemoryManager@2@@Z 12007240 f   HexBin.obj
 0001:00006360       ?getCanonicalRepresentation@HexBin@xercesc_3_1@@SAPAGQBGQAVMemoryManager@2@@Z 12007360 f   HexBin.obj
 0001:000063c0       ?getDataLength@HexBin@xercesc_3_1@@SAHQBG@Z 120073c0 f   HexBin.obj
 0001:00006410       ?isArrayByteHex@HexBin@xercesc_3_1@@SA_NQBG@Z 12007410 f   HexBin.obj
 0001:00006480       ?isHex@HexBin@xercesc_3_1@@CA_NABG@Z 12007480 f   HexBin.obj
 0001:000064b0       ?createObject@KVStringPair@xercesc_3_1@@SAPAVXSerializable@2@PAVMemoryManager@2@@Z 120074b0 f   KVStringPair.obj
 0001:00006560       ??0KVStringPair@xercesc_3_1@@QAE@ABV01@@Z 12007560 f   KVStringPair.obj
 0001:000065f0       ??0KVStringPair@xercesc_3_1@@QAE@QAVMemoryManager@1@@Z 120075f0 f   KVStringPair.obj
 0001:00006670       ??0KVStringPair@xercesc_3_1@@QAE@QBG0KQAVMemoryManager@1@@Z 12007670 f   KVStringPair.obj
 0001:00006740       ??0KVStringPair@xercesc_3_1@@QAE@QBG0QAVMemoryManager@1@@Z 12007740 f   KVStringPair.obj
 0001:000067d0       ??0KVStringPair@xercesc_3_1@@QAE@QBGK0KQAVMemoryManager@1@@Z 120077d0 f   KVStringPair.obj
 0001:000068d0       ??0XSerializable@xercesc_3_1@@IAE@ABV01@@Z 120078d0 f i KVStringPair.obj
 0001:000068e0       ??0XSerializable@xercesc_3_1@@IAE@XZ 120078e0 f i KVStringPair.obj
 0001:000068f0       ??0XSerializationException@xercesc_3_1@@QAE@ABV01@@Z 120078f0 f i KVStringPair.obj
 0001:00006950       ??0XSerializationException@xercesc_3_1@@QAE@QBD_KW4Codes@XMLExcepts@1@0000PAVMemoryManager@1@@Z 12007950 f i KVStringPair.obj
 0001:000069d0       ??0XSerializationException@xercesc_3_1@@QAE@QBD_KW4Codes@XMLExcepts@1@PAVMemoryManager@1@@Z 120079d0 f i KVStringPair.obj
 0001:00006a40       ??0XSerializationException@xercesc_3_1@@QAE@QBD_KW4Codes@XMLExcepts@1@QBG333PAVMemoryManager@1@@Z 12007a40 f i KVStringPair.obj
 0001:00006ac0       ??1KVStringPair@xercesc_3_1@@UAE@XZ 12007ac0 f   KVStringPair.obj
 0001:00006b30       ??1XSerializable@xercesc_3_1@@UAE@XZ 12007b30 f i KVStringPair.obj
 0001:00006b40       ??1XSerializationException@xercesc_3_1@@UAE@XZ 12007b40 f i KVStringPair.obj
 0001:00006b90       ??_EKVStringPair@xercesc_3_1@@UAEPAXI@Z 12007b90 f i KVStringPair.obj
 0001:00006c50       ??_EXSerializable@xercesc_3_1@@UAEPAXI@Z 12007c50 f i KVStringPair.obj
 0001:00006cb0       ??_EXSerializationException@xercesc_3_1@@UAEPAXI@Z 12007cb0 f i KVStringPair.obj
 0001:00006d60       ??_FKVStringPair@xercesc_3_1@@QAEXXZ 12007d60 f i KVStringPair.obj
 0001:00006de0       ?Assert@XSerializeEngine@xercesc_3_1@@ABEX_NW4Codes@XMLExcepts@2@@Z 12007de0 f i KVStringPair.obj
 0001:00006e70       ?duplicate@XSerializationException@xercesc_3_1@@UBEPAVXMLException@2@XZ 12007e70 f i KVStringPair.obj
 0001:00006f10       ?ensureLoading@XSerializeEngine@xercesc_3_1@@ABEXXZ 12007f10 f i KVStringPair.obj
 0001:00006f30       ?ensureStoring@XSerializeEngine@xercesc_3_1@@ABEXXZ 12007f30 f i KVStringPair.obj
 0001:00006f50       ?getBufCur@XSerializeEngine@xercesc_3_1@@QBEKXZ 12007f50 f i KVStringPair.obj
 0001:00006f60       ?getBufCurAccumulated@XSerializeEngine@xercesc_3_1@@QBEKXZ 12007f60 f i KVStringPair.obj
 0001:00006f80       ?getProtoType@KVStringPair@xercesc_3_1@@UBEPAVXProtoType@2@XZ 12007f80 f   KVStringPair.obj
 0001:00006f90       ?getType@XSerializationException@xercesc_3_1@@UBEPBGXZ 12007f90 f i KVStringPair.obj
 0001:00006fa0       ?isLoading@XSerializeEngine@xercesc_3_1@@QBE_NXZ 12007fa0 f i KVStringPair.obj
 0001:00006fb0       ?isStoring@XSerializeEngine@xercesc_3_1@@QBE_NXZ 12007fb0 f i KVStringPair.obj
 0001:00006fc0       ?readString@XSerializeEngine@xercesc_3_1@@QAEXAAPAE@Z 12007fc0 f i KVStringPair.obj
 0001:00006fe0       ?readString@XSerializeEngine@xercesc_3_1@@QAEXAAPAEAAK@Z 12007fe0 f i KVStringPair.obj
 0001:00007000       ?readString@XSerializeEngine@xercesc_3_1@@QAEXAAPAG@Z 12008000 f i KVStringPair.obj
 0001:00007020       ?readString@XSerializeEngine@xercesc_3_1@@QAEXAAPAGAAK@Z 12008020 f i KVStringPair.obj
 0001:00007040       ?serialize@KVStringPair@xercesc_3_1@@UAEXAAVXSerializeEngine@2@@Z 12008040 f   KVStringPair.obj
 0001:000070d0       ?set@KVStringPair@xercesc_3_1@@QAEXQBG0@Z 120080d0 f i KVStringPair.obj
 0001:000071a0       ?set@KVStringPair@xercesc_3_1@@QAEXQBGK0K@Z 120081a0 f i KVStringPair.obj
 0001:00007240       ?setKey@KVStringPair@xercesc_3_1@@QAEXQBG@Z 12008240 f i KVStringPair.obj
 0001:000072b0       ?setKey@KVStringPair@xercesc_3_1@@QAEXQBGK@Z 120082b0 f i KVStringPair.obj
 0001:00007310       ?setValue@KVStringPair@xercesc_3_1@@QAEXQBG@Z 12008310 f i KVStringPair.obj
 0001:00007380       ?setValue@KVStringPair@xercesc_3_1@@QAEXQBGK@Z 12008380 f i KVStringPair.obj
 0001:000073e0       ??0XMLMutex@xercesc_3_1@@QAE@QAVMemoryManager@1@@Z 120083e0 f   Mutexes.obj
 0001:00007410       ??0XMLMutexLock@xercesc_3_1@@QAE@QAVXMLMutex@1@@Z 12008410 f   Mutexes.obj
 0001:00007430       ??1XMLMutex@xercesc_3_1@@QAE@XZ 12008430 f   Mutexes.obj
 0001:00007450       ??1XMLMutexLock@xercesc_3_1@@QAE@XZ 12008450 f   Mutexes.obj
 0001:00007460       ??_FXMLMutex@xercesc_3_1@@QAEXXZ 12008460 f i Mutexes.obj
 0001:00007480       ?lock@XMLMutex@xercesc_3_1@@QAEXXZ 12008480 f   Mutexes.obj
 0001:00007490       ?unlock@XMLMutex@xercesc_3_1@@QAEXXZ 12008490 f   Mutexes.obj
 0001:000074a0       ?getPanicReasonString@PanicHandler@xercesc_3_1@@SAPBDW4PanicReasons@12@@Z 120084a0 f   PanicHandler.obj
 0001:00007520       ??0MalformedURLException@xercesc_3_1@@QAE@ABV01@@Z 12008520 f i PlatformUtils.obj
 0001:00007580       ??0MalformedURLException@xercesc_3_1@@QAE@QBD_KW4Codes@XMLExcepts@1@0000PAVMemoryManager@1@@Z 12008580 f i PlatformUtils.obj
 0001:00007600       ??0MalformedURLException@xercesc_3_1@@QAE@QBD_KW4Codes@XMLExcepts@1@PAVMemoryManager@1@@Z 12008600 f i PlatformUtils.obj
 0001:00007670       ??0MalformedURLException@xercesc_3_1@@QAE@QBD_KW4Codes@XMLExcepts@1@QBG333PAVMemoryManager@1@@Z 12008670 f i PlatformUtils.obj
 0001:000076f0       ??0MemoryManagerImpl@xercesc_3_1@@QAE@XZ 120086f0 f i PlatformUtils.obj
 0001:00007750       ??0NetAccessorException@xercesc_3_1@@QAE@ABV01@@Z 12008750 f i PlatformUtils.obj
 0001:000077b0       ??0NetAccessorException@xercesc_3_1@@QAE@QBD_KW4Codes@XMLExcepts@1@0000PAVMemoryManager@1@@Z 120087b0 f i PlatformUtils.obj
 0001:00007830       ??0NetAccessorException@xercesc_3_1@@QAE@QBD_KW4Codes@XMLExcepts@1@PAVMemoryManager@1@@Z 12008830 f i PlatformUtils.obj
 0001:000078a0       ??0NetAccessorException@xercesc_3_1@@QAE@QBD_KW4Codes@XMLExcepts@1@QBG333PAVMemoryManager@1@@Z 120088a0 f i PlatformUtils.obj
 0001:00007920       ??0OutOfMemoryException@xercesc_3_1@@QAE@XZ 12008920 f i PlatformUtils.obj
 0001:00007920       ?getExceptionMemoryManager@MemoryManagerImpl@xercesc_3_1@@UAEPAVMemoryManager@2@XZ 12008920 f i MemoryManagerImpl.obj
 0001:00007920       ??0XUtil@xercesc_3_1@@AAE@XZ 12008920 f i SchemaInfo.obj
 0001:00007920       ??0XMemory@xercesc_3_1@@IAE@XZ 12008920 f i Base64.obj
 0001:00007930       ??0XMLMsgLoader@xercesc_3_1@@IAE@XZ 12008930 f i PlatformUtils.obj
 0001:00007940       ??0XMLNetAccessor@xercesc_3_1@@IAE@XZ 12008940 f i PlatformUtils.obj
 0001:00007950       ??0XMLNetHTTPInfo@xercesc_3_1@@QAE@XZ 12008950 f i PlatformUtils.obj
 0001:00007980       ??1MalformedURLException@xercesc_3_1@@UAE@XZ 12008980 f i PlatformUtils.obj
 0001:000079d0       ??1MemoryManagerImpl@xercesc_3_1@@UAE@XZ 120089d0 f i PlatformUtils.obj
 0001:00007a20       ??1NetAccessorException@xercesc_3_1@@UAE@XZ 12008a20 f i PlatformUtils.obj
 0001:00007a70       ??1XMLMsgLoader@xercesc_3_1@@UAE@XZ 12008a70 f i PlatformUtils.obj
 0001:00007a80       ??1XMLNetAccessor@xercesc_3_1@@UAE@XZ 12008a80 f i PlatformUtils.obj
 0001:00007a90       ??4XMLNetHTTPInfo@xercesc_3_1@@QAEAAV01@ABV01@@Z 12008a90 f i PlatformUtils.obj
 0001:00007ab0       ??9XMLURL@xercesc_3_1@@QBE_NABV01@@Z 12008ab0 f i PlatformUtils.obj
 0001:00007ad0       ??_EMalformedURLException@xercesc_3_1@@UAEPAXI@Z 12008ad0 f i PlatformUtils.obj
 0001:00007b80       ??_EMemoryManagerImpl@xercesc_3_1@@UAEPAXI@Z 12008b80 f i PlatformUtils.obj
 0001:00007c30       ??_ENetAccessorException@xercesc_3_1@@UAEPAXI@Z 12008c30 f i PlatformUtils.obj
 0001:00007ce0       ??_EXMLMsgLoader@xercesc_3_1@@UAEPAXI@Z 12008ce0 f i PlatformUtils.obj
 0001:00007d40       ??_EXMLNetAccessor@xercesc_3_1@@UAEPAXI@Z 12008d40 f i PlatformUtils.obj
 0001:00007da0       ??_FXMLURL@xercesc_3_1@@QAEXXZ 12008da0 f i PlatformUtils.obj
 0001:00007db0       ?Initialize@XMLPlatformUtils@xercesc_3_1@@SAXKKKQBD0QAVPanicHandler@2@QAVMemoryManager@2@@Z 12008db0 f   PlatformUtils.obj
 0001:00007df0       ?Initialize@XMLPlatformUtils@xercesc_3_1@@SAXQBD0QAVPanicHandler@2@QAVMemoryManager@2@@Z 12008df0 f   PlatformUtils.obj
 0001:00008050       ?Terminate@XMLPlatformUtils@xercesc_3_1@@SAXXZ 12009050 f   PlatformUtils.obj
 0001:000081a0       ?adopt@TranscodeToStr@xercesc_3_1@@QAEPAEXZ 120091a0 f i PlatformUtils.obj
 0001:000081a0       ?adopt@TranscodeFromStr@xercesc_3_1@@QAEPAGXZ 120091a0 f i PlatformUtils.obj
 0001:000081b0       ?closeFile@XMLPlatformUtils@xercesc_3_1@@SAXPAXQAVMemoryManager@2@@Z 120091b0 f   PlatformUtils.obj
 0001:00008240       ?closeMutex@XMLPlatformUtils@xercesc_3_1@@SAXQAXQAVMemoryManager@2@@Z 12009240 f   PlatformUtils.obj
 0001:00008280       ?curFilePos@XMLPlatformUtils@xercesc_3_1@@SA_KPAXQAVMemoryManager@2@@Z 12009280 f   PlatformUtils.obj
 0001:00008310       ?duplicate@MalformedURLException@xercesc_3_1@@UBEPAVXMLException@2@XZ 12009310 f i PlatformUtils.obj
 0001:000083b0       ?duplicate@NetAccessorException@xercesc_3_1@@UBEPAVXMLException@2@XZ 120093b0 f i PlatformUtils.obj
 0001:00008450       ?fileSize@XMLPlatformUtils@xercesc_3_1@@SA_KPAXQAVMemoryManager@2@@Z 12009450 f   PlatformUtils.obj
 0001:000084e0       ?getCode@OutOfMemoryException@xercesc_3_1@@QBE?AW4Codes@XMLExcepts@2@XZ 120094e0 f i PlatformUtils.obj
 0001:000084f0       ?getCurrentDirectory@XMLPlatformUtils@xercesc_3_1@@SAPAGQAVMemoryManager@2@@Z 120094f0 f   PlatformUtils.obj
 0001:00008580       ?getCurrentMillis@XMLPlatformUtils@xercesc_3_1@@SAKXZ 12009580 f   PlatformUtils.obj
 0001:000085c0       ?getFullPath@XMLPlatformUtils@xercesc_3_1@@SAPAGQBGQAVMemoryManager@2@@Z 120095c0 f   PlatformUtils.obj
 0001:00008650       ?getId@WinSockNetAccessor@xercesc_3_1@@UBEPBGXZ 12009650 f i PlatformUtils.obj
 0001:00008660       ?getType@OutOfMemoryException@xercesc_3_1@@QBEPBGXZ 12009660 f i PlatformUtils.obj
 0001:00008660       ?getMessage@OutOfMemoryException@xercesc_3_1@@QBEPBGXZ 12009660 f i PlatformUtils.obj
 0001:00008670       ?getSrcFile@OutOfMemoryException@xercesc_3_1@@QBEPBDXZ 12009670 f i PlatformUtils.obj
 0001:00008680       ?getSrcLine@OutOfMemoryException@xercesc_3_1@@QBE_KXZ 12009680 f i PlatformUtils.obj
 0001:00008690       ?getType@MalformedURLException@xercesc_3_1@@UBEPBGXZ 12009690 f i PlatformUtils.obj
 0001:000086a0       ?getType@NetAccessorException@xercesc_3_1@@UBEPBGXZ 120096a0 f i PlatformUtils.obj
 0001:000086b0       ?getURLText@XMLURL@xercesc_3_1@@QBEPBGXZ 120096b0 f i PlatformUtils.obj
 0001:000086d0       ?isAnySlash@XMLPlatformUtils@xercesc_3_1@@SA_NG@Z 120096d0 f i PlatformUtils.obj
 0001:00008700       ?isNELRecognized@XMLChar1_0@xercesc_3_1@@SA_NXZ 12009700 f   Base64.obj
 0001:00008700       ?isNELRecognized@XMLPlatformUtils@xercesc_3_1@@SA_NXZ 12009700 f   PlatformUtils.obj
 0001:00008710       ?isRelative@XMLPlatformUtils@xercesc_3_1@@SA_NQBGQAVMemoryManager@2@@Z 12009710 f   PlatformUtils.obj
 0001:000087a0       ?isStrictIANAEncoding@XMLPlatformUtils@xercesc_3_1@@SA_NXZ 120097a0 f   PlatformUtils.obj
 0001:000087c0       ?loadAMsgSet@XMLPlatformUtils@xercesc_3_1@@CAPAVXMLMsgLoader@2@QBG@Z 120097c0 f   PlatformUtils.obj
 0001:00008890       ?loadMsgSet@XMLPlatformUtils@xercesc_3_1@@SAPAVXMLMsgLoader@2@QBG@Z 12009890 f   PlatformUtils.obj
 0001:000088a0       ?lockMutex@XMLPlatformUtils@xercesc_3_1@@SAXQAX@Z 120098a0 f   PlatformUtils.obj
 0001:000088e0       ?makeFileMgr@XMLPlatformUtils@xercesc_3_1@@SAPAVXMLFileMgr@2@QAVMemoryManager@2@@Z 120098e0 f   PlatformUtils.obj
 0001:00008960       ?makeMutex@XMLPlatformUtils@xercesc_3_1@@SAPAXQAVMemoryManager@2@@Z 12009960 f   PlatformUtils.obj
 0001:000089a0       ?makeMutexMgr@XMLPlatformUtils@xercesc_3_1@@SAPAVXMLMutexMgr@2@QAVMemoryManager@2@@Z 120099a0 f   PlatformUtils.obj
 0001:00008a20       ?makeNetAccessor@XMLPlatformUtils@xercesc_3_1@@CAPAVXMLNetAccessor@2@XZ 12009a20 f   PlatformUtils.obj
 0001:00008a90       ?makeTransService@XMLPlatformUtils@xercesc_3_1@@CAPAVXMLTransService@2@XZ 12009a90 f   PlatformUtils.obj
 0001:00008b10       ?openFile@XMLPlatformUtils@xercesc_3_1@@SAPAXQBDQAVMemoryManager@2@@Z 12009b10 f   PlatformUtils.obj
 0001:00008ba0       ?openFile@XMLPlatformUtils@xercesc_3_1@@SAPAXQBGQAVMemoryManager@2@@Z 12009ba0 f   PlatformUtils.obj
 0001:00008c30       ?openFileToWrite@XMLPlatformUtils@xercesc_3_1@@SAPAXQBDQAVMemoryManager@2@@Z 12009c30 f   PlatformUtils.obj
 0001:00008cc0       ?openFileToWrite@XMLPlatformUtils@xercesc_3_1@@SAPAXQBGQAVMemoryManager@2@@Z 12009cc0 f   PlatformUtils.obj
 0001:00008d50       ?openStdInHandle@XMLPlatformUtils@xercesc_3_1@@SAPAXQAVMemoryManager@2@@Z 12009d50 f   PlatformUtils.obj
 0001:00008de0       ?panic@XMLPlatformUtils@xercesc_3_1@@SAXW4PanicReasons@PanicHandler@2@@Z 12009de0 f   PlatformUtils.obj
 0001:00008e00       ?readFileBuffer@XMLPlatformUtils@xercesc_3_1@@SAKPAXKQAEQAVMemoryManager@2@@Z 12009e00 f   PlatformUtils.obj
 0001:00008e90       ?recognizeNEL@XMLPlatformUtils@xercesc_3_1@@SAX_NQAVMemoryManager@2@@Z 12009e90 f   PlatformUtils.obj
 0001:00008f40       ?removeDotDotSlash@XMLPlatformUtils@xercesc_3_1@@SAXQAGQAVMemoryManager@2@@Z 12009f40 f   PlatformUtils.obj
 0001:00009110       ?removeDotSlash@XMLPlatformUtils@xercesc_3_1@@SAXQAGQAVMemoryManager@2@@Z 1200a110 f   PlatformUtils.obj
 0001:00009270       ?resetFile@XMLPlatformUtils@xercesc_3_1@@SAXPAXQAVMemoryManager@2@@Z 1200a270 f   PlatformUtils.obj
 0001:00009300       ?searchSlashDotDotSlash@XMLPlatformUtils@xercesc_3_1@@CAHQAG@Z 1200a300 f   PlatformUtils.obj
 0001:000093a0       ?getGroup@XMLCanRepGroup@xercesc_3_1@@QBE?AW4CanRepGroup@12@XZ 1200a3a0 f i XMLGrammarPoolImpl.obj
 0001:000093a0       ?getEntity@EndOfEntityException@xercesc_3_1@@QAEAAVXMLEntityDecl@2@XZ 1200a3a0 f i DGXMLScanner.obj
 0001:000093a0       ?getEmptyNamespaceId@ElemStack@xercesc_3_1@@QAEIXZ 1200a3a0 f i XMLValidator.obj
 0001:000093a0       ?getLen@XMLBuffer@xercesc_3_1@@QBEKXZ 1200a3a0 f i Base64.obj
 0001:000093a0       ?intValue@XMLInteger@xercesc_3_1@@QBEHXZ 1200a3a0 f i DFAContentModel.obj
 0001:000093a0       ?str@TranscodeToStr@xercesc_3_1@@QBEPBEXZ 1200a3a0 f i PlatformUtils.obj
 0001:000093a0       ?getCategoryId@RangeTokenElemMap@xercesc_3_1@@QBEIXZ 1200a3a0 f i ASCIIRangeFactory.obj
 0001:000093a0       ?getEscapeFlags@XMLFormatter@xercesc_3_1@@QBE?AW4EscapeFlags@12@XZ 1200a3a0 f i LocalFileFormatTarget.obj
 0001:000093a0       ?getEntity@EndOfEntityException@xercesc_3_1@@QBEABVXMLEntityDecl@2@XZ 1200a3a0 f i DGXMLScanner.obj
 0001:000093a0       ?getSign@XMLBigInteger@xercesc_3_1@@QBEHXZ 1200a3a0 f i XMLBigDecimal.obj
 0001:000093a0       ?str@TranscodeFromStr@xercesc_3_1@@QBEPBGXZ 1200a3a0 f i PlatformUtils.obj
 0001:000093a0       ?getBufferCount@XMLBufferMgr@xercesc_3_1@@QBEKXZ 1200a3a0 f i XMLBufferMgr.obj
 0001:000093a0       ?getLocation@XIncludeLocation@xercesc_3_1@@QAEPBGXZ 1200a3a0 f i AbstractDOMParser.obj
 0001:000093a0       ?getMatcherCount@XPathMatcherStack@xercesc_3_1@@QBEKXZ 1200a3a0 f i IGXMLScanner.obj
 0001:000093a0       ?getResourceIdentifierType@XMLResourceIdentifier@xercesc_3_1@@QBE?AW4ResourceIdentifierType@12@XZ 1200a3a0 f i DGXMLScanner.obj
 0001:000093a0       ?getTokenRegistry@RangeTokenMap@xercesc_3_1@@IBEPAV?$RefHashTableOf@VRangeTokenElemMap@xercesc_3_1@@UStringHasher@2@@2@XZ 1200a3a0 f i ASCIIRangeFactory.obj
 0001:000093b0       ?strictIANAEncoding@XMLPlatformUtils@xercesc_3_1@@SAX_N@Z 1200a3b0 f   PlatformUtils.obj
 0001:000093d0       ?unlockMutex@XMLPlatformUtils@xercesc_3_1@@SAXQAX@Z 1200a3d0 f   PlatformUtils.obj
 0001:00009410       ?weavePaths@XMLPlatformUtils@xercesc_3_1@@SAPAGQBG0QAVMemoryManager@2@@Z 1200a410 f   PlatformUtils.obj
 0001:00009510       ?writeBufferToFile@XMLPlatformUtils@xercesc_3_1@@SAXQAXKQBEQAVMemoryManager@2@@Z 1200a510 f   PlatformUtils.obj
 0001:000095a0       ?createObject@QName@xercesc_3_1@@SAPAVXSerializable@2@PAVMemoryManager@2@@Z 1200a5a0 f   QName.obj
 0001:00009660       ??0QName@xercesc_3_1@@QAE@ABV01@@Z 1200a660 f   QName.obj
 0001:00009790       ??0QName@xercesc_3_1@@QAE@QAVMemoryManager@1@@Z 1200a790 f   QName.obj
 0001:00009820       ??0QName@xercesc_3_1@@QAE@QBG0IQAVMemoryManager@1@@Z 1200a820 f   QName.obj
 0001:00009910       ??0QName@xercesc_3_1@@QAE@QBGIQAVMemoryManager@1@@Z 1200a910 f   QName.obj
 0001:00009a00       ??1QName@xercesc_3_1@@UAE@XZ 1200aa00 f   QName.obj
 0001:00009a90       ??8QName@xercesc_3_1@@QBE_NABV01@@Z 1200aa90 f   QName.obj
 0001:00009b00       ??_EQName@xercesc_3_1@@UAEPAXI@Z 1200ab00 f i QName.obj
 0001:00009b60       ??_FQName@xercesc_3_1@@QAEXXZ 1200ab60 f i QName.obj
 0001:00009bf0       ?cleanUp@QName@xercesc_3_1@@QAEXXZ 1200abf0 f   QName.obj
 0001:00009c30       ?getProtoType@QName@xercesc_3_1@@UBEPAVXProtoType@2@XZ 1200ac30 f   QName.obj
 0001:00009c40       ?getRawName@QName@xercesc_3_1@@QBEPBGXZ 1200ac40 f   QName.obj
 0001:00009c40       ?getRawName@QName@xercesc_3_1@@QAEPAGXZ 1200ac40 f   QName.obj
 0001:00009d00       ?serialize@QName@xercesc_3_1@@UAEXAAVXSerializeEngine@2@@Z 1200ad00 f   QName.obj
 0001:00009db0       ?setLocalPart@QName@xercesc_3_1@@QAEXPBG@Z 1200adb0 f i QName.obj
 0001:00009e30       ?setNLocalPart@QName@xercesc_3_1@@QAEXPBGK@Z 1200ae30 f   QName.obj
 0001:00009e90       ?setNPrefix@QName@xercesc_3_1@@QAEXPBGK@Z 1200ae90 f   QName.obj
 0001:00009ef0       ?setName@QName@xercesc_3_1@@QAEXQBG0I@Z 1200aef0 f   QName.obj
 0001:00009f20       ?setName@QName@xercesc_3_1@@QAEXQBGI@Z 1200af20 f   QName.obj
 0001:0000a060       ?setPrefix@QName@xercesc_3_1@@QAEXPBG@Z 1200b060 f i QName.obj
 0001:0000a0e0       ?setValues@QName@xercesc_3_1@@QAEXABV12@@Z 1200b0e0 f   QName.obj
 0001:0000a110       ?createObject@XMLStringPool@xercesc_3_1@@SAPAVXSerializable@2@PAVMemoryManager@2@@Z 1200b110 f   StringPool.obj
 0001:0000a190       ??0XMLStringPool@xercesc_3_1@@QAE@IQAVMemoryManager@1@@Z 1200b190 f   StringPool.obj
 0001:0000a280       ??0XMLStringPool@xercesc_3_1@@QAE@QAVMemoryManager@1@@Z 1200b280 f   StringPool.obj
 0001:0000a390       ??1XMLStringPool@xercesc_3_1@@UAE@XZ 1200b390 f   StringPool.obj
 0001:0000a450       ??_EXMLStringPool@xercesc_3_1@@UAEPAXI@Z 1200b450 f i StringPool.obj
 0001:0000a4b0       ??_FXMLStringPool@xercesc_3_1@@QAEXXZ 1200b4b0 f i StringPool.obj
 0001:0000a4c0       ?addNewEntry@XMLStringPool@xercesc_3_1@@AAEIQBG@Z 1200b4c0 f   StringPool.obj
 0001:0000a5c0       ?addOrFind@XMLStringPool@xercesc_3_1@@UAEIQBG@Z 1200b5c0 f i StringPool.obj
 0001:0000a600       ?exists@XMLStringPool@xercesc_3_1@@UBE_NI@Z 1200b600 f i StringPool.obj
 0001:0000a620       ?exists@XMLStringPool@xercesc_3_1@@UBE_NQBG@Z 1200b620 f i StringPool.obj
 0001:0000a640       ?flushAll@XMLStringPool@xercesc_3_1@@UAEXXZ 1200b640 f   StringPool.obj
 0001:0000a6f0       ?getId@XMLStringPool@xercesc_3_1@@UBEIQBG@Z 1200b6f0 f i StringPool.obj
 0001:0000a720       ?getProtoType@XMLStringPool@xercesc_3_1@@UBEPAVXProtoType@2@XZ 1200b720 f   StringPool.obj
 0001:0000a730       ?getStringCount@XMLStringPool@xercesc_3_1@@UBEIXZ 1200b730 f i StringPool.obj
 0001:0000a740       ?getValueForId@XMLStringPool@xercesc_3_1@@UBEPBGI@Z 1200b740 f i StringPool.obj
 0001:0000a7d0       ?serialize@XMLStringPool@xercesc_3_1@@UAEXAAVXSerializeEngine@2@@Z 1200b7d0 f   StringPool.obj
 0001:0000a870       ??0XMLSynchronizedStringPool@xercesc_3_1@@QAE@PBVXMLStringPool@1@IQAVMemoryManager@1@@Z 1200b870 f   SynchronizedStringPool.obj
 0001:0000a8e0       ??1XMLSynchronizedStringPool@xercesc_3_1@@UAE@XZ 1200b8e0 f   SynchronizedStringPool.obj
 0001:0000a940       ??_EXMLSynchronizedStringPool@xercesc_3_1@@UAEPAXI@Z 1200b940 f i SynchronizedStringPool.obj
 0001:0000aa00       ?addOrFind@XMLSynchronizedStringPool@xercesc_3_1@@UAEIQBG@Z 1200ba00 f   SynchronizedStringPool.obj
 0001:0000aaa0       ?exists@XMLSynchronizedStringPool@xercesc_3_1@@UBE_NI@Z 1200baa0 f   SynchronizedStringPool.obj
 0001:0000ab50       ?exists@XMLSynchronizedStringPool@xercesc_3_1@@UBE_NQBG@Z 1200bb50 f   SynchronizedStringPool.obj
 0001:0000abf0       ?flushAll@XMLSynchronizedStringPool@xercesc_3_1@@UAEXXZ 1200bbf0 f   SynchronizedStringPool.obj
 0001:0000ac00       ?getId@XMLSynchronizedStringPool@xercesc_3_1@@UBEIQBG@Z 1200bc00 f   SynchronizedStringPool.obj
 0001:0000aca0       ?getStringCount@XMLSynchronizedStringPool@xercesc_3_1@@UBEIXZ 1200bca0 f   SynchronizedStringPool.obj
 0001:0000ad10       ?getValueForId@XMLSynchronizedStringPool@xercesc_3_1@@UBEPBGI@Z 1200bd10 f   SynchronizedStringPool.obj
 0001:0000adb0       ??0TranscodeFromStr@xercesc_3_1@@QAE@PBEKPAVXMLTranscoder@1@PAVMemoryManager@1@@Z 1200bdb0 f   TransService.obj
 0001:0000ade0       ??0TranscodeFromStr@xercesc_3_1@@QAE@PBEKPBDPAVMemoryManager@1@@Z 1200bde0 f   TransService.obj
 0001:0000aed0       ??0TranscodeToStr@xercesc_3_1@@QAE@PBGKPAVXMLTranscoder@1@PAVMemoryManager@1@@Z 1200bed0 f   TransService.obj
 0001:0000af00       ??0TranscodeToStr@xercesc_3_1@@QAE@PBGKPBDPAVMemoryManager@1@@Z 1200bf00 f   TransService.obj
 0001:0000aff0       ??0TranscodeToStr@xercesc_3_1@@QAE@PBGPAVXMLTranscoder@1@PAVMemoryManager@1@@Z 1200bff0 f   TransService.obj
 0001:0000b050       ??0TranscodeToStr@xercesc_3_1@@QAE@PBGPBDPAVMemoryManager@1@@Z 1200c050 f   TransService.obj
 0001:0000b160       ??0XMLLCPTranscoder@xercesc_3_1@@IAE@XZ 1200c160 f   TransService.obj
 0001:0000b170       ??0XMLTransService@xercesc_3_1@@IAE@XZ 1200c170 f   TransService.obj
 0001:0000b180       ??0XMLTranscoder@xercesc_3_1@@IAE@QBGKQAVMemoryManager@1@@Z 1200c180 f   TransService.obj
 0001:0000b200       ??1?$BaseRefVectorOf@VENameMap@xercesc_3_1@@@xercesc_3_1@@UAE@XZ 1200c200 f i TransService.obj
 0001:0000b210       ??1?$RefVectorOf@VENameMap@xercesc_3_1@@@xercesc_3_1@@UAE@XZ 1200c210 f i TransService.obj
 0001:0000b2a0       ??1ENameMap@xercesc_3_1@@UAE@XZ 1200c2a0 f i TransService.obj
 0001:0000b2c0       ??1TranscodeToStr@xercesc_3_1@@QAE@XZ 1200c2c0 f   TransService.obj
 0001:0000b2c0       ??1TranscodeFromStr@xercesc_3_1@@QAE@XZ 1200c2c0 f   TransService.obj
 0001:0000b2d0       ??1XMLLCPTranscoder@xercesc_3_1@@UAE@XZ 1200c2d0 f   TransService.obj
 0001:0000b2e0       ??1XMLTransService@xercesc_3_1@@UAE@XZ 1200c2e0 f   TransService.obj
 0001:0000b2f0       ??1XMLTranscoder@xercesc_3_1@@UAE@XZ 1200c2f0 f   TransService.obj
 0001:0000b310       ??_EXMLLCPTranscoder@xercesc_3_1@@UAEPAXI@Z 1200c310 f i TransService.obj
 0001:0000b370       ??_EXMLTransService@xercesc_3_1@@UAEPAXI@Z 1200c370 f i TransService.obj
 0001:0000b3d0       ??_EXMLTranscoder@xercesc_3_1@@UAEPAXI@Z 1200c3d0 f i TransService.obj
 0001:0000b440       ??_E?$BaseRefVectorOf@VENameMap@xercesc_3_1@@@xercesc_3_1@@UAEPAXI@Z 1200c440 f i TransService.obj
 0001:0000b440       ??_G?$BaseRefVectorOf@VENameMap@xercesc_3_1@@@xercesc_3_1@@UAEPAXI@Z 1200c440 f i TransService.obj
 0001:0000b470       ??_E?$EEndianNameMapFor@VXMLUCS4Transcoder@xercesc_3_1@@@xercesc_3_1@@UAEPAXI@Z 1200c470 f i TransService.obj
 0001:0000b470       ??_G?$EEndianNameMapFor@VXMLUCS4Transcoder@xercesc_3_1@@@xercesc_3_1@@UAEPAXI@Z 1200c470 f i TransService.obj
 0001:0000b4e0       ??_G?$EEndianNameMapFor@VXMLUTF16Transcoder@xercesc_3_1@@@xercesc_3_1@@UAEPAXI@Z 1200c4e0 f i TransService.obj
 0001:0000b4e0       ??_E?$EEndianNameMapFor@VXMLUTF16Transcoder@xercesc_3_1@@@xercesc_3_1@@UAEPAXI@Z 1200c4e0 f i TransService.obj
 0001:0000b550       ??_G?$ENameMapFor@VXML88591Transcoder@xercesc_3_1@@@xercesc_3_1@@UAEPAXI@Z 1200c550 f i TransService.obj
 0001:0000b550       ??_E?$ENameMapFor@VXML88591Transcoder@xercesc_3_1@@@xercesc_3_1@@UAEPAXI@Z 1200c550 f i TransService.obj
 0001:0000b5c0       ??_E?$ENameMapFor@VXMLASCIITranscoder@xercesc_3_1@@@xercesc_3_1@@UAEPAXI@Z 1200c5c0 f i TransService.obj
 0001:0000b5c0       ??_G?$ENameMapFor@VXMLASCIITranscoder@xercesc_3_1@@@xercesc_3_1@@UAEPAXI@Z 1200c5c0 f i TransService.obj
 0001:0000b630       ??_G?$ENameMapFor@VXMLChTranscoder@xercesc_3_1@@@xercesc_3_1@@UAEPAXI@Z 1200c630 f i TransService.obj
 0001:0000b630       ??_E?$ENameMapFor@VXMLChTranscoder@xercesc_3_1@@@xercesc_3_1@@UAEPAXI@Z 1200c630 f i TransService.obj
 0001:0000b6a0       ??_E?$ENameMapFor@VXMLEBCDICTranscoder@xercesc_3_1@@@xercesc_3_1@@UAEPAXI@Z 1200c6a0 f i TransService.obj
 0001:0000b6a0       ??_G?$ENameMapFor@VXMLEBCDICTranscoder@xercesc_3_1@@@xercesc_3_1@@UAEPAXI@Z 1200c6a0 f i TransService.obj
 0001:0000b710       ??_E?$ENameMapFor@VXMLIBM1047Transcoder@xercesc_3_1@@@xercesc_3_1@@UAEPAXI@Z 1200c710 f i TransService.obj
 0001:0000b710       ??_G?$ENameMapFor@VXMLIBM1047Transcoder@xercesc_3_1@@@xercesc_3_1@@UAEPAXI@Z 1200c710 f i TransService.obj
 0001:0000b780       ??_G?$ENameMapFor@VXMLIBM1140Transcoder@xercesc_3_1@@@xercesc_3_1@@UAEPAXI@Z 1200c780 f i TransService.obj
 0001:0000b780       ??_E?$ENameMapFor@VXMLIBM1140Transcoder@xercesc_3_1@@@xercesc_3_1@@UAEPAXI@Z 1200c780 f i TransService.obj
 0001:0000b7f0       ??_G?$ENameMapFor@VXMLUTF8Transcoder@xercesc_3_1@@@xercesc_3_1@@UAEPAXI@Z 1200c7f0 f i TransService.obj
 0001:0000b7f0       ??_E?$ENameMapFor@VXMLUTF8Transcoder@xercesc_3_1@@@xercesc_3_1@@UAEPAXI@Z 1200c7f0 f i TransService.obj
 0001:0000b860       ??_E?$ENameMapFor@VXMLWin1252Transcoder@xercesc_3_1@@@xercesc_3_1@@UAEPAXI@Z 1200c860 f i TransService.obj
 0001:0000b860       ??_G?$ENameMapFor@VXMLWin1252Transcoder@xercesc_3_1@@@xercesc_3_1@@UAEPAXI@Z 1200c860 f i TransService.obj
 0001:0000b8d0       ??_G?$RefVectorOf@VENameMap@xercesc_3_1@@@xercesc_3_1@@UAEPAXI@Z 1200c8d0 f i TransService.obj
 0001:0000b8d0       ??_E?$RefVectorOf@VENameMap@xercesc_3_1@@@xercesc_3_1@@UAEPAXI@Z 1200c8d0 f i TransService.obj
 0001:0000b900       ??_EENameMap@xercesc_3_1@@UAEPAXI@Z 1200c900 f i TransService.obj
 0001:0000b900       ??_GENameMap@xercesc_3_1@@UAEPAXI@Z 1200c900 f i TransService.obj
 0001:0000b930       ?addEncoding@XMLTransService@xercesc_3_1@@SAXQBGQAVENameMap@2@@Z 1200c930 f   TransService.obj
 0001:0000b950       ?checkTrailingBytes@XMLUTF8Transcoder@xercesc_3_1@@ABEXEII@Z 1200c950 f i TransService.obj
 0001:0000ba00       ?initTransService@XMLTransService@xercesc_3_1@@MAEXXZ 1200ca00 f   TransService.obj
 0001:0000d9b0       ?initializeTransService@XMLInitializer@xercesc_3_1@@KAXXZ 1200e9b0 f   TransService.obj
 0001:0000db40       ?isStrictIANAEncoding@XMLTransService@xercesc_3_1@@AAE_NXZ 1200eb40 f   TransService.obj
 0001:0000db50       ?makeNew@?$EEndianNameMapFor@VXMLUCS4Transcoder@xercesc_3_1@@@xercesc_3_1@@UBEPAVXMLTranscoder@2@KQAVMemoryManager@2@@Z 1200eb50 f i TransService.obj
 0001:0000dbe0       ?makeNew@?$EEndianNameMapFor@VXMLUTF16Transcoder@xercesc_3_1@@@xercesc_3_1@@UBEPAVXMLTranscoder@2@KQAVMemoryManager@2@@Z 1200ebe0 f i TransService.obj
 0001:0000dc70       ?makeNew@?$ENameMapFor@VXML88591Transcoder@xercesc_3_1@@@xercesc_3_1@@UBEPAVXMLTranscoder@2@KQAVMemoryManager@2@@Z 1200ec70 f i TransService.obj
 0001:0000dd00       ?makeNew@?$ENameMapFor@VXMLASCIITranscoder@xercesc_3_1@@@xercesc_3_1@@UBEPAVXMLTranscoder@2@KQAVMemoryManager@2@@Z 1200ed00 f i TransService.obj
 0001:0000dd90       ?makeNew@?$ENameMapFor@VXMLChTranscoder@xercesc_3_1@@@xercesc_3_1@@UBEPAVXMLTranscoder@2@KQAVMemoryManager@2@@Z 1200ed90 f i TransService.obj
 0001:0000de20       ?makeNew@?$ENameMapFor@VXMLEBCDICTranscoder@xercesc_3_1@@@xercesc_3_1@@UBEPAVXMLTranscoder@2@KQAVMemoryManager@2@@Z 1200ee20 f i TransService.obj
 0001:0000deb0       ?makeNew@?$ENameMapFor@VXMLIBM1047Transcoder@xercesc_3_1@@@xercesc_3_1@@UBEPAVXMLTranscoder@2@KQAVMemoryManager@2@@Z 1200eeb0 f i TransService.obj
 0001:0000df40       ?makeNew@?$ENameMapFor@VXMLIBM1140Transcoder@xercesc_3_1@@@xercesc_3_1@@UBEPAVXMLTranscoder@2@KQAVMemoryManager@2@@Z 1200ef40 f i TransService.obj
 0001:0000dfd0       ?makeNew@?$ENameMapFor@VXMLUTF8Transcoder@xercesc_3_1@@@xercesc_3_1@@UBEPAVXMLTranscoder@2@KQAVMemoryManager@2@@Z 1200efd0 f i TransService.obj
 0001:0000e060       ?makeNew@?$ENameMapFor@VXMLWin1252Transcoder@xercesc_3_1@@@xercesc_3_1@@UBEPAVXMLTranscoder@2@KQAVMemoryManager@2@@Z 1200f060 f i TransService.obj
 0001:0000e0f0       ?makeNewTranscoderFor@XMLTransService@xercesc_3_1@@QAEPAVXMLTranscoder@2@QBDAAW4Codes@12@KQAVMemoryManager@2@@Z 1200f0f0 f   TransService.obj
 0001:0000e190       ?makeNewTranscoderFor@XMLTransService@xercesc_3_1@@QAEPAVXMLTranscoder@2@QBGAAW4Codes@12@KQAVMemoryManager@2@@Z 1200f190 f   TransService.obj
 0001:0000e2d0       ?makeNewTranscoderFor@XMLTransService@xercesc_3_1@@QAEPAVXMLTranscoder@2@W4Encodings@XMLRecognizer@2@AAW4Codes@12@KQAVMemoryManager@2@@Z 1200f2d0 f   TransService.obj
 0001:0000e360       ?strictIANAEncoding@XMLTransService@xercesc_3_1@@AAEX_N@Z 1200f360 f   TransService.obj
 0001:0000e370       ?terminateTransService@XMLInitializer@xercesc_3_1@@KAXXZ 1200f370 f   TransService.obj
 0001:0000e3d0       ?transcode@TranscodeFromStr@xercesc_3_1@@AAEXPBEKPAVXMLTranscoder@2@@Z 1200f3d0 f   TransService.obj
 0001:0000e640       ?transcode@TranscodeToStr@xercesc_3_1@@AAEXPBGKPAVXMLTranscoder@2@@Z 1200f640 f   TransService.obj
 0001:0000e7e0       ??2XMemory@xercesc_3_1@@SAPAXIPBDH@Z 1200f7e0 f   XMemory.obj
 0001:0000e7e0       ??2XMemory@xercesc_3_1@@SAPAXI@Z 1200f7e0 f   XMemory.obj
 0001:0000e810       ??2XMemory@xercesc_3_1@@SAPAXIPAVMemoryManager@1@@Z 1200f810 f   XMemory.obj
 0001:0000e830       ??2XMemory@xercesc_3_1@@SAPAXIPAX@Z 1200f830 f   XMemory.obj
 0001:0000e840       ??3XMemory@xercesc_3_1@@SAXPAXPBDH@Z 1200f840 f   XMemory.obj
 0001:0000e840       ??3XMemory@xercesc_3_1@@SAXPAXPAVMemoryManager@1@@Z 1200f840 f   XMemory.obj
 0001:0000e840       ??3XMemory@xercesc_3_1@@SAXPAX@Z 1200f840 f   XMemory.obj
 0001:0000e860       ??0XML256TableTranscoder@xercesc_3_1@@IAE@QBGK0QBUTransRec@XMLTransService@1@KQAVMemoryManager@1@@Z 1200f860 f   XML256TableTranscoder.obj
 0001:0000e8e0       ??1XML256TableTranscoder@xercesc_3_1@@UAE@XZ 1200f8e0 f   XML256TableTranscoder.obj
 0001:0000e930       ??_EXML256TableTranscoder@xercesc_3_1@@UAEPAXI@Z 1200f930 f i XML256TableTranscoder.obj
 0001:0000e9e0       ?canTranscodeTo@XML256TableTranscoder@xercesc_3_1@@UAE_NI@Z 1200f9e0 f   XML256TableTranscoder.obj
 0001:0000ea00       ?transcodeFrom@XML256TableTranscoder@xercesc_3_1@@UAEKQBEKQAGKAAKQAE@Z 1200fa00 f   XML256TableTranscoder.obj
 0001:0000ea70       ?transcodeTo@XML256TableTranscoder@xercesc_3_1@@UAEKQBGKQAEKAAKW4UnRepOpts@XMLTranscoder@2@@Z 1200fa70 f   XML256TableTranscoder.obj
 0001:0000ebd0       ?xlatOneTo@XML256TableTranscoder@xercesc_3_1@@IBEEG@Z 1200fbd0 f   XML256TableTranscoder.obj
 0001:0000ec30       ??0XML88591Transcoder@xercesc_3_1@@QAE@QBGKQAVMemoryManager@1@@Z 1200fc30 f   XML88591Transcoder.obj
 0001:0000ec90       ??1XML88591Transcoder@xercesc_3_1@@UAE@XZ 1200fc90 f   XML88591Transcoder.obj
 0001:0000ece0       ??_EXML88591Transcoder@xercesc_3_1@@UAEPAXI@Z 1200fce0 f i XML88591Transcoder.obj
 0001:0000ed90       ?canTranscodeTo@XML88591Transcoder@xercesc_3_1@@UAE_NI@Z 1200fd90 f   XML88591Transcoder.obj
 0001:0000edb0       ?transcodeFrom@XML88591Transcoder@xercesc_3_1@@UAEKQBEKQAGKAAKQAE@Z 1200fdb0 f   XML88591Transcoder.obj
 0001:0000ee10       ?transcodeTo@XML88591Transcoder@xercesc_3_1@@UAEKQBGKQAEKAAKW4UnRepOpts@XMLTranscoder@2@@Z 1200fe10 f   XML88591Transcoder.obj
 0001:0000ef10       ??0NumberFormatException@xercesc_3_1@@QAE@ABV01@@Z 1200ff10 f i XMLAbstractDoubleFloat.obj
 0001:0000ef70       ??0NumberFormatException@xercesc_3_1@@QAE@QBD_KW4Codes@XMLExcepts@1@0000PAVMemoryManager@1@@Z 1200ff70 f i XMLAbstractDoubleFloat.obj
 0001:0000eff0       ??0NumberFormatException@xercesc_3_1@@QAE@QBD_KW4Codes@XMLExcepts@1@PAVMemoryManager@1@@Z 1200fff0 f i XMLAbstractDoubleFloat.obj
 0001:0000f060       ??0NumberFormatException@xercesc_3_1@@QAE@QBD_KW4Codes@XMLExcepts@1@QBG333PAVMemoryManager@1@@Z 12010060 f i XMLAbstractDoubleFloat.obj
 0001:0000f0e0       ??0XMLAbstractDoubleFloat@xercesc_3_1@@IAE@QAVMemoryManager@1@@Z 120100e0 f   XMLAbstractDoubleFloat.obj
 0001:0000f170       ??1NumberFormatException@xercesc_3_1@@UAE@XZ 12010170 f i XMLAbstractDoubleFloat.obj
 0001:0000f1c0       ??1XMLAbstractDoubleFloat@xercesc_3_1@@UAE@XZ 120101c0 f   XMLAbstractDoubleFloat.obj
 0001:0000f230       ??_ENumberFormatException@xercesc_3_1@@UAEPAXI@Z 12010230 f i XMLAbstractDoubleFloat.obj
 0001:0000f2e0       ??_EXMLAbstractDoubleFloat@xercesc_3_1@@UAEPAXI@Z 120102e0 f i XMLAbstractDoubleFloat.obj
 0001:0000f3a0       ??_FXMLAbstractDoubleFloat@xercesc_3_1@@QAEXXZ 120103a0 f i XMLAbstractDoubleFloat.obj
 0001:0000f430       ??_FXMLBigDecimal@xercesc_3_1@@QAEXXZ 12010430 f i XMLAbstractDoubleFloat.obj
 0001:0000f440       ?compareSpecial@XMLAbstractDoubleFloat@xercesc_3_1@@CAHQBV12@QAVMemoryManager@2@@Z 12010440 f   XMLAbstractDoubleFloat.obj
 0001:0000f530       ?compareValues@XMLAbstractDoubleFloat@xercesc_3_1@@KAHQBV12@0QAVMemoryManager@2@@Z 12010530 f   XMLAbstractDoubleFloat.obj
 0001:0000f5e0       ?convert@XMLAbstractDoubleFloat@xercesc_3_1@@IAEXQAD@Z 120105e0 f   XMLAbstractDoubleFloat.obj
 0001:0000f720       ?duplicate@NumberFormatException@xercesc_3_1@@UBEPAVXMLException@2@XZ 12010720 f i XMLAbstractDoubleFloat.obj
 0001:0000f7c0       ?formatString@XMLAbstractDoubleFloat@xercesc_3_1@@AAEXXZ 120107c0 f   XMLAbstractDoubleFloat.obj
 0001:0000f8a0       ?getCanonicalRepresentation@XMLAbstractDoubleFloat@xercesc_3_1@@SAPAGQBGQAVMemoryManager@2@@Z 120108a0 f   XMLAbstractDoubleFloat.obj
 0001:0000fbe0       ?getFormattedString@XMLAbstractDoubleFloat@xercesc_3_1@@UBEPBGXZ 12010be0 f   XMLAbstractDoubleFloat.obj
 0001:0000fc00       ?getProtoType@XMLAbstractDoubleFloat@xercesc_3_1@@UBEPAVXProtoType@2@XZ 12010c00 f   XMLAbstractDoubleFloat.obj
 0001:0000fc10       ?getType@NumberFormatException@xercesc_3_1@@UBEPBGXZ 12010c10 f i XMLAbstractDoubleFloat.obj
 0001:0000fc20       ?getValue@XMLAbstractDoubleFloat@xercesc_3_1@@QBENXZ 12010c20 f i XMLAbstractDoubleFloat.obj
 0001:0000fc30       ?init@XMLAbstractDoubleFloat@xercesc_3_1@@IAEXQBG@Z 12010c30 f   XMLAbstractDoubleFloat.obj
 0001:0000fed0       ?getIssueFatalErrorIfNotFound@InputSource@xercesc_3_1@@UBE_NXZ 12010ed0 f i LocalFileInputSource.obj
 0001:0000fed0       ?isDataConverted@XMLAbstractDoubleFloat@xercesc_3_1@@QBE_NXZ 12010ed0 f i XMLAbstractDoubleFloat.obj
 0001:0000fed0       ?isExternal@XMLElementDecl@xercesc_3_1@@QBE_NXZ 12010ed0 f i XMLDTDDescription.obj
 0001:0000fed0       ?getRequired@XSAttributeUse@xercesc_3_1@@QBE_NXZ 12010ed0 f i XSAttributeGroupDefinition.obj
 0001:0000fed0       ?getExpandEntityReferences@DOMNodeIteratorImpl@xercesc_3_1@@UAE_NXZ 12010ed0 f i DOMNodeIteratorImpl.obj
 0001:0000fed0       ?getExpandEntityReferences@DOMTreeWalkerImpl@xercesc_3_1@@UAE_NXZ 12010ed0 f i DOMTreeWalkerImpl.obj
 0001:0000fed0       ?getCreateEntityReferenceNodes@AbstractDOMParser@xercesc_3_1@@QBE_NXZ 12010ed0 f i XSAnnotation.obj
 0001:0000fee0       ?isValidatorFromUser@XMLScanner@xercesc_3_1@@QAE_NXZ 12010ee0 f i XMLValidator.obj
 0001:0000fee0       ?getIncludeIgnorableWhitespace@AbstractDOMParser@xercesc_3_1@@QBE_NXZ 12010ee0 f i XSAnnotation.obj
 0001:0000fee0       ?isDataOverflowed@XMLAbstractDoubleFloat@xercesc_3_1@@QBE_NXZ 12010ee0 f i XMLAbstractDoubleFloat.obj
 0001:0000fef0       ?isSpecialValue@XMLAbstractDoubleFloat@xercesc_3_1@@ABE_NXZ 12010ef0 f i XMLAbstractDoubleFloat.obj
 0001:0000ff00       ?normalizeDecimalPoint@XMLAbstractDoubleFloat@xercesc_3_1@@SAXQAD@Z 12010f00 f   XMLAbstractDoubleFloat.obj
 0001:0000ff30       ?normalizeZero@XMLAbstractDoubleFloat@xercesc_3_1@@AAEXQAG@Z 12010f30 f   XMLAbstractDoubleFloat.obj
 0001:000100a0       ?serialize@XMLAbstractDoubleFloat@xercesc_3_1@@UAEXAAVXSerializeEngine@2@@Z 120110a0 f   XMLAbstractDoubleFloat.obj
 0001:00010180       ??0XMLASCIITranscoder@xercesc_3_1@@QAE@QBGKQAVMemoryManager@1@@Z 12011180 f   XMLASCIITranscoder.obj
 0001:000101e0       ??1XMLASCIITranscoder@xercesc_3_1@@UAE@XZ 120111e0 f   XMLASCIITranscoder.obj
 0001:00010230       ??_EXMLASCIITranscoder@xercesc_3_1@@UAEPAXI@Z 12011230 f i XMLASCIITranscoder.obj
 0001:000102e0       ?canTranscodeTo@XMLASCIITranscoder@xercesc_3_1@@UAE_NI@Z 120112e0 f   XMLASCIITranscoder.obj
 0001:00010300       ?transcodeFrom@XMLASCIITranscoder@xercesc_3_1@@UAEKQBEKQAGKAAKQAE@Z 12011300 f   XMLASCIITranscoder.obj
 0001:00010410       ?transcodeTo@XMLASCIITranscoder@xercesc_3_1@@UAEKQBGKQAEKAAKW4UnRepOpts@XMLTranscoder@2@@Z 12011410 f   XMLASCIITranscoder.obj
 0001:00010520       ?createObject@XMLBigDecimal@xercesc_3_1@@SAPAVXSerializable@2@PAVMemoryManager@2@@Z 12011520 f   XMLBigDecimal.obj
 0001:000105e0       ??0XMLBigDecimal@xercesc_3_1@@QAE@QAVMemoryManager@1@@Z 120115e0 f   XMLBigDecimal.obj
 0001:00010670       ??0XMLBigDecimal@xercesc_3_1@@QAE@QBGQAVMemoryManager@1@@Z 12011670 f   XMLBigDecimal.obj
 0001:00010800       ??1XMLBigDecimal@xercesc_3_1@@UAE@XZ 12011800 f   XMLBigDecimal.obj
 0001:00010870       ??8XMLBigInteger@xercesc_3_1@@QBE_NABV01@@Z 12011870 f i XMLBigDecimal.obj
 0001:00010890       ??_EXMLBigDecimal@xercesc_3_1@@UAEPAXI@Z 12011890 f i XMLBigDecimal.obj
 0001:00010950       ?cleanUp@XMLBigDecimal@xercesc_3_1@@AAEXXZ 12011950 f   XMLBigDecimal.obj
 0001:00010970       ?compareValues@XMLBigDecimal@xercesc_3_1@@SAHQBV12@0QAVMemoryManager@2@@Z 12011970 f   XMLBigDecimal.obj
 0001:00010a00       ?getCanonicalRepresentation@XMLBigDecimal@xercesc_3_1@@SAPAGQBGQAVMemoryManager@2@@Z 12011a00 f   XMLBigDecimal.obj
 0001:00010be0       ?getProtoType@XMLBigDecimal@xercesc_3_1@@UBEPAVXProtoType@2@XZ 12011be0 f   XMLBigDecimal.obj
 0001:00010bf0       ?getTotalDigit@XMLBigInteger@xercesc_3_1@@QBEIXZ 12011bf0 f i XMLBigDecimal.obj
 0001:00010c20       ?parseDecimal@XMLBigDecimal@xercesc_3_1@@SAXQBGQAGAAH22QAVMemoryManager@2@@Z 12011c20 f   XMLBigDecimal.obj
 0001:00010f10       ?parseDecimal@XMLBigDecimal@xercesc_3_1@@SAXQBGQAVMemoryManager@2@@Z 12011f10 f   XMLBigDecimal.obj
 0001:00011160       ?serialize@XMLBigDecimal@xercesc_3_1@@UAEXAAVXSerializeEngine@2@@Z 12012160 f   XMLBigDecimal.obj
 0001:00011390       ?setDecimalValue@XMLBigDecimal@xercesc_3_1@@QAEXQBG@Z 12012390 f   XMLBigDecimal.obj
 0001:00011430       ?toCompare@XMLBigDecimal@xercesc_3_1@@QBEHABV12@@Z 12012430 f   XMLBigDecimal.obj
 0001:000114b0       ??0XMLBigInteger@xercesc_3_1@@QAE@ABV01@@Z 120124b0 f   XMLBigInteger.obj
 0001:00011580       ??0XMLBigInteger@xercesc_3_1@@QAE@QBGQAVMemoryManager@1@@Z 12012580 f   XMLBigInteger.obj
 0001:000116c0       ??1XMLBigInteger@xercesc_3_1@@QAE@XZ 120126c0 f   XMLBigInteger.obj
 0001:000116e0       ?compareValues@XMLBigInteger@xercesc_3_1@@SAHQBGABH01QAVMemoryManager@2@@Z 120126e0 f   XMLBigInteger.obj
 0001:00011800       ?compareValues@XMLBigInteger@xercesc_3_1@@SAHQBV12@0QAVMemoryManager@2@@Z 12012800 f   XMLBigInteger.obj
 0001:00011910       ?divide@XMLBigInteger@xercesc_3_1@@QAEXI@Z 12012910 f   XMLBigInteger.obj
 0001:00011980       ?getCanonicalRepresentation@XMLBigInteger@xercesc_3_1@@SAPAGQBGQAVMemoryManager@2@_N@Z 12012980 f   XMLBigInteger.obj
 0001:00011ac0       ?intValue@XMLBigInteger@xercesc_3_1@@QBEHXZ 12012ac0 f   XMLBigInteger.obj
 0001:00011af0       ?multiply@XMLBigInteger@xercesc_3_1@@QAEXI@Z 12012af0 f   XMLBigInteger.obj
 0001:00011b90       ?parseBigInteger@XMLBigInteger@xercesc_3_1@@SAXQBGQAGAAHQAVMemoryManager@2@@Z 12012b90 f   XMLBigInteger.obj
 0001:00011d90       ?containsWhiteSpace@XMLChar1_0@xercesc_3_1@@SA_NQBGK@Z 12012d90 f   XMLChar.obj
 0001:00011dd0       ?containsWhiteSpace@XMLChar1_1@xercesc_3_1@@SA_NQBGK@Z 12012dd0 f   XMLChar.obj
 0001:00011e10       ?enableNELWS@XMLChar1_0@xercesc_3_1@@SAXXZ 12012e10 f   XMLChar.obj
 0001:00011e30       ?isAllSpaces@XMLChar1_0@xercesc_3_1@@SA_NQBGK@Z 12012e30 f   XMLChar.obj
 0001:00011e70       ?isAllSpaces@XMLChar1_1@xercesc_3_1@@SA_NQBGK@Z 12012e70 f   XMLChar.obj
 0001:00011eb0       ?isPublicIdChar@XMLChar1_1@xercesc_3_1@@SA_NGG@Z 12012eb0 f   XMLChar.obj
 0001:00011eb0       ?isPublicIdChar@XMLChar1_0@xercesc_3_1@@SA_NGG@Z 12012eb0 f   XMLChar.obj
 0001:00011f20       ?isValidNCName@XMLChar1_0@xercesc_3_1@@SA_NQBGK@Z 12012f20 f   XMLChar.obj
 0001:00011f70       ?isValidNCName@XMLChar1_1@xercesc_3_1@@SA_NQBGK@Z 12012f70 f   XMLChar.obj
 0001:00012040       ?isValidName@XMLChar1_0@xercesc_3_1@@SA_NQBG@Z 12013040 f   XMLChar.obj
 0001:00012080       ?isValidName@XMLChar1_0@xercesc_3_1@@SA_NQBGK@Z 12013080 f   XMLChar.obj
 0001:000120d0       ?isValidName@XMLChar1_1@xercesc_3_1@@SA_NQBG@Z 120130d0 f   XMLChar.obj
 0001:00012190       ?isValidName@XMLChar1_1@xercesc_3_1@@SA_NQBGK@Z 12013190 f   XMLChar.obj
 0001:00012250       ?isValidNmtoken@XMLChar1_0@xercesc_3_1@@SA_NQBGK@Z 12013250 f   XMLChar.obj
 0001:00012290       ?isValidNmtoken@XMLChar1_1@xercesc_3_1@@SA_NQBGK@Z 12013290 f   XMLChar.obj
 0001:00012310       ?isValidQName@XMLChar1_0@xercesc_3_1@@SA_NQBGK@Z 12013310 f   XMLChar.obj
 0001:000123a0       ?isValidQName@XMLChar1_1@xercesc_3_1@@SA_NQBGK@Z 120133a0 f   XMLChar.obj
 0001:00012400       ??0XMLChTranscoder@xercesc_3_1@@QAE@QBGKQAVMemoryManager@1@@Z 12013400 f   XMLChTranscoder.obj
 0001:00012460       ??1XMLChTranscoder@xercesc_3_1@@UAE@XZ 12013460 f   XMLChTranscoder.obj
 0001:000124b0       ??_EXMLChTranscoder@xercesc_3_1@@UAEPAXI@Z 120134b0 f i XMLChTranscoder.obj
 0001:00012560       ?transcodeFrom@XMLChTranscoder@xercesc_3_1@@UAEKQBEKQAGKAAKQAE@Z 12013560 f   XMLChTranscoder.obj
 0001:000125a0       ?transcodeTo@XMLChTranscoder@xercesc_3_1@@UAEKQBGKQAEKAAKW4UnRepOpts@XMLTranscoder@2@@Z 120135a0 f   XMLChTranscoder.obj
 0001:000125e0       ?createObject@XMLDateTime@xercesc_3_1@@SAPAVXSerializable@2@PAVMemoryManager@2@@Z 120135e0 f   XMLDateTime.obj
 0001:000126a0       ??0SchemaDateTimeException@xercesc_3_1@@QAE@ABV01@@Z 120136a0 f i XMLDateTime.obj
 0001:00012700       ??0SchemaDateTimeException@xercesc_3_1@@QAE@QBD_KW4Codes@XMLExcepts@1@0000PAVMemoryManager@1@@Z 12013700 f i XMLDateTime.obj
 0001:00012780       ??0SchemaDateTimeException@xercesc_3_1@@QAE@QBD_KW4Codes@XMLExcepts@1@PAVMemoryManager@1@@Z 12013780 f i XMLDateTime.obj
 0001:000127f0       ??0SchemaDateTimeException@xercesc_3_1@@QAE@QBD_KW4Codes@XMLExcepts@1@QBG333PAVMemoryManager@1@@Z 120137f0 f i XMLDateTime.obj
 0001:00012870       ??0XMLDateTime@xercesc_3_1@@QAE@ABV01@@Z 12013870 f   XMLDateTime.obj
 0001:000128f0       ??0XMLDateTime@xercesc_3_1@@QAE@QAVMemoryManager@1@@Z 120138f0 f   XMLDateTime.obj
 0001:00012980       ??0XMLDateTime@xercesc_3_1@@QAE@QBGQAVMemoryManager@1@@Z 12013980 f   XMLDateTime.obj
 0001:00012a10       ??1SchemaDateTimeException@xercesc_3_1@@UAE@XZ 12013a10 f i XMLDateTime.obj
 0001:00012a60       ??1XMLDateTime@xercesc_3_1@@UAE@XZ 12013a60 f   XMLDateTime.obj
 0001:00012ad0       ??4XMLDateTime@xercesc_3_1@@QAEAAV01@ABV01@@Z 12013ad0 f   XMLDateTime.obj
 0001:00012af0       ??_ESchemaDateTimeException@xercesc_3_1@@UAEPAXI@Z 12013af0 f i XMLDateTime.obj
 0001:00012ba0       ??_EXMLDateTime@xercesc_3_1@@UAEPAXI@Z 12013ba0 f i XMLDateTime.obj
 0001:00012c60       ??_FXMLDateTime@xercesc_3_1@@QAEXXZ 12013c60 f i XMLDateTime.obj
 0001:00012cf0       ?addDuration@XMLDateTime@xercesc_3_1@@CAXPAV12@QBV12@H@Z 12013cf0 f   XMLDateTime.obj
 0001:00012f30       ?compare@XMLDateTime@xercesc_3_1@@SAHQBV12@0@Z 12013f30 f   XMLDateTime.obj
 0001:00012fc0       ?compare@XMLDateTime@xercesc_3_1@@SAHQBV12@0_N@Z 12013fc0 f   XMLDateTime.obj
 0001:00013270       ?compareOrder@XMLDateTime@xercesc_3_1@@SAHQBV12@0@Z 12014270 f   XMLDateTime.obj
 0001:00013400       ?compareResult@XMLDateTime@xercesc_3_1@@CAHHH_N@Z 12014400 f   XMLDateTime.obj
 0001:00013440       ?compareResult@XMLDateTime@xercesc_3_1@@CAHQBV12@0_NH@Z 12014440 f   XMLDateTime.obj
 0001:00013540       ?copy@XMLDateTime@xercesc_3_1@@AAEXABV12@@Z 12014540 f i XMLDateTime.obj
 0001:000135f0       ?duplicate@SchemaDateTimeException@xercesc_3_1@@UBEPAVXMLException@2@XZ 120145f0 f i XMLDateTime.obj
 0001:00013690       ?fillString@XMLDateTime@xercesc_3_1@@ABEXAAPAGHK@Z 12014690 f   XMLDateTime.obj
 0001:00013720       ?fillYearString@XMLDateTime@xercesc_3_1@@ABEHAAPAGH@Z 12014720 f   XMLDateTime.obj
 0001:000137f0       ?findUTCSign@XMLDateTime@xercesc_3_1@@AAEHK@Z 120147f0 f   XMLDateTime.obj
 0001:00013840       ?getDate@XMLDateTime@xercesc_3_1@@AAEXXZ 12014840 f   XMLDateTime.obj
 0001:00013960       ?getDateCanonicalRepresentation@XMLDateTime@xercesc_3_1@@QBEPAGQAVMemoryManager@2@@Z 12014960 f   XMLDateTime.obj
 0001:00013cc0       ?getDateTimeCanonicalRepresentation@XMLDateTime@xercesc_3_1@@QBEPAGQAVMemoryManager@2@@Z 12014cc0 f   XMLDateTime.obj
 0001:00013e70       ?getFormattedString@XMLDateTime@xercesc_3_1@@UBEPBGXZ 12014e70 f   XMLDateTime.obj
 0001:00013e80       ?getProtoType@XMLDateTime@xercesc_3_1@@UBEPAVXProtoType@2@XZ 12014e80 f   XMLDateTime.obj
 0001:00013e90       ?getRetVal@XMLDateTime@xercesc_3_1@@CAHHH@Z 12014e90 f i XMLDateTime.obj
 0001:00013ec0       ?getTime@XMLDateTime@xercesc_3_1@@AAEXXZ 12014ec0 f   XMLDateTime.obj
 0001:000140c0       ?getTimeCanonicalRepresentation@XMLDateTime@xercesc_3_1@@QBEPAGQAVMemoryManager@2@@Z 120150c0 f   XMLDateTime.obj
 0001:000141b0       ?getTimeZone@XMLDateTime@xercesc_3_1@@AAEXK@Z 120151b0 f   XMLDateTime.obj
 0001:000142e0       ?getType@SchemaDateTimeException@xercesc_3_1@@UBEPBGXZ 120152e0 f i XMLDateTime.obj
 0001:000142f0       ?getYearMonth@XMLDateTime@xercesc_3_1@@AAEXXZ 120152f0 f   XMLDateTime.obj
 0001:00014480       ?indexOf@XMLDateTime@xercesc_3_1@@ABEHKKG@Z 12015480 f   XMLDateTime.obj
 0001:000144b0       ?initParser@XMLDateTime@xercesc_3_1@@AAE_NXZ 120154b0 f i XMLDateTime.obj
 0001:00014530       ?isNormalized@XMLDateTime@xercesc_3_1@@ABE_NXZ 12015530 f i XMLDateTime.obj
 0001:00014590       ?normalize@XMLDateTime@xercesc_3_1@@AAEXXZ 12015590 f   XMLDateTime.obj
 0001:00014770       ?parseDate@XMLDateTime@xercesc_3_1@@QAEXXZ 12015770 f   XMLDateTime.obj
 0001:00014840       ?parseDateTime@XMLDateTime@xercesc_3_1@@QAEXXZ 12015840 f   XMLDateTime.obj
 0001:00014970       ?parseDay@XMLDateTime@xercesc_3_1@@QAEXXZ 12015970 f   XMLDateTime.obj
 0001:00014b20       ?parseDuration@XMLDateTime@xercesc_3_1@@QAEXXZ 12015b20 f   XMLDateTime.obj
 0001:00014fc0       ?parseInt@XMLDateTime@xercesc_3_1@@ABEHKK@Z 12015fc0 f   XMLDateTime.obj
 0001:00015080       ?parseIntYear@XMLDateTime@xercesc_3_1@@ABEHK@Z 12016080 f   XMLDateTime.obj
 0001:000151a0       ?parseMiliSecond@XMLDateTime@xercesc_3_1@@ABENKK@Z 120161a0 f   XMLDateTime.obj
 0001:00015290       ?parseMonth@XMLDateTime@xercesc_3_1@@QAEXXZ 12016290 f   XMLDateTime.obj
 0001:00015460       ?parseMonthDay@XMLDateTime@xercesc_3_1@@QAEXXZ 12016460 f   XMLDateTime.obj
 0001:00015610       ?parseTime@XMLDateTime@xercesc_3_1@@QAEXXZ 12016610 f   XMLDateTime.obj
 0001:000156f0       ?parseTimeZone@XMLDateTime@xercesc_3_1@@AAEXXZ 120166f0 f   XMLDateTime.obj
 0001:000157b0       ?parseYear@XMLDateTime@xercesc_3_1@@QAEXXZ 120167b0 f   XMLDateTime.obj
 0001:000158b0       ?parseYearMonth@XMLDateTime@xercesc_3_1@@QAEXXZ 120168b0 f   XMLDateTime.obj
 0001:00015980       ?reset@XMLDateTime@xercesc_3_1@@AAEXXZ 12016980 f i XMLDateTime.obj
 0001:000159f0       ?searchMiliSeconds@XMLDateTime@xercesc_3_1@@ABEXAAPAG0@Z 120169f0 f   XMLDateTime.obj
 0001:00015a70       ?serialize@XMLDateTime@xercesc_3_1@@UAEXAAVXSerializeEngine@2@@Z 12016a70 f   XMLDateTime.obj
 0001:00015b70       ?setBuffer@XMLDateTime@xercesc_3_1@@QAEXQBG@Z 12016b70 f i XMLDateTime.obj
 0001:00015c30       ?validateDateTime@XMLDateTime@xercesc_3_1@@ABEXXZ 12016c30 f   XMLDateTime.obj
 0001:00015ed0       ?createObject@XMLDouble@xercesc_3_1@@SAPAVXSerializable@2@PAVMemoryManager@2@@Z 12016ed0 f   XMLDouble.obj
 0001:00015f60       ??0XMLDouble@xercesc_3_1@@QAE@QAVMemoryManager@1@@Z 12016f60 f   XMLDouble.obj
 0001:00015fc0       ??0XMLDouble@xercesc_3_1@@QAE@QBGQAVMemoryManager@1@@Z 12016fc0 f   XMLDouble.obj
 0001:00016030       ??1XMLDouble@xercesc_3_1@@UAE@XZ 12017030 f   XMLDouble.obj
 0001:00016080       ??_EXMLDouble@xercesc_3_1@@UAEPAXI@Z 12017080 f i XMLDouble.obj
 0001:00016130       ??_FXMLDouble@xercesc_3_1@@QAEXXZ 12017130 f i XMLDouble.obj
 0001:00016190       ?checkBoundary@XMLDouble@xercesc_3_1@@MAEXQAD@Z 12017190 f   XMLDouble.obj
 0001:000161a0       ?getProtoType@XMLDouble@xercesc_3_1@@UBEPAVXProtoType@2@XZ 120171a0 f   XMLDouble.obj
 0001:000161b0       ??0XMLEBCDICTranscoder@xercesc_3_1@@QAE@QBGKQAVMemoryManager@1@@Z 120171b0 f   XMLEBCDICTranscoder.obj
 0001:00016220       ??1XMLEBCDICTranscoder@xercesc_3_1@@UAE@XZ 12017220 f   XMLEBCDICTranscoder.obj
 0001:00016270       ??_EXMLEBCDICTranscoder@xercesc_3_1@@UAEPAXI@Z 12017270 f i XMLEBCDICTranscoder.obj
 0001:00016320       ?xlatThisOne@XMLEBCDICTranscoder@xercesc_3_1@@SAGE@Z 12017320 f   XMLEBCDICTranscoder.obj
 0001:00016340       ??0XMLException@xercesc_3_1@@QAE@ABV01@@Z 12017340 f   XMLException.obj
 0001:000163e0       ??0XMLException@xercesc_3_1@@QAE@QBD_KQAVMemoryManager@1@@Z 120173e0 f   XMLException.obj
 0001:00016440       ??0XMLException@xercesc_3_1@@QAE@XZ 12017440 f   XMLException.obj
 0001:00016480       ??1XMLException@xercesc_3_1@@UAE@XZ 12017480 f   XMLException.obj
 0001:000164b0       ??4XMLException@xercesc_3_1@@QAEAAV01@ABV01@@Z 120174b0 f   XMLException.obj
 0001:00016530       ??_EXMLException@xercesc_3_1@@UAEPAXI@Z 12017530 f i XMLException.obj
 0001:000165a0       ?initializeXMLException@XMLInitializer@xercesc_3_1@@CAXXZ 120175a0 f   XMLException.obj
 0001:000165c0       ?loadExceptText@XMLException@xercesc_3_1@@IAEXW4Codes@XMLExcepts@2@@Z 120175c0 f   XMLException.obj
 0001:00016690       ?loadExceptText@XMLException@xercesc_3_1@@IAEXW4Codes@XMLExcepts@2@QBD111@Z 12017690 f   XMLException.obj
 0001:00016790       ?loadExceptText@XMLException@xercesc_3_1@@IAEXW4Codes@XMLExcepts@2@QBG111@Z 12017790 f   XMLException.obj
 0001:00016890       ?setPosition@XMLException@xercesc_3_1@@QAEXQBD_K@Z 12017890 f   XMLException.obj
 0001:000168d0       ?terminateXMLException@XMLInitializer@xercesc_3_1@@CAXXZ 120178d0 f   XMLException.obj
 0001:000168f0       ?createObject@XMLFloat@xercesc_3_1@@SAPAVXSerializable@2@PAVMemoryManager@2@@Z 120178f0 f   XMLFloat.obj
 0001:00016980       ??0XMLFloat@xercesc_3_1@@QAE@QAVMemoryManager@1@@Z 12017980 f   XMLFloat.obj
 0001:000169e0       ??0XMLFloat@xercesc_3_1@@QAE@QBGQAVMemoryManager@1@@Z 120179e0 f   XMLFloat.obj
 0001:00016a50       ??1XMLFloat@xercesc_3_1@@UAE@XZ 12017a50 f   XMLFloat.obj
 0001:00016aa0       ??_EXMLFloat@xercesc_3_1@@UAEPAXI@Z 12017aa0 f i XMLFloat.obj
 0001:00016b50       ??_FXMLFloat@xercesc_3_1@@QAEXXZ 12017b50 f i XMLFloat.obj
 0001:00016bb0       ?checkBoundary@XMLFloat@xercesc_3_1@@MAEXQAD@Z 12017bb0 f   XMLFloat.obj
 0001:00016d70       ?compareValues@XMLDouble@xercesc_3_1@@SAHQBV12@0@Z 12017d70 f i XMLDouble.obj
 0001:00016d70       ?compareValues@XMLFloat@xercesc_3_1@@SAHQBV12@0@Z 12017d70 f i XMLFloat.obj
 0001:00016d90       ?getProtoType@XMLFloat@xercesc_3_1@@UBEPAVXProtoType@2@XZ 12017d90 f   XMLFloat.obj
 0001:00016da0       ?serialize@XMLDouble@xercesc_3_1@@UAEXAAVXSerializeEngine@2@@Z 12017da0 f   XMLDouble.obj
 0001:00016da0       ?serialize@XMLFloat@xercesc_3_1@@UAEXAAVXSerializeEngine@2@@Z 12017da0 f   XMLFloat.obj
 0001:00016db0       ??0XMLIBM1047Transcoder@xercesc_3_1@@QAE@QBGKQAVMemoryManager@1@@Z 12017db0 f   XMLIBM1047Transcoder.obj
 0001:00016e20       ??1XMLIBM1047Transcoder@xercesc_3_1@@UAE@XZ 12017e20 f   XMLIBM1047Transcoder.obj
 0001:00016e70       ??_EXMLIBM1047Transcoder@xercesc_3_1@@UAEPAXI@Z 12017e70 f i XMLIBM1047Transcoder.obj
 0001:00016f20       ?xlatThisOne@XMLIBM1047Transcoder@xercesc_3_1@@SAGE@Z 12017f20 f   XMLIBM1047Transcoder.obj
 0001:00016f40       ??0XMLIBM1140Transcoder@xercesc_3_1@@QAE@QBGKQAVMemoryManager@1@@Z 12017f40 f   XMLIBM1140Transcoder.obj
 0001:00016fb0       ??1XMLIBM1140Transcoder@xercesc_3_1@@UAE@XZ 12017fb0 f   XMLIBM1140Transcoder.obj
 0001:00017000       ??_EXMLIBM1140Transcoder@xercesc_3_1@@UAEPAXI@Z 12018000 f i XMLIBM1140Transcoder.obj
 0001:000170b0       ?xlatThisOne@XMLIBM1140Transcoder@xercesc_3_1@@SAGE@Z 120180b0 f   XMLIBM1140Transcoder.obj
 0001:000170d0       ?initializeStaticData@XMLInitializer@xercesc_3_1@@KAXXZ 120180d0 f   XMLInitializer.obj
 0001:00017190       ?terminateStaticData@XMLInitializer@xercesc_3_1@@KAXXZ 12018190 f   XMLInitializer.obj
 0001:000171f0       ?getLocale@XMLMsgLoader@xercesc_3_1@@SAPBDXZ 120181f0 f   XMLMsgLoader.obj
 0001:00017200       ?getNLSHome@XMLMsgLoader@xercesc_3_1@@SAPBDXZ 12018200 f   XMLMsgLoader.obj
 0001:00017210       ?setLocale@XMLMsgLoader@xercesc_3_1@@SAXQBD@Z 12018210 f   XMLMsgLoader.obj
 0001:00017280       ?setNLSHome@XMLMsgLoader@xercesc_3_1@@SAXQBD@Z 12018280 f   XMLMsgLoader.obj
 0001:000172c0       ?createObject@IdentityConstraint@xercesc_3_1@@SAPAVXSerializable@2@PAVMemoryManager@2@@Z 120182c0 f   IdentityConstraint.obj
 0001:000172c0       ?getNamespace@XSObject@xercesc_3_1@@UAEPBGXZ 120182c0 f   XSObject.obj
 0001:000172c0       ?getGrammarType@XMLDTDDescription@xercesc_3_1@@UBE?AW4GrammarType@Grammar@2@XZ 120182c0 f   XMLDTDDescription.obj
 0001:000172c0       ?getEnumString@BooleanDatatypeValidator@xercesc_3_1@@UBEPBV?$RefArrayVectorOf@G@2@XZ 120182c0 f   BooleanDatatypeValidator.obj
 0001:000172c0       ?getNodeValue@DOMNodeImpl@xercesc_3_1@@QBEPBGXZ 120182c0 f   DOMNodeImpl.obj
 0001:000172c0       ?getNamespaceURI@DOMNodeImpl@xercesc_3_1@@QBEPBGXZ 120182c0 f   DOMNodeImpl.obj
 0001:000172c0       ?getLexicalHandler@SAX2XMLFilterImpl@xercesc_3_1@@UBEPAVLexicalHandler@2@XZ 120182c0 f   SAX2XMLFilterImpl.obj
 0001:000172c0       ?createObject@Grammar@xercesc_3_1@@SAPAVXSerializable@2@PAVMemoryManager@2@@Z 120182c0 f   Grammar.obj
 0001:000172c0       ?getOwnerDocument@DOMDocumentImpl@xercesc_3_1@@UBEPAVDOMDocument@2@XZ 120182c0 f   DOMDocumentImpl.obj
 0001:000172c0       ?getParentNode@DOMNodeImpl@xercesc_3_1@@QBEPAVDOMNode@2@XZ 120182c0 f   DOMNodeImpl.obj
 0001:000172c0       ?createObject@AbstractNumericFacetValidator@xercesc_3_1@@SAPAVXSerializable@2@PAVMemoryManager@2@@Z 120182c0 f   AbstractNumericFacetValidator.obj
 0001:000172c0       ?createObject@XMLAttDef@xercesc_3_1@@SAPAVXSerializable@2@PAVMemoryManager@2@@Z 120182c0 f   XMLAttDef.obj
 0001:000172c0       ?getNextSibling@DOMNodeImpl@xercesc_3_1@@QBEPAVDOMNode@2@XZ 120182c0 f   DOMNodeImpl.obj
 0001:000172c0       ?createObject@XMLElementDecl@xercesc_3_1@@SAPAVXSerializable@2@PAVMemoryManager@2@@Z 120182c0 f   XMLElementDecl.obj
 0001:000172c0       ?getBaseURI@Wrapper4InputSource@xercesc_3_1@@UBEPBGXZ 120182c0 f   Wrapper4InputSource.obj
 0001:000172c0       ?createObject@DatatypeValidator@xercesc_3_1@@SAPAVXSerializable@2@PAVMemoryManager@2@@Z 120182c0 f   DatatypeValidator.obj
 0001:000172c0       ?createObject@XMLAttDefList@xercesc_3_1@@SAPAVXSerializable@2@PAVMemoryManager@2@@Z 120182c0 f   XMLAttDefList.obj
 0001:000172c0       ?getType@IC_Unique@xercesc_3_1@@UBEFXZ 120182c0 f   TraverseSchema.obj
 0001:000172c0       ?getContentLeafNameTypeVector@AllContentModel@xercesc_3_1@@UBEPAVContentLeafNameTypeVector@2@XZ 120182c0 f   AllContentModel.obj
 0001:000172c0       ?createObject@AbstractNumericValidator@xercesc_3_1@@SAPAVXSerializable@2@PAVMemoryManager@2@@Z 120182c0 f   AbstractNumericValidator.obj
 0001:000172c0       ?getSign@XMLDateTime@xercesc_3_1@@UBEHXZ 120182c0 f   XMLDateTime.obj
 0001:000172c0       ?getAttributes@DOMNodeImpl@xercesc_3_1@@QBEPAVDOMNamedNodeMap@2@XZ 120182c0 f   DOMNodeImpl.obj
 0001:000172c0       ?createObject@XMLDTDDescription@xercesc_3_1@@SAPAVXSerializable@2@PAVMemoryManager@2@@Z 120182c0 f   XMLDTDDescription.obj
 0001:000172c0       ?getLastChild@DOMNodeImpl@xercesc_3_1@@QBEPAVDOMNode@2@XZ 120182c0 f   DOMNodeImpl.obj
 0001:000172c0       ?createObject@XMLGrammarDescription@xercesc_3_1@@SAPAVXSerializable@2@PAVMemoryManager@2@@Z 120182c0 f   XMLGrammarDescription.obj
 0001:000172c0       ?getPreviousSibling@DOMNodeImpl@xercesc_3_1@@QBEPAVDOMNode@2@XZ 120182c0 f   DOMNodeImpl.obj
 0001:000172c0       ?getNoParen@Token@xercesc_3_1@@UBEHXZ 120182c0 f   ASCIIRangeFactory.obj
 0001:000172c0       ?getLocalName@DOMNodeImpl@xercesc_3_1@@QBEPBGXZ 120182c0 f   DOMNodeImpl.obj
 0001:000172c0       ?getGrammarType@DTDGrammar@xercesc_3_1@@UBE?AW4GrammarType@Grammar@2@XZ 120182c0 f   XMLGrammarPoolImpl.obj
 0001:000172c0       ?getString@Token@xercesc_3_1@@UBEPBGXZ 120182c0 f   ASCIIRangeFactory.obj
 0001:000172c0       ?getEntityDeclPool@WFXMLScanner@xercesc_3_1@@UBEPBV?$NameIdPool@VDTDEntityDecl@xercesc_3_1@@@2@XZ 120182c0 f   WFXMLScanner.obj
 0001:000172c0       ?getDeclarationHandler@SAX2XMLFilterImpl@xercesc_3_1@@UBEPAVDeclHandler@2@XZ 120182c0 f   SAX2XMLFilterImpl.obj
 0001:000172c0       ?getReferenceNo@Token@xercesc_3_1@@UBEHXZ 120182c0 f   ASCIIRangeFactory.obj
 0001:000172c0       ?createObject@DateTimeValidator@xercesc_3_1@@SAPAVXSerializable@2@PAVMemoryManager@2@@Z 120182c0 f   DateTimeValidator.obj
 0001:000172c0       ?getPrefix@DOMNodeImpl@xercesc_3_1@@QBEPBGXZ 120182c0 f   DOMNodeImpl.obj
 0001:000172c0       ?getContentLeafNameTypeVector@MixedContentModel@xercesc_3_1@@UBEPAVContentLeafNameTypeVector@2@XZ 120182c0 f   MixedContentModel.obj
 0001:000172c0       ?getEnumString@AnySimpleTypeDatatypeValidator@xercesc_3_1@@UBEPBV?$RefArrayVectorOf@G@2@XZ 120182c0 f   AnySimpleTypeDatatypeValidator.obj
 0001:000172c0       ?createObject@AbstractStringValidator@xercesc_3_1@@SAPAVXSerializable@2@PAVMemoryManager@2@@Z 120182c0 f   AbstractStringValidator.obj
 0001:000172c0       ?getFirstChild@DOMNodeImpl@xercesc_3_1@@QBEPAVDOMNode@2@XZ 120182c0 f   DOMNodeImpl.obj
 0001:000172c0       ?createObject@XMLAbstractDoubleFloat@xercesc_3_1@@SAPAVXSerializable@2@PAVMemoryManager@2@@Z 120182c0 f   XMLAbstractDoubleFloat.obj
 0001:000172c0       ?createObject@XMLNumber@xercesc_3_1@@SAPAVXSerializable@2@PAVMemoryManager@2@@Z 120182c0 f   XMLNumber.obj
 0001:000172c0       ?getEntityDeclPool@SGXMLScanner@xercesc_3_1@@UAEPAV?$NameIdPool@VDTDEntityDecl@xercesc_3_1@@@2@XZ 120182c0 f   SGXMLScanner.obj
 0001:000172c0       ?getEntityDeclPool@WFXMLScanner@xercesc_3_1@@UAEPAV?$NameIdPool@VDTDEntityDecl@xercesc_3_1@@@2@XZ 120182c0 f   WFXMLScanner.obj
 0001:000172c0       ?getStringData@Wrapper4InputSource@xercesc_3_1@@UBEPBGXZ 120182c0 f   Wrapper4InputSource.obj
 0001:000172c0       ?getNamespaceItem@XSObject@xercesc_3_1@@UAEPAVXSNamespaceItem@2@XZ 120182c0 f   XSObject.obj
 0001:000172c0       ?getCurrentGrammarType@DGXMLScanner@xercesc_3_1@@UBE?AW4GrammarType@Grammar@2@XZ 120182c0 f   DGXMLScanner.obj
 0001:000172c0       ?getSystemId@XMLDTDDescription@xercesc_3_1@@UBEPBGXZ 120182c0 f   XMLDTDDescription.obj
 0001:000172c0       ?getContentLeafNameTypeVector@SimpleContentModel@xercesc_3_1@@UBEPAVContentLeafNameTypeVector@2@XZ 120182c0 f   SimpleContentModel.obj
 0001:000172c0       ?getContentType@BinMemInputStream@xercesc_3_1@@UBEPBGXZ 120182c0 f   BinMemInputStream.obj
 0001:000172c0       ?getName@XSObject@xercesc_3_1@@UBEPBGXZ 120182c0 f   XSObject.obj
 0001:000172c0       ?size@Token@xercesc_3_1@@UBEKXZ 120182c0 f   ASCIIRangeFactory.obj
 0001:000172c0       ?getRelatedException@DOMErrorImpl@xercesc_3_1@@UBEPAXXZ 120182c0 f   DOMLSParserImpl.obj
 0001:000172c0       ?createObject@XMLEntityDecl@xercesc_3_1@@SAPAVXSerializable@2@PAVMemoryManager@2@@Z 120182c0 f   XMLEntityDecl.obj
 0001:000172c0       ?getContentType@BinFileInputStream@xercesc_3_1@@UBEPBGXZ 120182c0 f   BinFileInputStream.obj
 0001:000172c0       ?getEntityDeclPool@SGXMLScanner@xercesc_3_1@@UBEPBV?$NameIdPool@VDTDEntityDecl@xercesc_3_1@@@2@XZ 120182c0 f   SGXMLScanner.obj
 0001:000172c0       ?getObjectType@SchemaElementDecl@xercesc_3_1@@UBE?AW4objectType@XMLElementDecl@2@XZ 120182c0 f   SchemaElementDecl.obj
 0001:000172c0       ?createObject@XMLSchemaDescription@xercesc_3_1@@SAPAVXSerializable@2@PAVMemoryManager@2@@Z 120182c0 f   XMLSchemaDescription.obj
 0001:000172d0       ??0XMLNumber@xercesc_3_1@@IAE@ABV01@@Z 120182d0 f   XMLNumber.obj
 0001:00017330       ??0XMLNumber@xercesc_3_1@@IAE@XZ 12018330 f   XMLNumber.obj
 0001:00017390       ??1XMLNumber@xercesc_3_1@@UAE@XZ 12018390 f   XMLNumber.obj
 0001:000173e0       ??_EXMLNumber@xercesc_3_1@@UAEPAXI@Z 120183e0 f i XMLNumber.obj
 0001:00017490       ?getProtoType@XMLNumber@xercesc_3_1@@UBEPAVXProtoType@2@XZ 12018490 f   XMLNumber.obj
 0001:000174a0       ?loadNumber@XMLNumber@xercesc_3_1@@SAPAV12@W4NumberType@12@AAVXSerializeEngine@2@@Z 120184a0 f   XMLNumber.obj
 0001:00017510       ??0?$BaseRefVectorOf@G@xercesc_3_1@@QAE@K_NQAVMemoryManager@1@@Z 12018510 f i XMLString.obj
 0001:00017570       ??0?$RefArrayVectorOf@G@xercesc_3_1@@QAE@K_NQAVMemoryManager@1@@Z 12018570 f i XMLString.obj
 0001:000175d0       ??1?$BaseRefVectorOf@G@xercesc_3_1@@UAE@XZ 120185d0 f i XMLString.obj
 0001:000175e0       ??1?$RefArrayVectorOf@G@xercesc_3_1@@UAE@XZ 120185e0 f i XMLString.obj
 0001:00017670       ??_FXMLUri@xercesc_3_1@@QAEXXZ 12018670 f i XMLString.obj
 0001:00017680       ??_G?$BaseRefVectorOf@G@xercesc_3_1@@UAEPAXI@Z 12018680 f i XMLString.obj
 0001:00017680       ??_E?$BaseRefVectorOf@G@xercesc_3_1@@UAEPAXI@Z 12018680 f i XMLString.obj
 0001:000176b0       ??_E?$RefArrayVectorOf@G@xercesc_3_1@@UAEPAXI@Z 120186b0 f i XMLString.obj
 0001:000176b0       ??_G?$RefArrayVectorOf@G@xercesc_3_1@@UAEPAXI@Z 120186b0 f i XMLString.obj
 0001:000176e0       ?addElement@?$BaseRefVectorOf@VXSObject@xercesc_3_1@@@xercesc_3_1@@QAEXQAVXSObject@2@@Z 120186e0 f i XSModel.obj
 0001:000176e0       ?addElement@?$BaseRefVectorOf@VToken@xercesc_3_1@@@xercesc_3_1@@QAEXQAVToken@2@@Z 120186e0 f i TokenFactory.obj
 0001:000176e0       ?addElement@?$BaseRefVectorOf@V?$RefHashTableOf@GUStringHasher@xercesc_3_1@@@xercesc_3_1@@@xercesc_3_1@@QAEXQAV?$RefHashTableOf@GUStringHasher@xercesc_3_1@@@2@@Z 120186e0 f i DOMLSSerializerImpl.obj
 0001:000176e0       ?addElement@?$BaseRefVectorOf@G@xercesc_3_1@@QAEXQAG@Z 120186e0 f i XMLString.obj
 0001:000176e0       ?addElement@?$BaseRefVectorOf@VXSMultiValueFacet@xercesc_3_1@@@xercesc_3_1@@QAEXQAVXSMultiValueFacet@2@@Z 120186e0 f i XSObjectFactory.obj
 0001:000176e0       ?addElement@?$BaseRefVectorOf@VXercesStep@xercesc_3_1@@@xercesc_3_1@@QAEXQAVXercesStep@2@@Z 120186e0 f i XMLGrammarPoolImpl.obj
 0001:000176e0       ?addElement@?$BaseRefVectorOf@VXSParticle@xercesc_3_1@@@xercesc_3_1@@QAEXQAVXSParticle@2@@Z 120186e0 f i XSObjectFactory.obj
 0001:00017710       ?binToText@XMLString@xercesc_3_1@@SAXJQADKIQAVMemoryManager@2@@Z 12018710 f   XMLString.obj
 0001:00017710       ?binToText@XMLString@xercesc_3_1@@SAXHQADKIQAVMemoryManager@2@@Z 12018710 f   XMLString.obj
 0001:00017740       ?binToText@XMLString@xercesc_3_1@@SAXIQADKIQAVMemoryManager@2@@Z 12018740 f   XMLString.obj
 0001:00017750       ?binToText@XMLString@xercesc_3_1@@SAXIQAGKIQAVMemoryManager@2@@Z 12018750 f   XMLString.obj
 0001:00017760       ?binToText@XMLString@xercesc_3_1@@SAXHQAGKIQAVMemoryManager@2@@Z 12018760 f   XMLString.obj
 0001:00017760       ?binToText@XMLString@xercesc_3_1@@SAXJQAGKIQAVMemoryManager@2@@Z 12018760 f   XMLString.obj
 0001:00017790       ?binToText@XMLString@xercesc_3_1@@SAXKQADKIQAVMemoryManager@2@@Z 12018790 f   XMLString.obj
 0001:00017960       ?binToText@XMLString@xercesc_3_1@@SAXKQAGKIQAVMemoryManager@2@@Z 12018960 f   XMLString.obj
 0001:00017b40       ?catString@XMLString@xercesc_3_1@@SAXQADQBD@Z 12018b40 f   XMLString.obj
 0001:00017b80       ?catString@XMLString@xercesc_3_1@@SAXQAGQBG@Z 12018b80 f   XMLString.obj
 0001:00017bd0       ?cleanup@?$BaseRefVectorOf@G@xercesc_3_1@@UAEXXZ 12018bd0 f i XMLString.obj
 0001:00017c10       ?cleanup@?$RefArrayVectorOf@G@xercesc_3_1@@UAEXXZ 12018c10 f i XMLString.obj
 0001:00017c50       ?collapseWS@XMLString@xercesc_3_1@@SAXPAGQAVMemoryManager@2@@Z 12018c50 f   XMLString.obj
 0001:00017d40       ?compareIString@XMLString@xercesc_3_1@@SAHQBD0@Z 12018d40 f   XMLString.obj
 0001:00017d50       ?compareIString@XMLString@xercesc_3_1@@SAHQBG0@Z 12018d50 f   XMLString.obj
 0001:00017d70       ?compareIStringASCII@XMLString@xercesc_3_1@@SAHQBG0@Z 12018d70 f   XMLString.obj
 0001:00017e20       ?compareNIString@XMLString@xercesc_3_1@@SAHQBD0K@Z 12018e20 f   XMLString.obj
 0001:00017e40       ?compareNIString@XMLString@xercesc_3_1@@SAHQBG0K@Z 12018e40 f   XMLString.obj
 0001:00017e60       ?compareNString@XMLString@xercesc_3_1@@SAHQBD0K@Z 12018e60 f   XMLString.obj
 0001:00017e80       ?compareNString@XMLString@xercesc_3_1@@SAHQBG0K@Z 12018e80 f   XMLString.obj
 0001:00017ec0       ?compareString@XMLString@xercesc_3_1@@SAHQBD0@Z 12018ec0 f   XMLString.obj
 0001:00017f00       ?compareString@XMLString@xercesc_3_1@@SAHQBG0@Z 12018f00 f   XMLString.obj
 0001:00017f80       ?copyNString@XMLString@xercesc_3_1@@SA_NQAGQBGK@Z 12018f80 f   XMLString.obj
 0001:00017ff0       ?copyString@XMLString@xercesc_3_1@@SAXQADQBD@Z 12018ff0 f   XMLString.obj
 0001:00018010       ?copyString@XMLString@xercesc_3_1@@SAXQAGQBG@Z 12019010 f   XMLString.obj
 0001:00018050       ?cut@XMLString@xercesc_3_1@@SAXQAGK@Z 12019050 f   XMLString.obj
 0001:00018090       ?findAny@XMLString@xercesc_3_1@@SAPAGQAGQBG@Z 12019090 f   XMLString.obj
 0001:00018090       ?findAny@XMLString@xercesc_3_1@@SAPBGQBG0@Z 12019090 f   XMLString.obj
 0001:000180f0       ?fixURI@XMLString@xercesc_3_1@@SAXQBGQAG@Z 120190f0 f   XMLString.obj
 0001:00018220       ?getUriText@XMLUri@xercesc_3_1@@QBEPBGXZ 12019220 f i XMLString.obj
 0001:00018240       ?hash@XMLString@xercesc_3_1@@SAKQBDK@Z 12019240 f   XMLString.obj
 0001:00018280       ?indexOf@XMLString@xercesc_3_1@@SAHQBDD@Z 12019280 f   XMLString.obj
 0001:000182c0       ?indexOf@XMLString@xercesc_3_1@@SAHQBDDKQAVMemoryManager@2@@Z 120192c0 f   XMLString.obj
 0001:00018380       ?indexOf@XMLString@xercesc_3_1@@SAHQBGG@Z 12019380 f   XMLString.obj
 0001:000183c0       ?indexOf@XMLString@xercesc_3_1@@SAHQBGGKQAVMemoryManager@2@@Z 120193c0 f   XMLString.obj
 0001:000184a0       ?initString@XMLString@xercesc_3_1@@CAXQAVXMLLCPTranscoder@2@QAVMemoryManager@2@@Z 120194a0 f   XMLString.obj
 0001:000184c0       ?isAlpha@XMLString@xercesc_3_1@@SA_NG@Z 120194c0 f   XMLString.obj
 0001:000184f0       ?isAlphaNum@XMLString@xercesc_3_1@@SA_NG@Z 120194f0 f   XMLString.obj
 0001:00018520       ?isDigit@XMLString@xercesc_3_1@@SA_NG@Z 12019520 f   XMLString.obj
 0001:00018540       ?isHex@XMLString@xercesc_3_1@@SA_NG@Z 12019540 f   XMLString.obj
 0001:00018570       ?isInList@XMLString@xercesc_3_1@@SA_NQBG0@Z 12019570 f   XMLString.obj
 0001:00018620       ?isPathCharacter@XMLUri@xercesc_3_1@@CA_NG@Z 12019620 f i XMLString.obj
 0001:00018670       ?isReservedCharacter@XMLUri@xercesc_3_1@@CA_NG@Z 12019670 f i XMLString.obj
 0001:000186c0       ?isReservedOrUnreservedCharacter@XMLUri@xercesc_3_1@@CA_NG@Z 120196c0 f i XMLString.obj
 0001:00018720       ?isUnreservedCharacter@XMLUri@xercesc_3_1@@CA_NG@Z 12019720 f i XMLString.obj
 0001:00018780       ?isValidEncName@XMLString@xercesc_3_1@@SA_NQBG@Z 12019780 f   XMLString.obj
 0001:00018800       ?isValidNOTATION@XMLString@xercesc_3_1@@SA_NQBGQAVMemoryManager@2@@Z 12019800 f   XMLString.obj
 0001:00018960       ?isWSCollapsed@XMLString@xercesc_3_1@@SA_NQBG@Z 12019960 f   XMLString.obj
 0001:000189d0       ?isWSReplaced@XMLString@xercesc_3_1@@SA_NQBG@Z 120199d0 f   XMLString.obj
 0001:00018a10       ?lastIndexOf@XMLString@xercesc_3_1@@SAHGQBGK@Z 12019a10 f   XMLString.obj
 0001:00018a50       ?lastIndexOf@XMLString@xercesc_3_1@@SAHQBDD@Z 12019a50 f   XMLString.obj
 0001:00018a90       ?lastIndexOf@XMLString@xercesc_3_1@@SAHQBDDKQAVMemoryManager@2@@Z 12019a90 f   XMLString.obj
 0001:00018b50       ?lastIndexOf@XMLString@xercesc_3_1@@SAHQBGGKQAVMemoryManager@2@@Z 12019b50 f   XMLString.obj
 0001:00018c20       ?lowerCase@XMLString@xercesc_3_1@@SAXQAG@Z 12019c20 f   XMLString.obj
 0001:00018c40       ?lowerCaseASCII@XMLString@xercesc_3_1@@SAXQAG@Z 12019c40 f   XMLString.obj
 0001:00018c70       ?makeUName@XMLString@xercesc_3_1@@SAPAGQBG0@Z 12019c70 f   XMLString.obj
 0001:00018d20       ?parseInt@XMLString@xercesc_3_1@@SAHQBGQAVMemoryManager@2@@Z 12019d20 f   XMLString.obj
 0001:00018f10       ?patternMatch@XMLString@xercesc_3_1@@SAHQBG0@Z 12019f10 f   XMLString.obj
 0001:00018fa0       ?regionIMatches@XMLString@xercesc_3_1@@SA_NQBGH0HK@Z 12019fa0 f   XMLString.obj
 0001:00018ff0       ?regionMatches@XMLString@xercesc_3_1@@SA_NQBGH0HK@Z 12019ff0 f   XMLString.obj
 0001:00019070       ?release@XMLString@xercesc_3_1@@SAXPAPADQAVMemoryManager@2@@Z 1201a070 f   XMLString.obj
 0001:00019070       ?release@XMLString@xercesc_3_1@@SAXPAPAGQAVMemoryManager@2@@Z 1201a070 f   XMLString.obj
 0001:00019090       ?removeAllElements@?$BaseRefVectorOf@G@xercesc_3_1@@UAEXXZ 1201a090 f i XMLString.obj
 0001:000190e0       ?removeAllElements@?$RefArrayVectorOf@G@xercesc_3_1@@UAEXXZ 1201a0e0 f i XMLString.obj
 0001:00019130       ?removeChar@XMLString@xercesc_3_1@@SAXQBGABGAAVXMLBuffer@2@@Z 1201a130 f   XMLString.obj
 0001:00019190       ?removeElementAt@?$BaseRefVectorOf@G@xercesc_3_1@@UAEXK@Z 1201a190 f i XMLString.obj
 0001:00019270       ?removeElementAt@?$RefArrayVectorOf@G@xercesc_3_1@@UAEXK@Z 1201a270 f i XMLString.obj
 0001:00019350       ?removeLastElement@?$BaseRefVectorOf@G@xercesc_3_1@@UAEXXZ 1201a350 f i XMLString.obj
 0001:00019370       ?removeLastElement@?$RefArrayVectorOf@G@xercesc_3_1@@UAEXXZ 1201a370 f i XMLString.obj
 0001:000193a0       ?removeWS@XMLString@xercesc_3_1@@SAXPAGQAVMemoryManager@2@@Z 1201a3a0 f   XMLString.obj
 0001:000193e0       ?replaceTokens@XMLString@xercesc_3_1@@SAKQAGKQBG111QAVMemoryManager@2@@Z 1201a3e0 f   XMLString.obj
 0001:00019560       ?replaceWS@XMLString@xercesc_3_1@@SAXPAGQAVMemoryManager@2@@Z 1201a560 f   XMLString.obj
 0001:000195a0       ?replicate@XMLString@xercesc_3_1@@SAPADQBDQAVMemoryManager@2@@Z 1201a5a0 f   XMLString.obj
 0001:000195e0       ?setElementAt@?$BaseRefVectorOf@G@xercesc_3_1@@UAEXQAGK@Z 1201a5e0 f i XMLString.obj
 0001:00019690       ?setElementAt@?$RefArrayVectorOf@G@xercesc_3_1@@UAEXQAGK@Z 1201a690 f i XMLString.obj
 0001:00019740       ?sizeToText@XMLString@xercesc_3_1@@SAXKQADKIQAVMemoryManager@2@@Z 1201a740 f   XMLString.obj
 0001:00019910       ?sizeToText@XMLString@xercesc_3_1@@SAXKQAGKIQAVMemoryManager@2@@Z 1201a910 f   XMLString.obj
 0001:00019af0       ?startsWith@XMLString@xercesc_3_1@@SA_NQBD0@Z 1201aaf0 f   XMLString.obj
 0001:00019b20       ?startsWithI@XMLString@xercesc_3_1@@SA_NQBD0@Z 1201ab20 f   XMLString.obj
 0001:00019b50       ?stringLen@XMLString@xercesc_3_1@@SAKQBD@Z 1201ab50 f   XMLString.obj
 0001:00019b70       ?subString@XMLString@xercesc_3_1@@SAXQADQBDKKQAVMemoryManager@2@@Z 1201ab70 f   XMLString.obj
 0001:00019c80       ?subString@XMLString@xercesc_3_1@@SAXQAGQBGKKKQAVMemoryManager@2@@Z 1201ac80 f   XMLString.obj
 0001:00019d80       ?subString@XMLString@xercesc_3_1@@SAXQAGQBGKKQAVMemoryManager@2@@Z 1201ad80 f   XMLString.obj
 0001:00019dc0       ?termString@XMLString@xercesc_3_1@@CAXXZ 1201adc0 f   XMLString.obj
 0001:00019df0       ?textToBin@XMLString@xercesc_3_1@@SA_NQBGAAIQAVMemoryManager@2@@Z 1201adf0 f   XMLString.obj
 0001:00019f50       ?tokenizeString@XMLString@xercesc_3_1@@SAPAV?$BaseRefVectorOf@G@2@QBGQAVMemoryManager@2@@Z 1201af50 f   XMLString.obj
 0001:0001a1c0       ?transcode@XMLString@xercesc_3_1@@SAPADQBGQAVMemoryManager@2@@Z 1201b1c0 f   XMLString.obj
 0001:0001a1e0       ?transcode@XMLString@xercesc_3_1@@SAPAGQBDQAVMemoryManager@2@@Z 1201b1e0 f   XMLString.obj
 0001:0001a200       ?transcode@XMLString@xercesc_3_1@@SA_NQBDQAGKQAVMemoryManager@2@@Z 1201b200 f   XMLString.obj
 0001:0001a220       ?transcode@XMLString@xercesc_3_1@@SA_NQBGQADKQAVMemoryManager@2@@Z 1201b220 f   XMLString.obj
 0001:0001a240       ?trim@XMLString@xercesc_3_1@@SAXQAD@Z 1201b240 f   XMLString.obj
 0001:0001a300       ?trim@XMLString@xercesc_3_1@@SAXQAG@Z 1201b300 f   XMLString.obj
 0001:0001a3a0       ?upperCase@XMLString@xercesc_3_1@@SAXQAG@Z 1201b3a0 f   XMLString.obj
 0001:0001a3c0       ?upperCaseASCII@XMLString@xercesc_3_1@@SAXQAG@Z 1201b3c0 f   XMLString.obj
 0001:0001a3f0       ??0XMLStringTokenizer@xercesc_3_1@@QAE@QBG0QAVMemoryManager@1@@Z 1201b3f0 f   XMLStringTokenizer.obj
 0001:0001a570       ??0XMLStringTokenizer@xercesc_3_1@@QAE@QBGQAVMemoryManager@1@@Z 1201b570 f   XMLStringTokenizer.obj
 0001:0001a6b0       ??1XMLStringTokenizer@xercesc_3_1@@QAE@XZ 1201b6b0 f   XMLStringTokenizer.obj
 0001:0001a6b0       ?cleanUp@XMLStringTokenizer@xercesc_3_1@@AAEXXZ 1201b6b0 f   XMLStringTokenizer.obj
 0001:0001a6f0       ?countTokens@XMLStringTokenizer@xercesc_3_1@@QAEIXZ 1201b6f0 f i XMLStringTokenizer.obj
 0001:0001a750       ?hasMoreTokens@XMLStringTokenizer@xercesc_3_1@@QAE_NXZ 1201b750 f   XMLStringTokenizer.obj
 0001:0001a760       ?isDelimeter@XMLStringTokenizer@xercesc_3_1@@AAE_NG@Z 1201b760 f i XMLStringTokenizer.obj
 0001:0001a780       ?nextToken@XMLStringTokenizer@xercesc_3_1@@QAEPAGXZ 1201b780 f   XMLStringTokenizer.obj
 0001:0001a830       ??0XMLUCS4Transcoder@xercesc_3_1@@QAE@QBGK_NQAVMemoryManager@1@@Z 1201b830 f   XMLUCS4Transcoder.obj
 0001:0001a8a0       ??1XMLUCS4Transcoder@xercesc_3_1@@UAE@XZ 1201b8a0 f   XMLUCS4Transcoder.obj
 0001:0001a8f0       ??_EXMLUCS4Transcoder@xercesc_3_1@@UAEPAXI@Z 1201b8f0 f i XMLUCS4Transcoder.obj
 0001:0001a9a0       ?isPrefixUnknown@ValidationContext@xercesc_3_1@@UAE_NPAG@Z 1201b9a0 f   XMLAttr.obj
 0001:0001a9a0       ?canTranscodeTo@XMLChTranscoder@xercesc_3_1@@UAE_NI@Z 1201b9a0 f   XMLChTranscoder.obj
 0001:0001a9a0       ?isSubstitutableBy@AnySimpleTypeDatatypeValidator@xercesc_3_1@@UAE_NQBVDatatypeValidator@2@@Z 1201b9a0 f   AnySimpleTypeDatatypeValidator.obj
 0001:0001a9a0       ?canTranscodeTo@XMLUTF16Transcoder@xercesc_3_1@@UAE_NI@Z 1201b9a0 f   XMLUTF16Transcoder.obj
 0001:0001a9a0       ?canTranscodeTo@XMLUCS4Transcoder@xercesc_3_1@@UAE_NI@Z 1201b9a0 f   XMLUCS4Transcoder.obj
 0001:0001a9b0       ?transcodeFrom@XMLUCS4Transcoder@xercesc_3_1@@UAEKQBEKQAGKAAKQAE@Z 1201b9b0 f   XMLUCS4Transcoder.obj
 0001:0001aab0       ?transcodeTo@XMLUCS4Transcoder@xercesc_3_1@@UAEKQBGKQAEKAAKW4UnRepOpts@XMLTranscoder@2@@Z 1201bab0 f   XMLUCS4Transcoder.obj
 0001:0001ac10       ?createObject@XMLUri@xercesc_3_1@@SAPAVXSerializable@2@PAVMemoryManager@2@@Z 1201bc10 f   XMLUri.obj
 0001:0001ac90       ??0XMLUri@xercesc_3_1@@QAE@ABV01@@Z 1201bc90 f   XMLUri.obj
 0001:0001ad90       ??0XMLUri@xercesc_3_1@@QAE@QAVMemoryManager@1@@Z 1201bd90 f   XMLUri.obj
 0001:0001ae30       ??0XMLUri@xercesc_3_1@@QAE@QBGQAVMemoryManager@1@@Z 1201be30 f   XMLUri.obj
 0001:0001af30       ??0XMLUri@xercesc_3_1@@QAE@QBV01@QBGQAVMemoryManager@1@@Z 1201bf30 f   XMLUri.obj
 0001:0001b030       ??1XMLUri@xercesc_3_1@@UAE@XZ 1201c030 f   XMLUri.obj
 0001:0001b090       ??4XMLUri@xercesc_3_1@@QAEAAV01@ABV01@@Z 1201c090 f   XMLUri.obj
 0001:0001b130       ??_EXMLUri@xercesc_3_1@@UAEPAXI@Z 1201c130 f i XMLUri.obj
 0001:0001b1e0       ?buildFullText@XMLUri@xercesc_3_1@@AAEXXZ 1201c1e0 f   XMLUri.obj
 0001:0001b530       ?cleanUp@XMLUri@xercesc_3_1@@AAEXXZ 1201c530 f   XMLUri.obj
 0001:0001b5e0       ?getProtoType@XMLUri@xercesc_3_1@@UBEPAVXProtoType@2@XZ 1201c5e0 f   XMLUri.obj
 0001:0001b5f0       ?initialize@XMLUri@xercesc_3_1@@AAEXABV12@@Z 1201c5f0 f   XMLUri.obj
 0001:0001b810       ?initialize@XMLUri@xercesc_3_1@@AAEXQBV12@QBG@Z 1201c810 f   XMLUri.obj
 0001:0001bfd0       ?initializeAuthority@XMLUri@xercesc_3_1@@AAEXQBG@Z 1201cfd0 f   XMLUri.obj
 0001:0001c2e0       ?initializePath@XMLUri@xercesc_3_1@@AAEXQBG@Z 1201d2e0 f   XMLUri.obj
 0001:0001ca60       ?initializeScheme@XMLUri@xercesc_3_1@@AAEXQBG@Z 1201da60 f   XMLUri.obj
 0001:0001cb90       ?isConformantSchemeName@XMLUri@xercesc_3_1@@CA_NQBG@Z 1201db90 f   XMLUri.obj
 0001:0001cc00       ?isConformantSchemeName@XMLUri@xercesc_3_1@@CA_NQBGK@Z 1201dc00 f   XMLUri.obj
 0001:0001cc70       ?isConformantUserInfo@XMLUri@xercesc_3_1@@CAXQBGQAVMemoryManager@2@@Z 1201dc70 f   XMLUri.obj
 0001:0001ce40       ?isGenericURI@XMLUri@xercesc_3_1@@AAE_NXZ 1201de40 f   XMLUri.obj
 0001:0001ce50       ?isURIString@XMLUri@xercesc_3_1@@SA_NQBG@Z 1201de50 f   XMLUri.obj
 0001:0001ced0       ?isValidRegistryBasedAuthority@XMLUri@xercesc_3_1@@CA_NQBG@Z 1201ded0 f   XMLUri.obj
 0001:0001cf70       ?isValidRegistryBasedAuthority@XMLUri@xercesc_3_1@@CA_NQBGK@Z 1201df70 f   XMLUri.obj
 0001:0001d020       ?isValidServerBasedAuthority@XMLUri@xercesc_3_1@@CA_NQBGH0QAVMemoryManager@2@@Z 1201e020 f   XMLUri.obj
 0001:0001d0e0       ?isValidServerBasedAuthority@XMLUri@xercesc_3_1@@CA_NQBGKH0K@Z 1201e0e0 f   XMLUri.obj
 0001:0001d1b0       ?isValidURI@XMLUri@xercesc_3_1@@SA_NQBV12@QBG_N@Z 1201e1b0 f   XMLUri.obj
 0001:0001d360       ?isValidURI@XMLUri@xercesc_3_1@@SA_N_NQBG0@Z 1201e360 f   XMLUri.obj
 0001:0001d510       ?isWellFormedAddress@XMLUri@xercesc_3_1@@CA_NQBGK@Z 1201e510 f   XMLUri.obj
 0001:0001d640       ?isWellFormedAddress@XMLUri@xercesc_3_1@@CA_NQBGQAVMemoryManager@2@@Z 1201e640 f   XMLUri.obj
 0001:0001d7d0       ?isWellFormedIPv4Address@XMLUri@xercesc_3_1@@CA_NQBGK@Z 1201e7d0 f   XMLUri.obj
 0001:0001d870       ?isWellFormedIPv6Reference@XMLUri@xercesc_3_1@@CA_NQBGK@Z 1201e870 f   XMLUri.obj
 0001:0001d950       ?normalizeURI@XMLUri@xercesc_3_1@@SAXQBGAAVXMLBuffer@2@@Z 1201e950 f   XMLUri.obj
 0001:0001d9e0       ?processAuthority@XMLUri@xercesc_3_1@@CA_NQBGK@Z 1201e9e0 f   XMLUri.obj
 0001:0001db40       ?processPath@XMLUri@xercesc_3_1@@CA_NQBGK_N1@Z 1201eb40 f   XMLUri.obj
 0001:0001dcf0       ?processScheme@XMLUri@xercesc_3_1@@CA_NQBGAAK@Z 1201ecf0 f   XMLUri.obj
 0001:0001dd30       ?scanHexSequence@XMLUri@xercesc_3_1@@CAHQBGKKAAH@Z 1201ed30 f   XMLUri.obj
 0001:0001ddf0       ?serialize@XMLUri@xercesc_3_1@@UAEXAAVXSerializeEngine@2@@Z 1201edf0 f   XMLUri.obj
 0001:0001df40       ?setFragment@XMLUri@xercesc_3_1@@QAEXQBG@Z 1201ef40 f   XMLUri.obj
 0001:0001e0e0       ?setHost@XMLUri@xercesc_3_1@@QAEXQBG@Z 1201f0e0 f   XMLUri.obj
 0001:0001e220       ?setPath@XMLUri@xercesc_3_1@@QAEXQBG@Z 1201f220 f   XMLUri.obj
 0001:0001e290       ?setPort@XMLUri@xercesc_3_1@@QAEXH@Z 1201f290 f   XMLUri.obj
 0001:0001e3f0       ?setQueryString@XMLUri@xercesc_3_1@@QAEXQBG@Z 1201f3f0 f   XMLUri.obj
 0001:0001e590       ?setRegBasedAuthority@XMLUri@xercesc_3_1@@QAEXQBG@Z 1201f590 f   XMLUri.obj
 0001:0001e690       ?setScheme@XMLUri@xercesc_3_1@@QAEXQBG@Z 1201f690 f   XMLUri.obj
 0001:0001e7a0       ?setUserInfo@XMLUri@xercesc_3_1@@QAEXQBG@Z 1201f7a0 f   XMLUri.obj
 0001:0001e890       ??0XMLURL@xercesc_3_1@@QAE@ABV01@@Z 1201f890 f   XMLURL.obj
 0001:0001e9e0       ??0XMLURL@xercesc_3_1@@QAE@ABV01@QBD@Z 1201f9e0 f   XMLURL.obj
 0001:0001eb20       ??0XMLURL@xercesc_3_1@@QAE@ABV01@QBG@Z 1201fb20 f   XMLURL.obj
 0001:0001ec10       ??0XMLURL@xercesc_3_1@@QAE@QAVMemoryManager@1@@Z 1201fc10 f   XMLURL.obj
 0001:0001ec70       ??0XMLURL@xercesc_3_1@@QAE@QBDQAVMemoryManager@1@@Z 1201fc70 f   XMLURL.obj
 0001:0001eda0       ??0XMLURL@xercesc_3_1@@QAE@QBG0QAVMemoryManager@1@@Z 1201fda0 f   XMLURL.obj
 0001:0001ee90       ??0XMLURL@xercesc_3_1@@QAE@QBGQAVMemoryManager@1@@Z 1201fe90 f   XMLURL.obj
 0001:0001ef80       ??0XMLURL@xercesc_3_1@@QAE@QBGQBDQAVMemoryManager@1@@Z 1201ff80 f   XMLURL.obj
 0001:0001f0b0       ??1XMLURL@xercesc_3_1@@UAE@XZ 120200b0 f   XMLURL.obj
 0001:0001f0c0       ??4XMLURL@xercesc_3_1@@QAEAAV01@ABV01@@Z 120200c0 f   XMLURL.obj
 0001:0001f160       ??8XMLURL@xercesc_3_1@@QBE_NABV01@@Z 12020160 f   XMLURL.obj
 0001:0001f1a0       ??_EXMLURL@xercesc_3_1@@UAEPAXI@Z 120201a0 f i XMLURL.obj
 0001:0001f200       ?buildFullText@XMLURL@xercesc_3_1@@AAEXXZ 12020200 f   XMLURL.obj
 0001:0001f550       ?cleanUp@XMLURL@xercesc_3_1@@AAEXXZ 12020550 f   XMLURL.obj
 0001:0001f5f0       ?conglomerateWithBase@XMLURL@xercesc_3_1@@AAE_NABV12@_N@Z 120205f0 f   XMLURL.obj
 0001:0001f890       ?getPortNum@XMLURL@xercesc_3_1@@QBEIXZ 12020890 f   XMLURL.obj
 0001:0001f8b0       ?getProtocolName@XMLURL@xercesc_3_1@@QBEPBGXZ 120208b0 f   XMLURL.obj
 0001:0001f940       ?isRelative@XMLURL@xercesc_3_1@@QBE_NXZ 12020940 f   XMLURL.obj
 0001:0001f960       ?lookupByName@XMLURL@xercesc_3_1@@SA?AW4Protocols@12@QBG@Z 12020960 f   XMLURL.obj
 0001:0001f9b0       ?makeNewStream@XMLURL@xercesc_3_1@@QBEPAVBinInputStream@2@XZ 120209b0 f   XMLURL.obj
 0001:0001fce0       ?makeRelativeTo@XMLURL@xercesc_3_1@@QAEXABV12@@Z 12020ce0 f   XMLURL.obj
 0001:0001fd10       ?makeRelativeTo@XMLURL@xercesc_3_1@@QAEXQBG@Z 12020d10 f   XMLURL.obj
 0001:0001fda0       ?parse@XMLURL@xercesc_3_1@@AAEXQBG@Z 12020da0 f   XMLURL.obj
 0001:000202b0       ?parse@XMLURL@xercesc_3_1@@SA_NQBGAAV12@@Z 120212b0 f   XMLURL.obj
 0001:000206c0       ?setURL@XMLURL@xercesc_3_1@@QAEXABV12@QBG@Z 120216c0 f   XMLURL.obj
 0001:00020700       ?setURL@XMLURL@xercesc_3_1@@QAEXQBG0@Z 12021700 f   XMLURL.obj
 0001:000207f0       ?setURL@XMLURL@xercesc_3_1@@QAEXQBG@Z 120217f0 f   XMLURL.obj
 0001:00020810       ?setURL@XMLURL@xercesc_3_1@@QAE_NQBG0AAV12@@Z 12021810 f   XMLURL.obj
 0001:00020900       ??0XMLUTF16Transcoder@xercesc_3_1@@QAE@QBGK_NQAVMemoryManager@1@@Z 12021900 f   XMLUTF16Transcoder.obj
 0001:00020970       ??1XMLUTF16Transcoder@xercesc_3_1@@UAE@XZ 12021970 f   XMLUTF16Transcoder.obj
 0001:000209c0       ??_EXMLUTF16Transcoder@xercesc_3_1@@UAEPAXI@Z 120219c0 f i XMLUTF16Transcoder.obj
 0001:00020a70       ?transcodeFrom@XMLUTF16Transcoder@xercesc_3_1@@UAEKQBEKQAGKAAKQAE@Z 12021a70 f   XMLUTF16Transcoder.obj
 0001:00020ae0       ?transcodeTo@XMLUTF16Transcoder@xercesc_3_1@@UAEKQBGKQAEKAAKW4UnRepOpts@XMLTranscoder@2@@Z 12021ae0 f   XMLUTF16Transcoder.obj
 0001:00020b50       ??0XMLUTF8Transcoder@xercesc_3_1@@QAE@QBGKQAVMemoryManager@1@@Z 12021b50 f   XMLUTF8Transcoder.obj
 0001:00020bb0       ??1XMLUTF8Transcoder@xercesc_3_1@@UAE@XZ 12021bb0 f   XMLUTF8Transcoder.obj
 0001:00020c00       ??_EXMLUTF8Transcoder@xercesc_3_1@@UAEPAXI@Z 12021c00 f i XMLUTF8Transcoder.obj
 0001:00020cb0       ?canTranscodeTo@XMLUTF8Transcoder@xercesc_3_1@@UAE_NI@Z 12021cb0 f   XMLUTF8Transcoder.obj
 0001:00020cd0       ?transcodeFrom@XMLUTF8Transcoder@xercesc_3_1@@UAEKQBEKQAGKAAKQAE@Z 12021cd0 f   XMLUTF8Transcoder.obj
 0001:00021170       ?transcodeTo@XMLUTF8Transcoder@xercesc_3_1@@UAEKQBGKQAEKAAKW4UnRepOpts@XMLTranscoder@2@@Z 12022170 f   XMLUTF8Transcoder.obj
 0001:00021380       ??0XMLWin1252Transcoder@xercesc_3_1@@QAE@QBGKQAVMemoryManager@1@@Z 12022380 f   XMLWin1252Transcoder.obj
 0001:000213f0       ??1XMLWin1252Transcoder@xercesc_3_1@@UAE@XZ 120223f0 f   XMLWin1252Transcoder.obj
 0001:00021440       ??_EXMLWin1252Transcoder@xercesc_3_1@@UAEPAXI@Z 12022440 f i XMLWin1252Transcoder.obj
 0001:000214f0       ??0Win32MsgLoader@xercesc_3_1@@QAE@QBG@Z 120224f0 f   Win32MsgLoader.obj
 0001:00021640       ??1Win32MsgLoader@xercesc_3_1@@UAE@XZ 12022640 f   Win32MsgLoader.obj
 0001:000216b0       ??_EWin32MsgLoader@xercesc_3_1@@UAEPAXI@Z 120226b0 f i Win32MsgLoader.obj
 0001:00021770       ?loadMsg@Win32MsgLoader@xercesc_3_1@@UAE_NIQAGK@Z 12022770 f   Win32MsgLoader.obj
 0001:00021810       ?loadMsg@Win32MsgLoader@xercesc_3_1@@UAE_NIQAGKQBD111QAVMemoryManager@2@@Z 12022810 f   Win32MsgLoader.obj
 0001:000218e0       ?loadMsg@Win32MsgLoader@xercesc_3_1@@UAE_NIQAGKQBG111QAVMemoryManager@2@@Z 120228e0 f   Win32MsgLoader.obj
 0001:00021920       _DllMain@12                12022920 f   Win32MsgLoader.obj
 0001:00021940       ??0CPMapEntry@xercesc_3_1@@QAE@QBDIPAVMemoryManager@1@@Z 12022940 f   Win32TransService.obj
 0001:000219c0       ??0CPMapEntry@xercesc_3_1@@QAE@QBGIPAVMemoryManager@1@@Z 120229c0 f   Win32TransService.obj
 0001:00021a30       ??0Win32LCPTranscoder@xercesc_3_1@@QAE@XZ 12022a30 f   Win32TransService.obj
 0001:00021a90       ??0Win32TransService@xercesc_3_1@@QAE@PAVMemoryManager@1@@Z 12022a90 f   Win32TransService.obj
 0001:00022000       ??0Win32Transcoder@xercesc_3_1@@QAE@QBGIKQAVMemoryManager@1@@Z 12023000 f   Win32TransService.obj
 0001:000220f0       ??1Win32LCPTranscoder@xercesc_3_1@@UAE@XZ 120230f0 f   Win32TransService.obj
 0001:00022140       ??1Win32TransService@xercesc_3_1@@UAE@XZ 12023140 f   Win32TransService.obj
 0001:000221c0       ??1Win32Transcoder@xercesc_3_1@@UAE@XZ 120231c0 f   Win32TransService.obj
 0001:00022210       ??_EWin32LCPTranscoder@xercesc_3_1@@UAEPAXI@Z 12023210 f i Win32TransService.obj
 0001:000222c0       ??_EWin32TransService@xercesc_3_1@@UAEPAXI@Z 120232c0 f i Win32TransService.obj
 0001:000223a0       ??_EWin32Transcoder@xercesc_3_1@@UAEPAXI@Z 120233a0 f i Win32TransService.obj
 0001:00022450       ?calcRequiredSize@Win32LCPTranscoder@xercesc_3_1@@UAEKQBDQAVMemoryManager@2@@Z 12023450 f   Win32TransService.obj
 0001:00022480       ?calcRequiredSize@Win32LCPTranscoder@xercesc_3_1@@UAEKQBGQAVMemoryManager@2@@Z 12023480 f   Win32TransService.obj
 0001:000224b0       ?canTranscodeTo@Win32Transcoder@xercesc_3_1@@UAE_NI@Z 120234b0 f   Win32TransService.obj
 0001:00022550       ?compareIString@Win32TransService@xercesc_3_1@@UAEHQBG0@Z 12023550 f   Win32TransService.obj
 0001:00022570       ?compareNIString@Win32TransService@xercesc_3_1@@UAEHQBG0K@Z 12023570 f   Win32TransService.obj
 0001:00022590       ?getId@Win32TransService@xercesc_3_1@@UBEPBGXZ 12023590 f   Win32TransService.obj
 0001:000225a0       ?lowerCase@Win32TransService@xercesc_3_1@@UAEXQAG@Z 120235a0 f   Win32TransService.obj
 0001:000225c0       ?makeNewLCPTranscoder@Win32TransService@xercesc_3_1@@UAEPAVXMLLCPTranscoder@2@PAVMemoryManager@2@@Z 120235c0 f   Win32TransService.obj
 0001:00022650       ?makeNewXMLTranscoder@Win32TransService@xercesc_3_1@@MAEPAVXMLTranscoder@2@QBGAAW4Codes@XMLTransService@2@KQAVMemoryManager@2@@Z 12023650 f   Win32TransService.obj
 0001:00022750       ?put@?$RefHashTableOf@VCPMapEntry@xercesc_3_1@@UStringHasher@2@@xercesc_3_1@@QAEXPAXQAVCPMapEntry@2@@Z 12023750 f i Win32TransService.obj
 0001:00022840       ?removeAll@?$RefHashTableOf@VCPMapEntry@xercesc_3_1@@UStringHasher@2@@xercesc_3_1@@QAEXXZ 12023840 f i Win32TransService.obj
 0001:000228e0       ?transcode@Win32LCPTranscoder@xercesc_3_1@@UAEPADQBGQAVMemoryManager@2@@Z 120238e0 f   Win32TransService.obj
 0001:00022950       ?transcode@Win32LCPTranscoder@xercesc_3_1@@UAEPAGQBDQAVMemoryManager@2@@Z 12023950 f   Win32TransService.obj
 0001:000229e0       ?transcode@Win32LCPTranscoder@xercesc_3_1@@UAE_NQBDQAGKQAVMemoryManager@2@@Z 120239e0 f   Win32TransService.obj
 0001:00022a20       ?transcode@Win32LCPTranscoder@xercesc_3_1@@UAE_NQBGQADKQAVMemoryManager@2@@Z 12023a20 f   Win32TransService.obj
 0001:00022a80       ?transcodeFrom@Win32Transcoder@xercesc_3_1@@UAEKQBEKQAGKAAKQAE@Z 12023a80 f   Win32TransService.obj
 0001:00022c10       ?transcodeTo@Win32Transcoder@xercesc_3_1@@UAEKQBGKQAEKAAKW4UnRepOpts@XMLTranscoder@2@@Z 12023c10 f   Win32TransService.obj
 0001:00022d40       ?upperCase@Win32TransService@xercesc_3_1@@UAEXQAG@Z 12023d40 f   Win32TransService.obj
 0001:00022d60       ??0BinHTTPInputStreamCommon@xercesc_3_1@@IAE@PAVMemoryManager@1@@Z 12023d60 f   BinHTTPInputStreamCommon.obj
 0001:00022df0       ??0CharBuffer@xercesc_3_1@@QAE@KPAVMemoryManager@1@@Z 12023df0 f i BinHTTPInputStreamCommon.obj
 0001:00022e20       ??1BinHTTPInputStreamCommon@xercesc_3_1@@MAE@XZ 12023e20 f   BinHTTPInputStreamCommon.obj
 0001:00022ea0       ??1CharBuffer@xercesc_3_1@@QAE@XZ 12023ea0 f i BinHTTPInputStreamCommon.obj
 0001:00022eb0       ??_EBinHTTPInputStreamCommon@xercesc_3_1@@MAEPAXI@Z 12023eb0 f i BinHTTPInputStreamCommon.obj
 0001:00022f80       ??_FCharBuffer@xercesc_3_1@@QAEXXZ 12023f80 f i BinHTTPInputStreamCommon.obj
 0001:00022fb0       ?append@CharBuffer@xercesc_3_1@@QAEXPBD@Z 12023fb0 f i BinHTTPInputStreamCommon.obj
 0001:00023040       ?append@CharBuffer@xercesc_3_1@@QAEXPBDK@Z 12024040 f i BinHTTPInputStreamCommon.obj
 0001:00023080       ?appendDecimalNumber@CharBuffer@xercesc_3_1@@QAEXI@Z 12024080 f i BinHTTPInputStreamCommon.obj
 0001:00023110       ?createHTTPRequest@BinHTTPInputStreamCommon@xercesc_3_1@@AAEXABVXMLURL@2@PBVXMLNetHTTPInfo@2@AAVCharBuffer@2@@Z 12024110 f   BinHTTPInputStreamCommon.obj
 0001:00023510       ?curPos@BinHTTPInputStreamCommon@xercesc_3_1@@UBE_KXZ 12024510 f i BinHTTPInputStreamCommon.obj
 0001:00023520       ?ensureCapacity@CharBuffer@xercesc_3_1@@AAEXK@Z 12024520 f i BinHTTPInputStreamCommon.obj
 0001:00023570       ?findHeader@BinHTTPInputStreamCommon@xercesc_3_1@@IAEPAGPBD@Z 12024570 f   BinHTTPInputStreamCommon.obj
 0001:00023680       ?getContentType@BinHTTPInputStreamCommon@xercesc_3_1@@UBEPBGXZ 12024680 f   BinHTTPInputStreamCommon.obj
 0001:000236a0       ?getRawBuffer@CharBuffer@xercesc_3_1@@QAEPADXZ 120246a0 f i BinHTTPInputStreamCommon.obj
 0001:000236a0       ?getRawBuffer@CharBuffer@xercesc_3_1@@QBEPBDXZ 120246a0 f i BinHTTPInputStreamCommon.obj
 0001:000236b0       ?readBytes@BinHTTPInputStreamCommon@xercesc_3_1@@UAEKQAEK@Z 120246b0 f   BinHTTPInputStreamCommon.obj
 0001:00023780       ?sendRequest@BinHTTPInputStreamCommon@xercesc_3_1@@IAEHABVXMLURL@2@PBVXMLNetHTTPInfo@2@@Z 12024780 f   BinHTTPInputStreamCommon.obj
 0001:00023b40       ?set@CharBuffer@xercesc_3_1@@QAEXPBD@Z 12024b40 f i BinHTTPInputStreamCommon.obj
 0001:00023b50       ??0BinHTTPURLInputStream@xercesc_3_1@@QAE@ABVXMLURL@1@PBVXMLNetHTTPInfo@1@@Z 12024b50 f   BinHTTPURLInputStream.obj
 0001:00024060       ??1BinHTTPURLInputStream@xercesc_3_1@@UAE@XZ 12025060 f   BinHTTPURLInputStream.obj
 0001:000240d0       ??1SocketJanitor@xercesc_3_1@@QAE@XZ 120250d0 f i BinHTTPURLInputStream.obj
 0001:00024100       ??_EBinHTTPURLInputStream@xercesc_3_1@@UAEPAXI@Z 12025100 f i BinHTTPURLInputStream.obj
 0001:000241c0       ?Cleanup@BinHTTPURLInputStream@xercesc_3_1@@SAXXZ 120251c0 f   BinHTTPURLInputStream.obj
 0001:000242c0       ?Initialize@BinHTTPURLInputStream@xercesc_3_1@@CAXQAVMemoryManager@2@@Z 120252c0 f   BinHTTPURLInputStream.obj
 0001:00024520       ?receive@BinHTTPURLInputStream@xercesc_3_1@@UAEHPADK@Z 12025520 f   BinHTTPURLInputStream.obj
 0001:00024540       ?send@BinHTTPURLInputStream@xercesc_3_1@@UAE_NPBDK@Z 12025540 f   BinHTTPURLInputStream.obj
 0001:00024590       ??0WinSockNetAccessor@xercesc_3_1@@QAE@XZ 12025590 f   WinSockNetAccessor.obj
 0001:000245f0       ??1WinSockNetAccessor@xercesc_3_1@@UAE@XZ 120255f0 f   WinSockNetAccessor.obj
 0001:00024650       ??_EWinSockNetAccessor@xercesc_3_1@@UAEPAXI@Z 12025650 f i WinSockNetAccessor.obj
 0001:00024700       ?makeNew@WinSockNetAccessor@xercesc_3_1@@UAEPAVBinInputStream@2@ABVXMLURL@2@PBVXMLNetHTTPInfo@2@@Z 12025700 f   WinSockNetAccessor.obj
 0001:000247c0       ??0ASCIIRangeFactory@xercesc_3_1@@QAE@XZ 120257c0 f   ASCIIRangeFactory.obj
 0001:00024820       ??1ASCIIRangeFactory@xercesc_3_1@@UAE@XZ 12025820 f   ASCIIRangeFactory.obj
 0001:00024870       ??_EASCIIRangeFactory@xercesc_3_1@@UAEPAXI@Z 12025870 f i ASCIIRangeFactory.obj
 0001:00024920       ??_FTokenFactory@xercesc_3_1@@QAEXXZ 12025920 f i ASCIIRangeFactory.obj
 0001:00024930       ?addChild@Token@xercesc_3_1@@UAEXQAV12@QAVTokenFactory@2@@Z 12025930 f i ASCIIRangeFactory.obj
 0001:000249a0       ?addRange@Token@xercesc_3_1@@UAEXHH@Z 120259a0 f i ASCIIRangeFactory.obj
 0001:00024a10       ?buildRanges@ASCIIRangeFactory@xercesc_3_1@@MAEXPAVRangeTokenMap@2@@Z 12025a10 f   ASCIIRangeFactory.obj
 0001:00024c90       ?compactRanges@Token@xercesc_3_1@@UAEXXZ 12025c90 f i ASCIIRangeFactory.obj
 0001:00024d00       ?createMap@RangeToken@xercesc_3_1@@QAEXXZ 12025d00 f i ASCIIRangeFactory.obj
 0001:00024d10       ?empty@RangeToken@xercesc_3_1@@QBE_NXZ 12025d10 f i ASCIIRangeFactory.obj
 0001:00024d20       ?getURIForPrefix@ValidationContext@xercesc_3_1@@UAEPBGPAG@Z 12025d20 f i XMLAttr.obj
 0001:00024d20       ?getChild@Token@xercesc_3_1@@UBEPAV12@K@Z 12025d20 f i ASCIIRangeFactory.obj
 0001:00024d30       ?getMin@Token@xercesc_3_1@@UBEHXZ 12025d30 f i ASCIIRangeFactory.obj
 0001:00024d30       ?getChar@Token@xercesc_3_1@@UBEHXZ 12025d30 f i ASCIIRangeFactory.obj
 0001:00024d30       ?getMax@Token@xercesc_3_1@@UBEHXZ 12025d30 f i ASCIIRangeFactory.obj
 0001:00024d40       ?getRange@TokenFactory@xercesc_3_1@@QAEPAVRangeToken@2@QBG_N@Z 12025d40 f i ASCIIRangeFactory.obj
 0001:00024d60       ?getRangeToken@RangeTokenElemMap@xercesc_3_1@@QBEPAVRangeToken@2@_N@Z 12025d60 f i ASCIIRangeFactory.obj
 0001:00024d80       ?getCurrentNode@DOMTreeWalkerImpl@xercesc_3_1@@UAEPAVDOMNode@2@XZ 12025d80 f i DOMTreeWalkerImpl.obj
 0001:00024d80       ?getKey@KVStringPair@xercesc_3_1@@QAEPAGXZ 12025d80 f i KVStringPair.obj
 0001:00024d80       ?getElementDecl@ContentSpecNode@xercesc_3_1@@QBEPBVXMLElementDecl@2@XZ 12025d80 f i XMLGrammarPoolImpl.obj
 0001:00024d80       ?getName@XMLNotationDecl@xercesc_3_1@@QBEPBGXZ 12025d80 f i XMLDTDDescription.obj
 0001:00024d80       ?getLen@MemBufFormatTarget@xercesc_3_1@@QBEKXZ 12025d80 f i MemBufFormatTarget.obj
 0001:00024d80       ?getNameId@XercesGroupInfo@xercesc_3_1@@QBEIXZ 12025d80 f i XMLGrammarPoolImpl.obj
 0001:00024d80       ?getValue@XMLAttr@xercesc_3_1@@QBEPBGXZ 12025d80 f i XMLAttr.obj
 0001:00024d80       ?getNewLine@DOMLSSerializerImpl@xercesc_3_1@@UBEPBGXZ 12025d80 f i DOMLSSerializerImpl.obj
 0001:00024d80       ?getMessage@DOMErrorImpl@xercesc_3_1@@UBEPBGXZ 12025d80 f i DOMLSParserImpl.obj
 0001:00024d80       ?getUserInfo@XMLUri@xercesc_3_1@@QBEPBGXZ 12025d80 f i XMLString.obj
 0001:00024d80       ?getEntityDeclPool@ValidationContextImpl@xercesc_3_1@@UBEPBV?$NameIdPool@VDTDEntityDecl@xercesc_3_1@@@2@XZ 12025d80 f i ValidationContextImpl.obj
 0001:00024d80       ?getUnRepFlags@XMLFormatter@xercesc_3_1@@QBE?AW4UnRepFlags@12@XZ 12025d80 f i LocalFileFormatTarget.obj
 0001:00024d80       ?getCreateReason@XMLElementDecl@xercesc_3_1@@QBE?AW4CreateReasons@12@XZ 12025d80 f i XMLDTDDescription.obj
 0001:00024d80       ?getDocTypeHandler@DTDScanner@xercesc_3_1@@QAEPAVDocTypeHandler@2@XZ 12025d80 f i DGXMLScanner.obj
 0001:00024d80       ?getKey@KVStringPair@xercesc_3_1@@QBEPBGXZ 12025d80 f i KVStringPair.obj
 0001:00024d80       ?getOptions@RegxParser@xercesc_3_1@@QBEHXZ 12025d80 f i ParserForXMLSchema.obj
 0001:00024d80       ?getTargetNamespace@XMLSchemaDescriptionImpl@xercesc_3_1@@UBEPBGXZ 12025d80 f i XMLSchemaDescriptionImpl.obj
 0001:00024d80       ?getSchemaNormalizedValue@PSVIItem@xercesc_3_1@@QAEPBGXZ 12025d80 f i PSVIAttribute.obj
 0001:00024d80       ?getEncoding@DOMLSInputImpl@xercesc_3_1@@UBEPBGXZ 12025d80 f i DOMImplementationImpl.obj
 0001:00024d80       ?getSystemId@DOMLSOutputImpl@xercesc_3_1@@UBEPBGXZ 12025d80 f i DOMImplementationImpl.obj
 0001:00024d80       ?getSelector@IdentityConstraint@xercesc_3_1@@QBEPAVIC_Selector@2@XZ 12025d80 f i XMLElementDecl.obj
 0001:00024d80       ?getBaseURI@XMLResourceIdentifier@xercesc_3_1@@QBEPBGXZ 12025d80 f i DGXMLScanner.obj
 0001:00024d80       ?getReaderMgr@XMLValidator@xercesc_3_1@@IBEPBVReaderMgr@2@XZ 12025d80 f i XMLValidator.obj
 0001:00024d80       ?getHost@XMLURL@xercesc_3_1@@QBEPBGXZ 12025d80 f i PlatformUtils.obj
 0001:00024d80       ?getTokenFactory@RangeTokenMap@xercesc_3_1@@QBEPAVTokenFactory@2@XZ 12025d80 f i ASCIIRangeFactory.obj
 0001:00024d80       ?getMemoryManager@XMLTranscoder@xercesc_3_1@@QBEPAVMemoryManager@2@XZ 12025d80 f i PlatformUtils.obj
 0001:00024d80       ?getTargetNSURI@SchemaInfo@xercesc_3_1@@QBEHXZ 12025d80 f i IGXMLScanner.obj
 0001:00024d80       ?getWhatToShow@DOMNodeIteratorImpl@xercesc_3_1@@UAEKXZ 12025d80 f i DOMNodeIteratorImpl.obj
 0001:00024d80       ?getNoParen@ParenToken@xercesc_3_1@@UBEHXZ 12025d80 f i ParenToken.obj
 0001:00024d80       ?getMin@ClosureToken@xercesc_3_1@@UBEHXZ 12025d80 f i ClosureToken.obj
 0001:00024d80       ?getFinalSet@DatatypeValidator@xercesc_3_1@@QBEHXZ 12025d80 f i XMLAttr.obj
 0001:00024d80       ?getDerivedBy@ComplexTypeInfo@xercesc_3_1@@QBEHXZ 12025d80 f i XMLElementDecl.obj
 0001:00024d80       ?getValue@XMLEntityDecl@xercesc_3_1@@QBEPBGXZ 12025d80 f i XMLDTDDescription.obj
 0001:00024d80       ?getCreateReason@XMLAttDef@xercesc_3_1@@QBE?AW4CreateReasons@12@XZ 12025d80 f i XMLAttDef.obj
 0001:00024d80       ?getNodeName@DOMNotationImpl@xercesc_3_1@@UBEPBGXZ 12025d80 f i DOMNotationImpl.obj
 0001:00024d80       ?getLocationPaths@XercesXPath@xercesc_3_1@@QBEPAV?$RefVectorOf@VXercesLocationPath@xercesc_3_1@@@2@XZ 12025d80 f i XMLGrammarPoolImpl.obj
 0001:00024d80       ?getSchemaType@DOMConfigurationImpl@xercesc_3_1@@QBEPBGXZ 12025d80 f i DOMConfigurationImpl.obj
 0001:00024d80       ?getSize@BinMemInputStream@xercesc_3_1@@QBEKXZ 12025d80 f i BinMemInputStream.obj
 0001:00024d80       ?getKey@XMLNotationDecl@xercesc_3_1@@QBEPBGXZ 12025d80 f i XMLDTDDescription.obj
 0001:00024d80       ?getChar@CharToken@xercesc_3_1@@UBEHXZ 12025d80 f i CharToken.obj
 0001:00024d80       ?getNextOp@Op@xercesc_3_1@@QBEPBV12@XZ 12025d80 f i Op.obj
 0001:00024d80       ?getScale@XMLBigDecimal@xercesc_3_1@@QBEIXZ 12025d80 f i XMLAbstractDoubleFloat.obj
 0001:00024d80       ?getReaderMgr@XMLValidator@xercesc_3_1@@IAEPAVReaderMgr@2@XZ 12025d80 f i XMLValidator.obj
 0001:00024d80       ?getRootName@XMLDTDDescriptionImpl@xercesc_3_1@@UBEPBGXZ 12025d80 f i XMLDTDDescriptionImpl.obj
 0001:00024d80       ?getDocTypeHandler@DTDScanner@xercesc_3_1@@QBEPBVDocTypeHandler@2@XZ 12025d80 f i DGXMLScanner.obj
 0001:00024d80       ?getPublicId@InputSource@xercesc_3_1@@UBEPBGXZ 12025d80 f i LocalFileInputSource.obj
 0001:00024d80       ?getLeafCount@ContentLeafNameTypeVector@xercesc_3_1@@QBEKXZ 12025d80 f i ContentLeafNameTypeVector.obj
 0001:00024d80       ?getElementDecl@ContentSpecNode@xercesc_3_1@@QAEPAVXMLElementDecl@2@XZ 12025d80 f i XMLGrammarPoolImpl.obj
 0001:00024d80       ?getReferenceNo@StringToken@xercesc_3_1@@UBEHXZ 12025d80 f i ParserForXMLSchema.obj
 0001:00024d80       ?getNamespaceId@XercesAttGroupInfo@xercesc_3_1@@QBEIXZ 12025d80 f i XMLGrammarPoolImpl.obj
 0001:00024d90       ?initializeKeywordMap@ASCIIRangeFactory@xercesc_3_1@@UAEXPAVRangeTokenMap@2@@Z 12025d90 f   ASCIIRangeFactory.obj
 0001:00024e00       ?intersectRanges@Token@xercesc_3_1@@UAEXQAVRangeToken@2@@Z 12025e00 f i ASCIIRangeFactory.obj
 0001:00024e70       ?isSet@Token@xercesc_3_1@@AAE_NHI@Z 12025e70 f i ASCIIRangeFactory.obj
 0001:00024e90       ?mergeRanges@Token@xercesc_3_1@@UAEXQBV12@@Z 12025e90 f i ASCIIRangeFactory.obj
 0001:00024f00       ?setRangeToken@RangeTokenElemMap@xercesc_3_1@@QAEXQAVRangeToken@2@_N@Z 12025f00 f i ASCIIRangeFactory.obj
 0001:00024f20       ?setDefaultType@XMLAttDef@xercesc_3_1@@QAEXW4DefAttTypes@12@@Z 12025f20 f i XMLAttDef.obj
 0001:00024f20       ?setOwnerDocument@DOMParentNode@xercesc_3_1@@QAEXPAVDOMDocument@2@@Z 12025f20 f i DOMParentNode.obj
 0001:00024f20       ?setId@XMLEntityDecl@xercesc_3_1@@QAEXK@Z 12025f20 f i XMLDTDDescription.obj
 0001:00024f20       ?setBlockDefault@SchemaInfo@xercesc_3_1@@QAEXH@Z 12025f20 f i IGXMLScanner.obj
 0001:00024f20       ?setEntityExpansionLimit@SecurityManager@xercesc_3_1@@UAEXK@Z 12025f20 f i XMLValidator.obj
 0001:00024f20       ?setType@XMLAttr@xercesc_3_1@@QAEXW4AttTypes@XMLAttDef@2@@Z 12025f20 f i XMLAttr.obj
 0001:00024f20       ?setMatcherStack@FieldActivator@xercesc_3_1@@QAEXQAVXPathMatcherStack@2@@Z 12025f20 f i FieldActivator.obj
 0001:00024f20       ?setId@XMLNotationDecl@xercesc_3_1@@QAEXK@Z 12025f20 f i XMLDTDDescription.obj
 0001:00024f20       ?setTokenType@Token@xercesc_3_1@@QAEXW4tokType@12@@Z 12025f20 f i ASCIIRangeFactory.obj
 0001:00024f20       ?setByteStream@DOMLSOutputImpl@xercesc_3_1@@UAEXPAVXMLFormatTarget@2@@Z 12025f20 f i DOMLSOutputImpl.obj
 0001:00024f30       ?sortRanges@Token@xercesc_3_1@@UAEXXZ 12025f30 f i ASCIIRangeFactory.obj
 0001:00024fa0       ?subtractRanges@Token@xercesc_3_1@@UAEXQAVRangeToken@2@@Z 12025fa0 f i ASCIIRangeFactory.obj
 0001:00025010       ??0BlockRangeFactory@xercesc_3_1@@QAE@XZ 12026010 f   BlockRangeFactory.obj
 0001:00025070       ??1BlockRangeFactory@xercesc_3_1@@UAE@XZ 12026070 f   BlockRangeFactory.obj
 0001:000250c0       ??_EBlockRangeFactory@xercesc_3_1@@UAEPAXI@Z 120260c0 f i BlockRangeFactory.obj
 0001:00025170       ?buildRanges@BlockRangeFactory@xercesc_3_1@@MAEXPAVRangeTokenMap@2@@Z 12026170 f   BlockRangeFactory.obj
 0001:000252a0       ?initializeKeywordMap@BlockRangeFactory@xercesc_3_1@@UAEXPAVRangeTokenMap@2@@Z 120262a0 f   BlockRangeFactory.obj
 0001:000252e0       ??0BMPattern@xercesc_3_1@@QAE@QBGH_NQAVMemoryManager@1@@Z 120262e0 f   BMPattern.obj
 0001:000253b0       ??0BMPattern@xercesc_3_1@@QAE@QBG_NQAVMemoryManager@1@@Z 120263b0 f   BMPattern.obj
 0001:00025480       ?cleanUp@BMPattern@xercesc_3_1@@AAEXXZ 12026480 f   BMPattern.obj
 0001:00025480       ??1BMPattern@xercesc_3_1@@QAE@XZ 12026480 f   BMPattern.obj
 0001:000254b0       ?initialize@BMPattern@xercesc_3_1@@AAEXXZ 120264b0 f   BMPattern.obj
 0001:00025610       ?matches@BMPattern@xercesc_3_1@@QBEHQBGKK@Z 12026610 f   BMPattern.obj
 0001:00025780       ??0CharToken@xercesc_3_1@@QAE@W4tokType@Token@1@HQAVMemoryManager@1@@Z 12026780 f   CharToken.obj
 0001:000257f0       ??1CharToken@xercesc_3_1@@UAE@XZ 120267f0 f   CharToken.obj
 0001:00025840       ??_ECharToken@xercesc_3_1@@UAEPAXI@Z 12026840 f i CharToken.obj
 0001:000258f0       ?match@CharToken@xercesc_3_1@@QAE_NH@Z 120268f0 f i CharToken.obj
 0001:00025910       ??0ClosureToken@xercesc_3_1@@QAE@W4tokType@Token@1@QAV31@QAVMemoryManager@1@@Z 12026910 f   ClosureToken.obj
 0001:00025980       ??1ClosureToken@xercesc_3_1@@UAE@XZ 12026980 f   ClosureToken.obj
 0001:000259d0       ??_EClosureToken@xercesc_3_1@@UAEPAXI@Z 120269d0 f i ClosureToken.obj
 0001:00025a80       ?getChild@ClosureToken@xercesc_3_1@@UBEPAVToken@2@K@Z 12026a80 f i ClosureToken.obj
 0001:00025a90       ?setOptions@RegxParser@xercesc_3_1@@QAEXH@Z 12026a90 f i ParserForXMLSchema.obj
 0001:00025a90       ?setMessage@DOMErrorImpl@xercesc_3_1@@QAEXQBG@Z 12026a90 f i DOMLSParserImpl.obj
 0001:00025a90       ?setCreateReason@XMLAttDef@xercesc_3_1@@QAEXW4CreateReasons@12@@Z 12026a90 f i XMLAttDef.obj
 0001:00025a90       ?setDocTypeHandler@DTDScanner@xercesc_3_1@@QAEXQAVDocTypeHandler@2@@Z 12026a90 f i DGXMLScanner.obj
 0001:00025a90       ?setUnRepFlags@XMLFormatter@xercesc_3_1@@QAEXW4UnRepFlags@12@@Z 12026a90 f i LocalFileFormatTarget.obj
 0001:00025a90       ?setCreateReason@XMLElementDecl@xercesc_3_1@@QAEXW4CreateReasons@12@@Z 12026a90 f i XMLDTDDescription.obj
 0001:00025a90       ?setMin@ClosureToken@xercesc_3_1@@UAEXH@Z 12026a90 f i ClosureToken.obj
 0001:00025a90       ?setEntityHandler@ReaderMgr@xercesc_3_1@@QAEXQAVXMLEntityHandler@2@@Z 12026a90 f i XMLValidator.obj
 0001:00025a90       ?setDerivedBy@ComplexTypeInfo@xercesc_3_1@@QAEXH@Z 12026a90 f i XMLElementDecl.obj
 0001:00025a90       ?setNextOp@Op@xercesc_3_1@@QAEXQBV12@@Z 12026a90 f i Op.obj
 0001:00025a90       ?setSchemaType@DOMConfigurationImpl@xercesc_3_1@@QAEXPBG@Z 12026a90 f i DOMConfigurationImpl.obj
 0001:00025aa0       ??0ConcatToken@xercesc_3_1@@QAE@QAVToken@1@0QAVMemoryManager@1@@Z 12026aa0 f   ConcatToken.obj
 0001:00025b10       ??1ConcatToken@xercesc_3_1@@UAE@XZ 12026b10 f   ConcatToken.obj
 0001:00025b60       ??_EConcatToken@xercesc_3_1@@UAEPAXI@Z 12026b60 f i ConcatToken.obj
 0001:00025c10       ?getChild@ConcatToken@xercesc_3_1@@UBEPAVToken@2@K@Z 12026c10 f i ConcatToken.obj
 0001:00025c30       ??0Match@xercesc_3_1@@QAE@ABV01@@Z 12026c30 f   Match.obj
 0001:00025c70       ??0Match@xercesc_3_1@@QAE@QAVMemoryManager@1@@Z 12026c70 f   Match.obj
 0001:00025cb0       ??1Match@xercesc_3_1@@UAE@XZ 12026cb0 f   Match.obj
 0001:00025ce0       ??4Match@xercesc_3_1@@QAEAAV01@ABV01@@Z 12026ce0 f   Match.obj
 0001:00025d00       ??_EMatch@xercesc_3_1@@UAEPAXI@Z 12026d00 f i Match.obj
 0001:00025d80       ??_FMatch@xercesc_3_1@@QAEXXZ 12026d80 f i Match.obj
 0001:00025db0       ?cleanUp@Match@xercesc_3_1@@AAEXXZ 12026db0 f   Match.obj
 0001:00025de0       ?getEndPos@Match@xercesc_3_1@@QBEHH@Z 12026de0 f i Match.obj
 0001:00025ec0       ?getNoGroups@Match@xercesc_3_1@@QBEHXZ 12026ec0 f i Match.obj
 0001:00025f40       ?getStartPos@Match@xercesc_3_1@@QBEHH@Z 12026f40 f i Match.obj
 0001:00026020       ?initialize@Match@xercesc_3_1@@AAEXABV12@@Z 12027020 f   Match.obj
 0001:00026080       ?setEndPos@Match@xercesc_3_1@@QAEXHH@Z 12027080 f i Match.obj
 0001:00026160       ?setNoGroups@Match@xercesc_3_1@@QAEXH@Z 12027160 f   Match.obj
 0001:000261f0       ?setStartPos@Match@xercesc_3_1@@QAEXHH@Z 120271f0 f i Match.obj
 0001:000262d0       ??0CharOp@xercesc_3_1@@QAE@W4opType@Op@1@HQAVMemoryManager@1@@Z 120272d0 f   Op.obj
 0001:00026340       ??0ChildOp@xercesc_3_1@@QAE@W4opType@Op@1@QAVMemoryManager@1@@Z 12027340 f   Op.obj
 0001:000263b0       ??0ModifierOp@xercesc_3_1@@QAE@W4opType@Op@1@HHQAVMemoryManager@1@@Z 120273b0 f   Op.obj
 0001:00026440       ??0Op@xercesc_3_1@@IAE@W4opType@01@QAVMemoryManager@1@@Z 12027440 f   Op.obj
 0001:00026470       ??0RangeOp@xercesc_3_1@@QAE@W4opType@Op@1@QBVToken@1@QAVMemoryManager@1@@Z 12027470 f   Op.obj
 0001:000264e0       ??0StringOp@xercesc_3_1@@QAE@W4opType@Op@1@QBGQAVMemoryManager@1@@Z 120274e0 f   Op.obj
 0001:00026590       ??0UnionOp@xercesc_3_1@@QAE@W4opType@Op@1@KQAVMemoryManager@1@@Z 12027590 f   Op.obj
 0001:00026680       ??1?$BaseRefVectorOf@VOp@xercesc_3_1@@@xercesc_3_1@@UAE@XZ 12027680 f i Op.obj
 0001:00026690       ??1?$RefVectorOf@VOp@xercesc_3_1@@@xercesc_3_1@@UAE@XZ 12027690 f i Op.obj
 0001:00026720       ??1CharOp@xercesc_3_1@@UAE@XZ 12027720 f i Op.obj
 0001:00026770       ??1ChildOp@xercesc_3_1@@UAE@XZ 12027770 f i Op.obj
 0001:000267c0       ??1ModifierOp@xercesc_3_1@@UAE@XZ 120277c0 f i Op.obj
 0001:00026820       ??1Op@xercesc_3_1@@UAE@XZ  12027820 f i Op.obj
 0001:00026830       ??1RangeOp@xercesc_3_1@@UAE@XZ 12027830 f i Op.obj
 0001:00026880       ??1StringOp@xercesc_3_1@@UAE@XZ 12027880 f i Op.obj
 0001:000268e0       ??1UnionOp@xercesc_3_1@@UAE@XZ 120278e0 f i Op.obj
 0001:00026940       ??_ECharOp@xercesc_3_1@@UAEPAXI@Z 12027940 f i Op.obj
 0001:000269f0       ??_EChildOp@xercesc_3_1@@UAEPAXI@Z 120279f0 f i Op.obj
 0001:00026aa0       ??_EModifierOp@xercesc_3_1@@UAEPAXI@Z 12027aa0 f i Op.obj
 0001:00026b50       ??_EOp@xercesc_3_1@@UAEPAXI@Z 12027b50 f i Op.obj
 0001:00026bb0       ??_ERangeOp@xercesc_3_1@@UAEPAXI@Z 12027bb0 f i Op.obj
 0001:00026c60       ??_EStringOp@xercesc_3_1@@UAEPAXI@Z 12027c60 f i Op.obj
 0001:00026d20       ??_EUnionOp@xercesc_3_1@@UAEPAXI@Z 12027d20 f i Op.obj
 0001:00026de0       ??_E?$BaseRefVectorOf@VOp@xercesc_3_1@@@xercesc_3_1@@UAEPAXI@Z 12027de0 f i Op.obj
 0001:00026de0       ??_G?$BaseRefVectorOf@VOp@xercesc_3_1@@@xercesc_3_1@@UAEPAXI@Z 12027de0 f i Op.obj
 0001:00026e10       ??_E?$RefVectorOf@VOp@xercesc_3_1@@@xercesc_3_1@@UAEPAXI@Z 12027e10 f i Op.obj
 0001:00026e10       ??_G?$RefVectorOf@VOp@xercesc_3_1@@@xercesc_3_1@@UAEPAXI@Z 12027e10 f i Op.obj
 0001:00026e40       ?addElement@UnionOp@xercesc_3_1@@QAEXQAVOp@2@@Z 12027e40 f   Op.obj
 0001:00026e70       ?elementAt@Op@xercesc_3_1@@UBEPBV12@K@Z 12027e70 f   Op.obj
 0001:00026ee0       ?elementAt@UnionOp@xercesc_3_1@@UBEPBVOp@2@K@Z 12027ee0 f   Op.obj
 0001:00026ef0       ?getChild@Op@xercesc_3_1@@UBEPBV12@XZ 12027ef0 f   Op.obj
 0001:00026f60       ?getData2@Op@xercesc_3_1@@UBEHXZ 12027f60 f   Op.obj
 0001:00026fd0       ?getData@Op@xercesc_3_1@@UBEHXZ 12027fd0 f   Op.obj
 0001:00027040       ?getLiteral@Op@xercesc_3_1@@UBEPBGXZ 12028040 f   Op.obj
 0001:000270b0       ?getSize@Op@xercesc_3_1@@UBEKXZ 120280b0 f   Op.obj
 0001:00027120       ?getSize@UnionOp@xercesc_3_1@@UBEKXZ 12028120 f   Op.obj
 0001:00027130       ?getToken@Op@xercesc_3_1@@UBEPBVToken@2@XZ 12028130 f   Op.obj
 0001:000271a0       ?setSchemaLocation@DOMConfigurationImpl@xercesc_3_1@@QAEXPBG@Z 120281a0 f   DOMConfigurationImpl.obj
 0001:000271a0       ?setBlockSet@ComplexTypeInfo@xercesc_3_1@@QAEXH@Z 120281a0 f   XMLElementDecl.obj
 0001:000271a0       ?setMax@ClosureToken@xercesc_3_1@@UAEXH@Z 120281a0 f   ClosureToken.obj
 0001:000271a0       ?setScanner@ValueStoreCache@xercesc_3_1@@QAEXQAVXMLScanner@2@@Z 120281a0 f   IGXMLScanner.obj
 0001:000271a0       ?setChild@ChildOp@xercesc_3_1@@QAEXQBVOp@2@@Z 120281a0 f   Op.obj
 0001:000271a0       ?setURI@QName@xercesc_3_1@@QAEXI@Z 120281a0 f   QName.obj
 0001:000271a0       ?setId@XMLElementDecl@xercesc_3_1@@QAEXK@Z 120281a0 f   XMLDTDDescription.obj
 0001:000271a0       ?setId@XSObject@xercesc_3_1@@QAEXK@Z 120281a0 f   XSObject.obj
 0001:000271b0       ??0OpFactory@xercesc_3_1@@QAE@QAVMemoryManager@1@@Z 120281b0 f   OpFactory.obj
 0001:00027280       ??_FOpFactory@xercesc_3_1@@QAEXXZ 12028280 f i OpFactory.obj
 0001:00027290       ?createAnchorOp@OpFactory@xercesc_3_1@@QAEPAVCharOp@2@H@Z 12028290 f   OpFactory.obj
 0001:00027320       ?createBackReferenceOp@OpFactory@xercesc_3_1@@QAEPAVCharOp@2@H@Z 12028320 f   OpFactory.obj
 0001:000273b0       ?createCaptureOp@OpFactory@xercesc_3_1@@QAEPAVCharOp@2@HQBVOp@2@@Z 120283b0 f   OpFactory.obj
 0001:00027450       ?createCharOp@OpFactory@xercesc_3_1@@QAEPAVCharOp@2@H@Z 12028450 f   OpFactory.obj
 0001:000274e0       ?createClosureOp@OpFactory@xercesc_3_1@@QAEPAVChildOp@2@H@Z 120284e0 f   OpFactory.obj
 0001:00027580       ?createDotOp@OpFactory@xercesc_3_1@@QAEPAVOp@2@XZ 12028580 f   OpFactory.obj
 0001:00027610       ?createNonGreedyClosureOp@OpFactory@xercesc_3_1@@QAEPAVChildOp@2@XZ 12028610 f   OpFactory.obj
 0001:000276a0       ?createQuestionOp@OpFactory@xercesc_3_1@@QAEPAVChildOp@2@_N@Z 120286a0 f   OpFactory.obj
 0001:00027740       ?createRangeOp@OpFactory@xercesc_3_1@@QAEPAVRangeOp@2@QBVToken@2@@Z 12028740 f   OpFactory.obj
 0001:000277d0       ?createStringOp@OpFactory@xercesc_3_1@@QAEPAVStringOp@2@QBG@Z 120287d0 f   OpFactory.obj
 0001:00027860       ?createUnionOp@OpFactory@xercesc_3_1@@QAEPAVUnionOp@2@K@Z 12028860 f   OpFactory.obj
 0001:000278f0       ?reset@OpFactory@xercesc_3_1@@QAEXXZ 120288f0 f i OpFactory.obj
 0001:00027900       ??0ParenToken@xercesc_3_1@@QAE@W4tokType@Token@1@QAV31@HQAVMemoryManager@1@@Z 12028900 f   ParenToken.obj
 0001:00027970       ??1ParenToken@xercesc_3_1@@UAE@XZ 12028970 f   ParenToken.obj
 0001:000279c0       ??_EParenToken@xercesc_3_1@@UAEPAXI@Z 120289c0 f i ParenToken.obj
 0001:00027a70       ?getChild@ParenToken@xercesc_3_1@@UBEPAVToken@2@K@Z 12028a70 f i ParenToken.obj
 0001:00027a80       ??0ParseException@xercesc_3_1@@QAE@ABV01@@Z 12028a80 f i ParserForXMLSchema.obj
 0001:00027ae0       ??0ParseException@xercesc_3_1@@QAE@QBD_KW4Codes@XMLExcepts@1@0000PAVMemoryManager@1@@Z 12028ae0 f i ParserForXMLSchema.obj
 0001:00027b60       ??0ParseException@xercesc_3_1@@QAE@QBD_KW4Codes@XMLExcepts@1@PAVMemoryManager@1@@Z 12028b60 f i ParserForXMLSchema.obj
 0001:00027bd0       ??0ParseException@xercesc_3_1@@QAE@QBD_KW4Codes@XMLExcepts@1@QBG333PAVMemoryManager@1@@Z 12028bd0 f i ParserForXMLSchema.obj
 0001:00027c50       ??0ParserForXMLSchema@xercesc_3_1@@QAE@QAVMemoryManager@1@@Z 12028c50 f   ParserForXMLSchema.obj
 0001:00027cb0       ??1ParseException@xercesc_3_1@@UAE@XZ 12028cb0 f i ParserForXMLSchema.obj
 0001:00027d00       ??1ParserForXMLSchema@xercesc_3_1@@UAE@XZ 12028d00 f   ParserForXMLSchema.obj
 0001:00027d50       ??_EParseException@xercesc_3_1@@UAEPAXI@Z 12028d50 f i ParserForXMLSchema.obj
 0001:00027e00       ??_EParserForXMLSchema@xercesc_3_1@@UAEPAXI@Z 12028e00 f i ParserForXMLSchema.obj
 0001:00027eb0       ??_FParserForXMLSchema@xercesc_3_1@@QAEXXZ 12028eb0 f i ParserForXMLSchema.obj
 0001:00027f10       ??_FRegxParser@xercesc_3_1@@QAEXXZ 12028f10 f i ParserForXMLSchema.obj
 0001:00027f20       ?checkQuestion@ParserForXMLSchema@xercesc_3_1@@MAE_NK@Z 12028f20 f   ParserForXMLSchema.obj
 0001:00027f20       ?checkTextIsValidForInclude@XIncludeUtils@xercesc_3_1@@AAE_NPAG@Z 12028f20 f   XIncludeUtils.obj
 0001:00027f20       ?removeAdvDocHandler@SAX2XMLFilterImpl@xercesc_3_1@@UAE_NQAVXMLDocumentHandler@2@@Z 12028f20 f   SAX2XMLFilterImpl.obj
 0001:00027f30       ?decodeEscaped@ParserForXMLSchema@xercesc_3_1@@MAEHXZ 12028f30 f   ParserForXMLSchema.obj
 0001:000280b0       ?duplicate@ParseException@xercesc_3_1@@UBEPAVXMLException@2@XZ 120290b0 f i ParserForXMLSchema.obj
 0001:00028150       ?getChild@UnionToken@xercesc_3_1@@UBEPAVToken@2@K@Z 12029150 f i ParserForXMLSchema.obj
 0001:00028160       ?getFacetKind@XSFacet@xercesc_3_1@@QBE?AW4FACET@XSSimpleTypeDefinition@2@XZ 12029160 f i XSFacet.obj
 0001:00028160       ?getParameterNames@DOMConfigurationImpl@xercesc_3_1@@UBEPBVDOMStringList@2@XZ 12029160 f i DOMConfigurationImpl.obj
 0001:00028160       ?getConstraintType@XSWildcard@xercesc_3_1@@QBE?AW4NAMESPACE_CONSTRAINT@12@XZ 12029160 f i XSComplexTypeDefinition.obj
 0001:00028160       ?getBufCount@XSerializeEngine@xercesc_3_1@@QBEKXZ 12029160 f i KVStringPair.obj
 0001:00028160       ?getFacetKind@XSMultiValueFacet@xercesc_3_1@@QBE?AW4FACET@XSSimpleTypeDefinition@2@XZ 12029160 f i XSMultiValueFacet.obj
 0001:00028160       ?getFilter@DOMLSParserImpl@xercesc_3_1@@UBEPBVDOMLSParserFilter@2@XZ 12029160 f i DOMLSParserImpl.obj
 0001:00028160       ?getTriggeringComponent@XMLSchemaDescriptionImpl@xercesc_3_1@@UBEPBVQName@2@XZ 12029160 f i XMLSchemaDescriptionImpl.obj
 0001:00028160       ?getCurrentSchemaURL@SchemaInfo@xercesc_3_1@@QBEPAGXZ 12029160 f i IGXMLScanner.obj
 0001:00028160       ?getSecond@ContentSpecNode@xercesc_3_1@@QAEPAV12@XZ 12029160 f i XMLGrammarPoolImpl.obj
 0001:00028160       ?getNoParen@RegxParser@xercesc_3_1@@QBEHXZ 12029160 f i ParserForXMLSchema.obj
 0001:00028160       ?getContentSpec@XercesGroupInfo@xercesc_3_1@@QBEPAVContentSpecNode@2@XZ 12029160 f i XMLGrammarPoolImpl.obj
 0001:00028160       ?getFixed@DatatypeValidator@xercesc_3_1@@IBEHXZ 12029160 f i XMLAttr.obj
 0001:00028160       ?getGrammar@DTDValidator@xercesc_3_1@@UBEPAVGrammar@2@XZ 12029160 f i DGXMLScanner.obj
 0001:00028160       ?getSystemId@XMLNotationDecl@xercesc_3_1@@QBEPBGXZ 12029160 f i XMLDTDDescription.obj
 0001:00028160       ?getMemoryManager@TokenFactory@xercesc_3_1@@QBEPAVMemoryManager@2@XZ 12029160 f i ASCIIRangeFactory.obj
 0001:00028160       ?getLocator@XMLResourceIdentifier@xercesc_3_1@@QBEPBVLocator@2@XZ 12029160 f i DGXMLScanner.obj
 0001:00028160       ?getFilter@DOMLSSerializerImpl@xercesc_3_1@@UBEPAVDOMLSSerializerFilter@2@XZ 12029160 f i DOMLSSerializerImpl.obj
 0001:00028160       ?getSecond@ContentSpecNode@xercesc_3_1@@QBEPBV12@XZ 12029160 f i XMLGrammarPoolImpl.obj
 0001:00028160       ?getTermType@XSParticle@xercesc_3_1@@QBE?AW4TERM_TYPE@12@XZ 12029160 f i XSComplexTypeDefinition.obj
 0001:00028160       ?getCompositor@XSModelGroup@xercesc_3_1@@QBE?AW4COMPOSITOR_TYPE@12@XZ 12029160 f i XSModelGroup.obj
 0001:00028160       ?getPrefix@QName@xercesc_3_1@@QAEPAGXZ 12029160 f i QName.obj
 0001:00028160       ?getPrefix@QName@xercesc_3_1@@QBEPBGXZ 12029160 f i QName.obj
 0001:00028160       ?getData@ModifierOp@xercesc_3_1@@UBEHXZ 12029160 f i Op.obj
 0001:00028160       ?getRegBasedAuthority@XMLUri@xercesc_3_1@@QBEPBGXZ 12029160 f i XMLString.obj
 0001:00028160       ?getRawData@XMLBigDecimal@xercesc_3_1@@UBEPAGXZ 12029160 f i XMLAbstractDoubleFloat.obj
 0001:00028160       ?getFormattedString@XMLBigDecimal@xercesc_3_1@@UBEPBGXZ 12029160 f i XMLAbstractDoubleFloat.obj
 0001:00028160       ?getType@DOMErrorImpl@xercesc_3_1@@UBEPBGXZ 12029160 f i DOMLSParserImpl.obj
 0001:00028160       ?getSystemId@DOMLSInputImpl@xercesc_3_1@@UBEPBGXZ 12029160 f i DOMImplementationImpl.obj
 0001:00028160       ?getPath@XMLURL@xercesc_3_1@@QBEPBGXZ 12029160 f i PlatformUtils.obj
 0001:00028160       ?getTypeCategory@XSTypeDefinition@xercesc_3_1@@QBE?AW4TYPE_CATEGORY@12@XZ 12029160 f i XMLAttr.obj
 0001:00028160       ?getCanonicalRepresentation@PSVIItem@xercesc_3_1@@QBEPBGXZ 12029160 f i PSVIAttribute.obj
 0001:00028160       ?getId@XMLAttDef@xercesc_3_1@@QBEKXZ 12029160 f i XMLAttDef.obj
 0001:00028160       ?getParent@SAX2XMLFilterImpl@xercesc_3_1@@UBEPAVSAX2XMLReader@2@XZ 12029160 f i SAX2XMLFilterImpl.obj
 0001:00028160       ?getSystemId@DOMNotationImpl@xercesc_3_1@@UBEPBGXZ 12029160 f i DOMNotationImpl.obj
 0001:00028160       ?getNotationName@XMLEntityDecl@xercesc_3_1@@QBEPBGXZ 12029160 f i XMLDTDDescription.obj
 0001:00028160       ?getValidatingMemberType@ValidationContextImpl@xercesc_3_1@@UBEPAVDatatypeValidator@2@XZ 12029160 f i ValidationContextImpl.obj
 0001:00028160       ?getFinalSet@ComplexTypeInfo@xercesc_3_1@@QBEHXZ 12029160 f i XMLElementDecl.obj
 0001:00028170       ?getType@ParseException@xercesc_3_1@@UBEPBGXZ 12029170 f i ParserForXMLSchema.obj
 0001:00028180       ?hexChar@RegxParser@xercesc_3_1@@AAEHH@Z 12029180 f i ParserForXMLSchema.obj
 0001:000281c0       ?isSet@RegxParser@xercesc_3_1@@IAE_NH@Z 120291c0 f i ParserForXMLSchema.obj
 0001:000281e0       ?processBackReference@ParserForXMLSchema@xercesc_3_1@@MAEPAVToken@2@XZ 120291e0 f   ParserForXMLSchema.obj
 0001:00028250       ?processCaret@ParserForXMLSchema@xercesc_3_1@@MAEPAVToken@2@XZ 12029250 f   ParserForXMLSchema.obj
 0001:00028270       ?processDollar@ParserForXMLSchema@xercesc_3_1@@MAEPAVToken@2@XZ 12029270 f   ParserForXMLSchema.obj
 0001:00028290       ?processParen@ParserForXMLSchema@xercesc_3_1@@MAEPAVToken@2@XZ 12029290 f   ParserForXMLSchema.obj
 0001:00028340       ?processPlus@ParserForXMLSchema@xercesc_3_1@@MAEPAVToken@2@QAV32@@Z 12029340 f   ParserForXMLSchema.obj
 0001:00028370       ?processQuestion@ParserForXMLSchema@xercesc_3_1@@MAEPAVToken@2@QAV32@@Z 12029370 f   ParserForXMLSchema.obj
 0001:000283c0       ?processStar@ParserForXMLSchema@xercesc_3_1@@MAEPAVToken@2@QAV32@@Z 120293c0 f   ParserForXMLSchema.obj
 0001:000283e0       ?setString@StringToken@xercesc_3_1@@QAEXQBG@Z 120293e0 f i ParserForXMLSchema.obj
 0001:00028450       ?size@UnionToken@xercesc_3_1@@UBEKXZ 12029450 f i ParserForXMLSchema.obj
 0001:00028460       ??0RangeFactory@xercesc_3_1@@IAE@XZ 12029460 f   RangeFactory.obj
 0001:00028470       ??1RangeFactory@xercesc_3_1@@UAE@XZ 12029470 f   RangeFactory.obj
 0001:00028480       ??_ERangeFactory@xercesc_3_1@@UAEPAXI@Z 12029480 f i RangeFactory.obj
 0001:000284e0       ??0RangeToken@xercesc_3_1@@QAE@W4tokType@Token@1@QAVMemoryManager@1@@Z 120294e0 f   RangeToken.obj
 0001:00028580       ??1RangeToken@xercesc_3_1@@UAE@XZ 12029580 f   RangeToken.obj
 0001:00028600       ??_ERangeToken@xercesc_3_1@@UAEPAXI@Z 12029600 f i RangeToken.obj
 0001:000286e0       ?addRange@RangeToken@xercesc_3_1@@UAEXHH@Z 120296e0 f   RangeToken.obj
 0001:00028850       ?compactRanges@RangeToken@xercesc_3_1@@UAEXXZ 12029850 f   RangeToken.obj
 0001:00028910       ?complementRanges@RangeToken@xercesc_3_1@@SAPAV12@QAV12@QAVTokenFactory@2@QAVMemoryManager@2@@Z 12029910 f   RangeToken.obj
 0001:00028a40       ?doCreateMap@RangeToken@xercesc_3_1@@AAEXXZ 12029a40 f   RangeToken.obj
 0001:00028b20       ?expand@RangeToken@xercesc_3_1@@AAEXI@Z 12029b20 f   RangeToken.obj
 0001:00028ba0       ?getCaseInsensitiveToken@RangeToken@xercesc_3_1@@QAEPAV12@QAVTokenFactory@2@@Z 12029ba0 f   RangeToken.obj
 0001:00028ce0       ?intersectRanges@RangeToken@xercesc_3_1@@UAEXQAV12@@Z 12029ce0 f   RangeToken.obj
 0001:00028e40       ?match@RangeToken@xercesc_3_1@@QAE_NH@Z 12029e40 f   RangeToken.obj
 0001:00028f30       ?mergeRanges@RangeToken@xercesc_3_1@@UAEXQBVToken@2@@Z 12029f30 f   RangeToken.obj
 0001:00029160       ?setRangeValues@RangeToken@xercesc_3_1@@QAEXQAHI@Z 1202a160 f   RangeToken.obj
 0001:000291b0       ?sortRanges@RangeToken@xercesc_3_1@@UAEXXZ 1202a1b0 f   RangeToken.obj
 0001:00029240       ?subtractRanges@RangeToken@xercesc_3_1@@UAEXQAV12@@Z 1202a240 f   RangeToken.obj
 0001:000293e0       ??0?$RefHashTableOf@VRangeTokenElemMap@xercesc_3_1@@UStringHasher@2@@xercesc_3_1@@QAE@KQAVMemoryManager@1@@Z 1202a3e0 f i RangeTokenMap.obj
 0001:000293e0       ??0?$RefHashTableOf@VDatatypeValidator@xercesc_3_1@@UStringHasher@2@@xercesc_3_1@@QAE@KQAVMemoryManager@1@@Z 1202a3e0 f i DatatypeValidatorFactory.obj
 0001:000293e0       ??0?$RefHashTableOf@VRangeFactory@xercesc_3_1@@UStringHasher@2@@xercesc_3_1@@QAE@KQAVMemoryManager@1@@Z 1202a3e0 f i RangeTokenMap.obj
 0001:00029420       ??0RangeTokenElemMap@xercesc_3_1@@QAE@I@Z 1202a420 f   RangeTokenMap.obj
 0001:00029440       ??0RangeTokenMap@xercesc_3_1@@IAE@PAVMemoryManager@1@@Z 1202a440 f   RangeTokenMap.obj
 0001:000295b0       ??1RangeTokenMap@xercesc_3_1@@IAE@XZ 1202a5b0 f   RangeTokenMap.obj
 0001:00029610       ?addCategory@RangeTokenMap@xercesc_3_1@@QAEXQBG@Z 1202a610 f   RangeTokenMap.obj
 0001:00029620       ?addKeywordMap@RangeTokenMap@xercesc_3_1@@QAEXQBG0@Z 1202a620 f   RangeTokenMap.obj
 0001:00029740       ?addRangeMap@RangeTokenMap@xercesc_3_1@@QAEXQBGQAVRangeFactory@2@@Z 1202a740 f   RangeTokenMap.obj
 0001:00029750       ?buildTokenRanges@RangeTokenMap@xercesc_3_1@@AAEXXZ 1202a750 f   RangeTokenMap.obj
 0001:000297f0       ?cleanUp@RangeTokenMap@xercesc_3_1@@AAEXXZ 1202a7f0 f   RangeTokenMap.obj
 0001:00029890       ?getRange@RangeTokenMap@xercesc_3_1@@IAEPAVRangeToken@2@QBG_N@Z 1202a890 f   RangeTokenMap.obj
 0001:000299b0       ?initializeRangeTokenMap@XMLInitializer@xercesc_3_1@@CAXXZ 1202a9b0 f   RangeTokenMap.obj
 0001:00029a30       ?initializeRegistry@RangeTokenMap@xercesc_3_1@@AAEXXZ 1202aa30 f   RangeTokenMap.obj
 0001:00029bb0       ?instance@RangeTokenMap@xercesc_3_1@@SAPAV12@XZ 1202abb0 f   RangeTokenMap.obj
 0001:00029bc0       ?put@?$RefHashTableOf@VRangeTokenElemMap@xercesc_3_1@@UStringHasher@2@@xercesc_3_1@@QAEXPAXQAVRangeTokenElemMap@2@@Z 1202abc0 f i RangeTokenMap.obj
 0001:00029ca0       ?setRangeToken@RangeTokenMap@xercesc_3_1@@QAEXQBGQAVRangeToken@2@_N@Z 1202aca0 f   RangeTokenMap.obj
 0001:00029d80       ?terminateRangeTokenMap@XMLInitializer@xercesc_3_1@@CAXXZ 1202ad80 f   RangeTokenMap.obj
 0001:00029e00       ??0Context@RegularExpression@xercesc_3_1@@QAE@PAV012@@Z 1202ae00 f   RegularExpression.obj
 0001:00029f00       ??0Context@RegularExpression@xercesc_3_1@@QAE@QAVMemoryManager@2@@Z 1202af00 f   RegularExpression.obj
 0001:00029f60       ??0RegularExpression@xercesc_3_1@@QAE@QBD0QAVMemoryManager@1@@Z 1202af60 f   RegularExpression.obj
 0001:0002a0c0       ??0RegularExpression@xercesc_3_1@@QAE@QBDQAVMemoryManager@1@@Z 1202b0c0 f   RegularExpression.obj
 0001:0002a1f0       ??0RegularExpression@xercesc_3_1@@QAE@QBG0QAVMemoryManager@1@@Z 1202b1f0 f   RegularExpression.obj
 0001:0002a300       ??0RegularExpression@xercesc_3_1@@QAE@QBGQAVMemoryManager@1@@Z 1202b300 f   RegularExpression.obj
 0001:0002a410       ??1?$BaseRefVectorOf@VMatch@xercesc_3_1@@@xercesc_3_1@@UAE@XZ 1202b410 f i RegularExpression.obj
 0001:0002a420       ??1?$Janitor@V?$ValueStackOf@URE_RuntimeContext@xercesc_3_1@@@xercesc_3_1@@@xercesc_3_1@@QAE@XZ 1202b420 f i RegularExpression.obj
 0001:0002a490       ??1?$RefVectorOf@VMatch@xercesc_3_1@@@xercesc_3_1@@UAE@XZ 1202b490 f i RegularExpression.obj
 0001:0002a520       ??1Context@RegularExpression@xercesc_3_1@@QAE@XZ 1202b520 f   RegularExpression.obj
 0001:0002a550       ??1RegularExpression@xercesc_3_1@@UAE@XZ 1202b550 f   RegularExpression.obj
 0001:0002a5f0       ??4Context@RegularExpression@xercesc_3_1@@QAEAAV012@ABV012@@Z 1202b5f0 f   RegularExpression.obj
 0001:0002a760       ??_ERegularExpression@xercesc_3_1@@UAEPAXI@Z 1202b760 f i RegularExpression.obj
 0001:0002a7c0       ??_FContext@RegularExpression@xercesc_3_1@@QAEXXZ 1202b7c0 f i RegularExpression.obj
 0001:0002a810       ??_G?$BaseRefVectorOf@VMatch@xercesc_3_1@@@xercesc_3_1@@UAEPAXI@Z 1202b810 f i RegularExpression.obj
 0001:0002a810       ??_E?$BaseRefVectorOf@VMatch@xercesc_3_1@@@xercesc_3_1@@UAEPAXI@Z 1202b810 f i RegularExpression.obj
 0001:0002a840       ??_E?$RefVectorOf@VMatch@xercesc_3_1@@@xercesc_3_1@@UAEPAXI@Z 1202b840 f i RegularExpression.obj
 0001:0002a840       ??_G?$RefVectorOf@VMatch@xercesc_3_1@@@xercesc_3_1@@UAEPAXI@Z 1202b840 f i RegularExpression.obj
 0001:0002a870       ?allMatches@RegularExpression@xercesc_3_1@@QBEXQBGKKPAV?$RefVectorOf@VMatch@xercesc_3_1@@@2@QAVMemoryManager@2@@Z 1202b870 f   RegularExpression.obj
 0001:0002aa40       ?cleanUp@RegularExpression@xercesc_3_1@@IAEXXZ 1202ba40 f i RegularExpression.obj
 0001:0002aa90       ?compile@RegularExpression@xercesc_3_1@@IAEPAVOp@2@QBVToken@2@QAV32@_N@Z 1202ba90 f   RegularExpression.obj
 0001:0002acb0       ?compile@RegularExpression@xercesc_3_1@@IAEXQBVToken@2@@Z 1202bcb0 f   RegularExpression.obj
 0001:0002ace0       ?compileClosure@RegularExpression@xercesc_3_1@@IAEPAVOp@2@QBVToken@2@QAV32@_NW4tokType@42@@Z 1202bce0 f i RegularExpression.obj
 0001:0002ae60       ?compileConcat@RegularExpression@xercesc_3_1@@IAEPAVOp@2@QBVToken@2@QAV32@_N@Z 1202be60 f i RegularExpression.obj
 0001:0002aee0       ?compileParenthesis@RegularExpression@xercesc_3_1@@IAEPAVOp@2@QBVToken@2@QAV32@_N@Z 1202bee0 f i RegularExpression.obj
 0001:0002af90       ?compileUnion@RegularExpression@xercesc_3_1@@IAEPAVOp@2@QBVToken@2@QAV32@_N@Z 1202bf90 f i RegularExpression.obj
 0001:0002aff0       ?composeFromSurrogate@RegxUtil@xercesc_3_1@@SAHGG@Z 1202bff0 f i RegularExpression.obj
 0001:0002b010       ?decomposeToSurrogates@RegxUtil@xercesc_3_1@@SAXHAAG0@Z 1202c010 f i RegularExpression.obj
 0001:0002b040       ?doTokenOverlap@RegularExpression@xercesc_3_1@@IAE_NPBVOp@2@PAVToken@2@@Z 1202c040 f   RegularExpression.obj
 0001:0002b220       ?ensureExtraCapacity@?$ValueVectorOf@URE_RuntimeContext@xercesc_3_1@@@xercesc_3_1@@QAEXK@Z 1202c220 f i RegularExpression.obj
 0001:0002b2b0       ?getOptionValue@RegularExpression@xercesc_3_1@@SAHG@Z 1202c2b0 f   RegularExpression.obj
 0001:0002b370       ?getRegexParser@RegularExpression@xercesc_3_1@@MAEPAVRegxParser@2@HQAVMemoryManager@2@@Z 1202c370 f   RegularExpression.obj
 0001:0002b400       ?initializeRegularExpression@XMLInitializer@xercesc_3_1@@CAXXZ 1202c400 f   RegularExpression.obj
 0001:0002b410       ?isEOLChar@RegxUtil@xercesc_3_1@@SA_NG@Z 1202c410 f i RegularExpression.obj
 0001:0002b440       ?isHighSurrogate@RegxUtil@xercesc_3_1@@SA_NG@Z 1202c440 f i RegularExpression.obj
 0001:0002b460       ?isLowSurrogate@RegxUtil@xercesc_3_1@@SA_NG@Z 1202c460 f i RegularExpression.obj
 0001:0002b480       ?isSet@RegularExpression@xercesc_3_1@@SA_NHH@Z 1202c480 f i RegularExpression.obj
 0001:0002b4a0       ?isWordChar@RegxUtil@xercesc_3_1@@SA_NG@Z 1202c4a0 f i RegularExpression.obj
 0001:0002b4e0       ?match@RegularExpression@xercesc_3_1@@IBEHQAVContext@12@QBVOp@2@K@Z 1202c4e0 f   RegularExpression.obj
 0001:0002ba40       ?matchAnchor@RegularExpression@xercesc_3_1@@IBE_NQAVContext@12@HK@Z 1202ca40 f   RegularExpression.obj
 0001:0002bb20       ?matchBackReference@RegularExpression@xercesc_3_1@@IBE_NQAVContext@12@HAAK_N@Z 1202cb20 f   RegularExpression.obj
 0001:0002bc60       ?matchCapture@RegularExpression@xercesc_3_1@@IBEHQAVContext@12@QBVOp@2@K@Z 1202cc60 f   RegularExpression.obj
 0001:0002bd10       ?matchChar@RegularExpression@xercesc_3_1@@IBE_NQAVContext@12@HAAK_N@Z 1202cd10 f   RegularExpression.obj
 0001:0002bd70       ?matchDot@RegularExpression@xercesc_3_1@@IBE_NQAVContext@12@AAK@Z 1202cd70 f   RegularExpression.obj
 0001:0002bde0       ?matchIgnoreCase@RegularExpression@xercesc_3_1@@IBE_NHH@Z 1202cde0 f   RegularExpression.obj
 0001:0002bf00       ?matchRange@RegularExpression@xercesc_3_1@@IBE_NQAVContext@12@QBVOp@2@AAK_N@Z 1202cf00 f   RegularExpression.obj
 0001:0002bf70       ?matchString@RegularExpression@xercesc_3_1@@IBE_NQAVContext@12@QBGAAK_N@Z 1202cf70 f   RegularExpression.obj
 0001:0002bfe0       ?matchUnion@RegularExpression@xercesc_3_1@@IBEHQAVContext@12@QBVOp@2@K@Z 1202cfe0 f   RegularExpression.obj
 0001:0002c180       ?matches@RegularExpression@xercesc_3_1@@QBE_NQBDKKQAVMatch@2@QAVMemoryManager@2@@Z 1202d180 f   RegularExpression.obj
 0001:0002c230       ?matches@RegularExpression@xercesc_3_1@@QBE_NQBDKKQAVMemoryManager@2@@Z 1202d230 f   RegularExpression.obj
 0001:0002c2e0       ?matches@RegularExpression@xercesc_3_1@@QBE_NQBDQAVMatch@2@QAVMemoryManager@2@@Z 1202d2e0 f   RegularExpression.obj
 0001:0002c3a0       ?matches@RegularExpression@xercesc_3_1@@QBE_NQBDQAVMemoryManager@2@@Z 1202d3a0 f   RegularExpression.obj
 0001:0002c460       ?matches@RegularExpression@xercesc_3_1@@QBE_NQBGKKQAVMatch@2@QAVMemoryManager@2@@Z 1202d460 f   RegularExpression.obj
 0001:0002c800       ?matches@RegularExpression@xercesc_3_1@@QBE_NQBGKKQAVMemoryManager@2@@Z 1202d800 f   RegularExpression.obj
 0001:0002c820       ?matches@RegularExpression@xercesc_3_1@@QBE_NQBGQAVMatch@2@QAVMemoryManager@2@@Z 1202d820 f   RegularExpression.obj
 0001:0002c860       ?matches@RegularExpression@xercesc_3_1@@QBE_NQBGQAVMemoryManager@2@@Z 1202d860 f   RegularExpression.obj
 0001:0002c8a0       ?nextCh@Context@RegularExpression@xercesc_3_1@@QAE_NAAHAAK@Z 1202d8a0 f   RegularExpression.obj
 0001:0002c930       ?parseOptions@RegularExpression@xercesc_3_1@@IAEHQBG@Z 1202d930 f   RegularExpression.obj
 0001:0002ca20       ?prepare@RegularExpression@xercesc_3_1@@IAEXXZ 1202da20 f   RegularExpression.obj
 0001:0002ccc0       ?push@?$ValueStackOf@URE_RuntimeContext@xercesc_3_1@@@xercesc_3_1@@QAEXABURE_RuntimeContext@2@@Z 1202dcc0 f i RegularExpression.obj
 0001:0002ccf0       ?removeElementAt@?$ValueVectorOf@URE_RuntimeContext@xercesc_3_1@@@xercesc_3_1@@QAEXK@Z 1202dcf0 f i RegularExpression.obj
 0001:0002cda0       ?replace@RegularExpression@xercesc_3_1@@QBEPAGQBD0KKQAVMemoryManager@2@@Z 1202dda0 f   RegularExpression.obj
 0001:0002ce90       ?replace@RegularExpression@xercesc_3_1@@QBEPAGQBD0QAVMemoryManager@2@@Z 1202de90 f   RegularExpression.obj
 0001:0002cfa0       ?replace@RegularExpression@xercesc_3_1@@QBEPAGQBG0KKQAVMemoryManager@2@@Z 1202dfa0 f   RegularExpression.obj
 0001:0002d2b0       ?replace@RegularExpression@xercesc_3_1@@QBEPAGQBG0QAVMemoryManager@2@@Z 1202e2b0 f   RegularExpression.obj
 0001:0002d2f0       ?reset@Context@RegularExpression@xercesc_3_1@@QAEXQBGKKKHI@Z 1202e2f0 f   RegularExpression.obj
 0001:0002d390       ?setPattern@RegularExpression@xercesc_3_1@@IAEXQBG0@Z 1202e390 f   RegularExpression.obj
 0001:0002d4b0       ?staticInitialize@RegularExpression@xercesc_3_1@@SAXPAVMemoryManager@2@@Z 1202e4b0 f   RegularExpression.obj
 0001:0002d550       ?subInExp@RegularExpression@xercesc_3_1@@IBEXQBG0PBVMatch@2@AAVXMLBuffer@2@QAVMemoryManager@2@@Z 1202e550 f   RegularExpression.obj
 0001:0002d720       ?staticCleanup@RegularExpression@xercesc_3_1@@SAXXZ 1202e720 f   RegularExpression.obj
 0001:0002d720       ?terminateRegularExpression@XMLInitializer@xercesc_3_1@@CAXXZ 1202e720 f   RegularExpression.obj
 0001:0002d730       ?tokenize@RegularExpression@xercesc_3_1@@QBEPAV?$RefArrayVectorOf@G@2@QBDKKQAVMemoryManager@2@@Z 1202e730 f   RegularExpression.obj
 0001:0002d7d0       ?tokenize@RegularExpression@xercesc_3_1@@QBEPAV?$RefArrayVectorOf@G@2@QBDQAVMemoryManager@2@@Z 1202e7d0 f   RegularExpression.obj
 0001:0002d890       ?tokenize@RegularExpression@xercesc_3_1@@QBEPAV?$RefArrayVectorOf@G@2@QBGKKQAVMemoryManager@2@@Z 1202e890 f   RegularExpression.obj
 0001:0002dbe0       ?tokenize@RegularExpression@xercesc_3_1@@QBEPAV?$RefArrayVectorOf@G@2@QBGQAVMemoryManager@2@@Z 1202ebe0 f   RegularExpression.obj
 0001:0002dc30       ??0RegxParser@xercesc_3_1@@QAE@QAVMemoryManager@1@@Z 1202ec30 f   RegxParser.obj
 0001:0002dc90       ??1?$BaseRefVectorOf@VReferencePosition@RegxParser@xercesc_3_1@@@xercesc_3_1@@UAE@XZ 1202ec90 f i RegxParser.obj
 0001:0002dca0       ??1?$RefVectorOf@VReferencePosition@RegxParser@xercesc_3_1@@@xercesc_3_1@@UAE@XZ 1202eca0 f i RegxParser.obj
 0001:0002dd30       ??1RegxParser@xercesc_3_1@@UAE@XZ 1202ed30 f   RegxParser.obj
 0001:0002dd60       ??_ERegxParser@xercesc_3_1@@UAEPAXI@Z 1202ed60 f i RegxParser.obj
 0001:0002ddd0       ??_G?$BaseRefVectorOf@VReferencePosition@RegxParser@xercesc_3_1@@@xercesc_3_1@@UAEPAXI@Z 1202edd0 f i RegxParser.obj
 0001:0002ddd0       ??_E?$BaseRefVectorOf@VReferencePosition@RegxParser@xercesc_3_1@@@xercesc_3_1@@UAEPAXI@Z 1202edd0 f i RegxParser.obj
 0001:0002de00       ??_E?$RefVectorOf@VReferencePosition@RegxParser@xercesc_3_1@@@xercesc_3_1@@UAEPAXI@Z 1202ee00 f i RegxParser.obj
 0001:0002de00       ??_G?$RefVectorOf@VReferencePosition@RegxParser@xercesc_3_1@@@xercesc_3_1@@UAEPAXI@Z 1202ee00 f i RegxParser.obj
 0001:0002de30       ?checkQuestion@RegxParser@xercesc_3_1@@MAE_NK@Z 1202ee30 f   RegxParser.obj
 0001:0002de60       ?cleanup@?$BaseRefVectorOf@VReferencePosition@RegxParser@xercesc_3_1@@@xercesc_3_1@@UAEXXZ 1202ee60 f i RegxParser.obj
 0001:0002dea0       ?decodeEscaped@RegxParser@xercesc_3_1@@MAEHXZ 1202eea0 f   RegxParser.obj
 0001:0002e020       ?getTokenForShorthand@RegxParser@xercesc_3_1@@IAEPAVRangeToken@2@H@Z 1202f020 f   RegxParser.obj
 0001:0002e170       ?parse@RegxParser@xercesc_3_1@@QAEPAVToken@2@QBGH@Z 1202f170 f   RegxParser.obj
 0001:0002e360       ?parseAtom@RegxParser@xercesc_3_1@@AAEPAVToken@2@XZ 1202f360 f   RegxParser.obj
 0001:0002e610       ?parseCharacterClass@RegxParser@xercesc_3_1@@IAEPAVRangeToken@2@_N@Z 1202f610 f   RegxParser.obj
 0001:0002eb50       ?parseFactor@RegxParser@xercesc_3_1@@AAEPAVToken@2@XZ 1202fb50 f   RegxParser.obj
 0001:0002ee10       ?parseRegx@RegxParser@xercesc_3_1@@IAEPAVToken@2@_N@Z 1202fe10 f   RegxParser.obj
 0001:0002ee90       ?parseTerm@RegxParser@xercesc_3_1@@AAEPAVToken@2@_N@Z 1202fe90 f   RegxParser.obj
 0001:0002f210       ?processBackReference@RegxParser@xercesc_3_1@@MAEPAVToken@2@XZ 12030210 f   RegxParser.obj
 0001:0002f3b0       ?processBacksolidus_pP@RegxParser@xercesc_3_1@@IAEPAVRangeToken@2@H@Z 120303b0 f   RegxParser.obj
 0001:0002f510       ?processCaret@RegxParser@xercesc_3_1@@MAEPAVToken@2@XZ 12030510 f   RegxParser.obj
 0001:0002f530       ?processDollar@RegxParser@xercesc_3_1@@MAEPAVToken@2@XZ 12030530 f   RegxParser.obj
 0001:0002f550       ?processNext@RegxParser@xercesc_3_1@@IAEXXZ 12030550 f   RegxParser.obj
 0001:0002f830       ?processParen@RegxParser@xercesc_3_1@@MAEPAVToken@2@XZ 12030830 f   RegxParser.obj
 0001:0002f8e0       ?processPlus@RegxParser@xercesc_3_1@@MAEPAVToken@2@QAV32@@Z 120308e0 f   RegxParser.obj
 0001:0002f920       ?processQuestion@RegxParser@xercesc_3_1@@MAEPAVToken@2@QAV32@@Z 12030920 f   RegxParser.obj
 0001:0002f9a0       ?processStar@RegxParser@xercesc_3_1@@MAEPAVToken@2@QAV32@@Z 120309a0 f   RegxParser.obj
 0001:0002f9e0       ?removeAllElements@?$BaseRefVectorOf@VReferencePosition@RegxParser@xercesc_3_1@@@xercesc_3_1@@UAEXXZ 120309e0 f i RegxParser.obj
 0001:0002fa30       ?removeElementAt@?$BaseRefVectorOf@VReferencePosition@RegxParser@xercesc_3_1@@@xercesc_3_1@@UAEXK@Z 12030a30 f i RegxParser.obj
 0001:0002fb10       ?removeLastElement@?$BaseRefVectorOf@VReferencePosition@RegxParser@xercesc_3_1@@@xercesc_3_1@@UAEXXZ 12030b10 f i RegxParser.obj
 0001:0002fb30       ?setElementAt@?$BaseRefVectorOf@VReferencePosition@RegxParser@xercesc_3_1@@@xercesc_3_1@@UAEXQAVReferencePosition@RegxParser@2@K@Z 12030b30 f i RegxParser.obj
 0001:0002fbe0       ?decomposeToSurrogates@RegxUtil@xercesc_3_1@@SAPAGHQAVMemoryManager@2@@Z 12030be0 f   RegxUtil.obj
 0001:0002fc20       ?stripExtendedComment@RegxUtil@xercesc_3_1@@SAPAGQBGQAVMemoryManager@2@@Z 12030c20 f   RegxUtil.obj
 0001:0002fd10       ??0StringToken@xercesc_3_1@@QAE@W4tokType@Token@1@QBGHQAVMemoryManager@1@@Z 12030d10 f   StringToken.obj
 0001:0002fdc0       ??1StringToken@xercesc_3_1@@UAE@XZ 12030dc0 f   StringToken.obj
 0001:0002fe20       ??_EStringToken@xercesc_3_1@@UAEPAXI@Z 12030e20 f i StringToken.obj
 0001:0002fee0       ??0Token@xercesc_3_1@@QAE@W4tokType@01@QAVMemoryManager@1@@Z 12030ee0 f   Token.obj
 0001:0002ff00       ??1Token@xercesc_3_1@@UAE@XZ 12030f00 f   Token.obj
 0001:0002ff10       ??_EToken@xercesc_3_1@@UAEPAXI@Z 12030f10 f i Token.obj
 0001:0002ff70       ?analyzeFirstCharacter@Token@xercesc_3_1@@QAE?AW4firstCharacterOptions@12@QAVRangeToken@2@HQAVTokenFactory@2@@Z 12030f70 f   Token.obj
 0001:000301b0       ?findFixedString@Token@xercesc_3_1@@QAEPAV12@HAAH@Z 120311b0 f   Token.obj
 0001:00030290       ?getMaxLength@Token@xercesc_3_1@@QBEHXZ 12031290 f   Token.obj
 0001:00030400       ?getMinLength@Token@xercesc_3_1@@QBEKXZ 12031400 f   Token.obj
 0001:00030550       ?isShorterThan@Token@xercesc_3_1@@AAE_NQAV12@@Z 12031550 f   Token.obj
 0001:000305d0       ??0TokenFactory@xercesc_3_1@@QAE@QAVMemoryManager@1@@Z 120315d0 f   TokenFactory.obj
 0001:000306c0       ??1?$BaseRefVectorOf@VToken@xercesc_3_1@@@xercesc_3_1@@UAE@XZ 120316c0 f i TokenFactory.obj
 0001:000306d0       ??1?$RefVectorOf@VToken@xercesc_3_1@@@xercesc_3_1@@UAE@XZ 120316d0 f i TokenFactory.obj
 0001:00030760       ??_E?$BaseRefVectorOf@VToken@xercesc_3_1@@@xercesc_3_1@@UAEPAXI@Z 12031760 f i TokenFactory.obj
 0001:00030760       ??_G?$BaseRefVectorOf@VToken@xercesc_3_1@@@xercesc_3_1@@UAEPAXI@Z 12031760 f i TokenFactory.obj
 0001:00030790       ??_G?$RefVectorOf@VToken@xercesc_3_1@@@xercesc_3_1@@UAEPAXI@Z 12031790 f i TokenFactory.obj
 0001:00030790       ??_E?$RefVectorOf@VToken@xercesc_3_1@@@xercesc_3_1@@UAEPAXI@Z 12031790 f i TokenFactory.obj
 0001:000307c0       ?createBackReference@TokenFactory@xercesc_3_1@@QAEPAVStringToken@2@H@Z 120317c0 f   TokenFactory.obj
 0001:00030860       ?createChar@TokenFactory@xercesc_3_1@@QAEPAVCharToken@2@I_N@Z 12031860 f   TokenFactory.obj
 0001:00030920       ?createClosure@TokenFactory@xercesc_3_1@@QAEPAVClosureToken@2@QAVToken@2@_N@Z 12031920 f   TokenFactory.obj
 0001:000309e0       ?createConcat@TokenFactory@xercesc_3_1@@QAEPAVConcatToken@2@QAVToken@2@0@Z 120319e0 f   TokenFactory.obj
 0001:00030a70       ?createParenthesis@TokenFactory@xercesc_3_1@@QAEPAVParenToken@2@QAVToken@2@H@Z 12031a70 f   TokenFactory.obj
 0001:00030b10       ?createRange@TokenFactory@xercesc_3_1@@QAEPAVRangeToken@2@_N@Z 12031b10 f   TokenFactory.obj
 0001:00030bc0       ?createString@TokenFactory@xercesc_3_1@@QAEPAVStringToken@2@QBG@Z 12031bc0 f   TokenFactory.obj
 0001:00030c60       ?createToken@TokenFactory@xercesc_3_1@@QAEPAVToken@2@W4tokType@32@@Z 12031c60 f   TokenFactory.obj
 0001:00030d10       ?createUnion@TokenFactory@xercesc_3_1@@QAEPAVUnionToken@2@_N@Z 12031d10 f   TokenFactory.obj
 0001:00030dc0       ?getDot@TokenFactory@xercesc_3_1@@QAEPAVToken@2@XZ 12031dc0 f   TokenFactory.obj
 0001:00030e70       ?getLineBegin@TokenFactory@xercesc_3_1@@QAEPAVToken@2@XZ 12031e70 f   TokenFactory.obj
 0001:00030f20       ?getLineEnd@TokenFactory@xercesc_3_1@@QAEPAVToken@2@XZ 12031f20 f   TokenFactory.obj
 0001:00030fd0       ?staticGetRange@TokenFactory@xercesc_3_1@@SAPAVRangeToken@2@QBG_N@Z 12031fd0 f   TokenFactory.obj
 0001:00030ff0       ??0UnicodeRangeFactory@xercesc_3_1@@QAE@XZ 12031ff0 f   UnicodeRangeFactory.obj
 0001:00031050       ??1UnicodeRangeFactory@xercesc_3_1@@UAE@XZ 12032050 f   UnicodeRangeFactory.obj
 0001:000310a0       ??_EUnicodeRangeFactory@xercesc_3_1@@UAEPAXI@Z 120320a0 f i UnicodeRangeFactory.obj
 0001:00031150       ?buildRanges@UnicodeRangeFactory@xercesc_3_1@@MAEXPAVRangeTokenMap@2@@Z 12032150 f   UnicodeRangeFactory.obj
 0001:000314b0       ?getUniCategory@UnicodeRangeFactory@xercesc_3_1@@SAGG@Z 120324b0 f   UnicodeRangeFactory.obj
 0001:00031540       ?initializeKeywordMap@UnicodeRangeFactory@xercesc_3_1@@UAEXPAVRangeTokenMap@2@@Z 12032540 f   UnicodeRangeFactory.obj
 0001:000315f0       ??0UnionToken@xercesc_3_1@@QAE@W4tokType@Token@1@QAVMemoryManager@1@@Z 120325f0 f   UnionToken.obj
 0001:00031660       ??1UnionToken@xercesc_3_1@@UAE@XZ 12032660 f   UnionToken.obj
 0001:000316d0       ??_EUnionToken@xercesc_3_1@@UAEPAXI@Z 120326d0 f i UnionToken.obj
 0001:00031790       ?addChild@UnionToken@xercesc_3_1@@UAEXQAVToken@2@QAVTokenFactory@2@@Z 12032790 f   UnionToken.obj
 0001:00031ac0       ??0XMLRangeFactory@xercesc_3_1@@QAE@XZ 12032ac0 f   XMLRangeFactory.obj
 0001:00031b20       ??1XMLRangeFactory@xercesc_3_1@@UAE@XZ 12032b20 f   XMLRangeFactory.obj
 0001:00031b70       ??_EXMLRangeFactory@xercesc_3_1@@UAEPAXI@Z 12032b70 f i XMLRangeFactory.obj
 0001:00031c20       ?buildRanges@XMLRangeFactory@xercesc_3_1@@MAEXPAVRangeTokenMap@2@@Z 12032c20 f   XMLRangeFactory.obj
 0001:00032230       ?initializeKeywordMap@XMLRangeFactory@xercesc_3_1@@UAEXPAVRangeTokenMap@2@@Z 12033230 f   XMLRangeFactory.obj
 0001:000322f0       ?getType@XMLUniCharacter@xercesc_3_1@@SAGG@Z 120332f0 f   XMLUniCharacter.obj
 0001:00032310       ??0WindowsFileMgr@xercesc_3_1@@QAE@XZ 12033310 f   WindowsFileMgr.obj
 0001:000323a0       ??1XMLFileMgr@xercesc_3_1@@UAE@XZ 120333a0 f i WindowsFileMgr.obj
 0001:000323b0       ??_GWindowsFileMgr@xercesc_3_1@@UAEPAXI@Z 120333b0 f i WindowsFileMgr.obj
 0001:000323b0       ??_EWindowsFileMgr@xercesc_3_1@@UAEPAXI@Z 120333b0 f i WindowsFileMgr.obj
 0001:00032410       ??_EXMLFileMgr@xercesc_3_1@@UAEPAXI@Z 12033410 f i WindowsFileMgr.obj
 0001:00032410       ??_GXMLFileMgr@xercesc_3_1@@UAEPAXI@Z 12033410 f i WindowsFileMgr.obj
 0001:00032440       ?curPos@WindowsFileMgr@xercesc_3_1@@UAE_KPAXQAVMemoryManager@2@@Z 12033440 f   WindowsFileMgr.obj
 0001:00032540       ?fileClose@WindowsFileMgr@xercesc_3_1@@UAEXPAXQAVMemoryManager@2@@Z 12033540 f   WindowsFileMgr.obj
 0001:00032610       ?fileOpen@WindowsFileMgr@xercesc_3_1@@UAEPAXPBD_NQAVMemoryManager@2@@Z 12033610 f   WindowsFileMgr.obj
 0001:000326b0       ?fileOpen@WindowsFileMgr@xercesc_3_1@@UAEPAXPBG_NQAVMemoryManager@2@@Z 120336b0 f   WindowsFileMgr.obj
 0001:00032870       ?fileRead@WindowsFileMgr@xercesc_3_1@@UAEKPAXKPAEQAVMemoryManager@2@@Z 12033870 f   WindowsFileMgr.obj
 0001:00032970       ?fileReset@WindowsFileMgr@xercesc_3_1@@UAEXPAXQAVMemoryManager@2@@Z 12033970 f   WindowsFileMgr.obj
 0001:00032a50       ?fileSize@WindowsFileMgr@xercesc_3_1@@UAE_KPAXQAVMemoryManager@2@@Z 12033a50 f   WindowsFileMgr.obj
 0001:00032b40       ?fileWrite@WindowsFileMgr@xercesc_3_1@@UAEXPAXKPBEQAVMemoryManager@2@@Z 12033b40 f   WindowsFileMgr.obj
 0001:00032c50       ?getCurrentDirectory@WindowsFileMgr@xercesc_3_1@@UAEPAGQAVMemoryManager@2@@Z 12033c50 f   WindowsFileMgr.obj
 0001:00032cf0       ?getFullPath@WindowsFileMgr@xercesc_3_1@@UAEPAGQBGQAVMemoryManager@2@@Z 12033cf0 f   WindowsFileMgr.obj
 0001:00032e20       ?isRelative@WindowsFileMgr@xercesc_3_1@@UAE_NQBGQAVMemoryManager@2@@Z 12033e20 f   WindowsFileMgr.obj
 0001:00032e80       ?openStdIn@WindowsFileMgr@xercesc_3_1@@UAEPAXQAVMemoryManager@2@@Z 12033e80 f   WindowsFileMgr.obj
 0001:00032f90       ??0WindowsMutexMgr@xercesc_3_1@@QAE@XZ 12033f90 f   WindowsMutexMgr.obj
 0001:00032ff0       ??1XMLMutexMgr@xercesc_3_1@@UAE@XZ 12033ff0 f i WindowsMutexMgr.obj
 0001:00033000       ??_EWindowsMutexMgr@xercesc_3_1@@UAEPAXI@Z 12034000 f i WindowsMutexMgr.obj
 0001:00033000       ??_GWindowsMutexMgr@xercesc_3_1@@UAEPAXI@Z 12034000 f i WindowsMutexMgr.obj
 0001:00033060       ??_EXMLMutexMgr@xercesc_3_1@@UAEPAXI@Z 12034060 f i WindowsMutexMgr.obj
 0001:00033060       ??_GXMLMutexMgr@xercesc_3_1@@UAEPAXI@Z 12034060 f i WindowsMutexMgr.obj
 0001:00033090       ?create@WindowsMutexMgr@xercesc_3_1@@UAEPAXQAVMemoryManager@2@@Z 12034090 f   WindowsMutexMgr.obj
 0001:000330b0       ?destroy@WindowsMutexMgr@xercesc_3_1@@UAEXPAXQAVMemoryManager@2@@Z 120340b0 f   WindowsMutexMgr.obj
 0001:000330d0       ?lock@WindowsMutexMgr@xercesc_3_1@@UAEXPAX@Z 120340d0 f   WindowsMutexMgr.obj
 0001:000330e0       ?unlock@WindowsMutexMgr@xercesc_3_1@@UAEXPAX@Z 120340e0 f   WindowsMutexMgr.obj
 0001:000330f0       ??0LocalFileFormatTarget@xercesc_3_1@@QAE@QBDQAVMemoryManager@1@@Z 120340f0 f   LocalFileFormatTarget.obj
 0001:000331d0       ??0LocalFileFormatTarget@xercesc_3_1@@QAE@QBGQAVMemoryManager@1@@Z 120341d0 f   LocalFileFormatTarget.obj
 0001:000332b0       ??0XMLFormatTarget@xercesc_3_1@@IAE@XZ 120342b0 f i LocalFileFormatTarget.obj
 0001:000332c0       ??1LocalFileFormatTarget@xercesc_3_1@@UAE@XZ 120342c0 f   LocalFileFormatTarget.obj
 0001:00033370       ??1XMLFormatTarget@xercesc_3_1@@UAE@XZ 12034370 f i LocalFileFormatTarget.obj
 0001:00033380       ??0XMLInteger@xercesc_3_1@@QAE@H@Z 12034380 f i DFAContentModel.obj
 0001:00033380       ??0XMLCanRepGroup@xercesc_3_1@@QAE@W4CanRepGroup@01@@Z 12034380 f i XMLCanRepGroup.obj
 0001:00033380       ??6XMLFormatter@xercesc_3_1@@QAEAAV01@W4EscapeFlags@01@@Z 12034380 f i LocalFileFormatTarget.obj
 0001:00033390       ??6XMLFormatter@xercesc_3_1@@QAEAAV01@W4UnRepFlags@01@@Z 12034390 f i LocalFileFormatTarget.obj
 0001:000333a0       ??_ELocalFileFormatTarget@xercesc_3_1@@UAEPAXI@Z 120343a0 f i LocalFileFormatTarget.obj
 0001:00033400       ??_EXMLFormatTarget@xercesc_3_1@@UAEPAXI@Z 12034400 f i LocalFileFormatTarget.obj
 0001:00033460       ?ensureCapacity@LocalFileFormatTarget@xercesc_3_1@@AAEXK@Z 12034460 f   LocalFileFormatTarget.obj
 0001:000334b0       ?flush@LocalFileFormatTarget@xercesc_3_1@@UAEXXZ 120344b0 f   LocalFileFormatTarget.obj
 0001:000334d0       ?setEscapeFlags@XMLFormatter@xercesc_3_1@@QAEXW4EscapeFlags@12@@Z 120344d0 f i LocalFileFormatTarget.obj
 0001:000334d0       ?setCategoryId@RangeTokenElemMap@xercesc_3_1@@QAEXI@Z 120344d0 f i ASCIIRangeFactory.obj
 0001:000334d0       ?setSign@XMLBigInteger@xercesc_3_1@@AAEXH@Z 120344d0 f i XMLBigDecimal.obj
 0001:000334d0       ?setValueStoreCache@FieldActivator@xercesc_3_1@@QAEXQAVValueStoreCache@2@@Z 120344d0 f i FieldActivator.obj
 0001:000334e0       ?writeChars@LocalFileFormatTarget@xercesc_3_1@@UAEXQBEKQAVXMLFormatter@2@@Z 120344e0 f   LocalFileFormatTarget.obj
 0001:00033590       ??0LocalFileInputSource@xercesc_3_1@@QAE@QBG0QAVMemoryManager@1@@Z 12034590 f   LocalFileInputSource.obj
 0001:00033640       ??0LocalFileInputSource@xercesc_3_1@@QAE@QBGQAVMemoryManager@1@@Z 12034640 f   LocalFileInputSource.obj
 0001:00033790       ??1LocalFileInputSource@xercesc_3_1@@UAE@XZ 12034790 f   LocalFileInputSource.obj
 0001:000337e0       ??_ELocalFileInputSource@xercesc_3_1@@UAEPAXI@Z 120347e0 f i LocalFileInputSource.obj
 0001:00033890       ??_FInputSource@xercesc_3_1@@QAEXXZ 12034890 f i LocalFileInputSource.obj
 0001:000338a0       ?getFragment@XMLURL@xercesc_3_1@@QBEPBGXZ 120348a0 f i PlatformUtils.obj
 0001:000338a0       ?getLen@CharBuffer@xercesc_3_1@@QBEKXZ 120348a0 f i BinHTTPInputStreamCommon.obj
 0001:000338a0       ?getErrorHandler@DOMConfigurationImpl@xercesc_3_1@@QBEPAVDOMErrorHandler@2@XZ 120348a0 f i DOMConfigurationImpl.obj
 0001:000338a0       ?getElementName@XMLElementDecl@xercesc_3_1@@QAEPAVQName@2@XZ 120348a0 f i XMLDTDDescription.obj
 0001:000338a0       ?getGrammarPool@XSerializeEngine@xercesc_3_1@@QBEPAVXMLGrammarPool@2@XZ 120348a0 f i XSerializeEngine.obj
 0001:000338a0       ?getCurrentReader@ReaderMgr@xercesc_3_1@@QBEPBVXMLReader@2@XZ 120348a0 f i XMLValidator.obj
 0001:000338a0       ?getEncoding@InputSource@xercesc_3_1@@UBEPBGXZ 120348a0 f i LocalFileInputSource.obj
 0001:000338a0       ?getLength@PSVIAttributeList@xercesc_3_1@@QBEKXZ 120348a0 f i PSVIAttributeList.obj
 0001:000338a0       ?getScope@XercesGroupInfo@xercesc_3_1@@QBEIXZ 120348a0 f i XMLGrammarPoolImpl.obj
 0001:000338a0       ?getSystemId@XMLDTDDescriptionImpl@xercesc_3_1@@UBEPBGXZ 120348a0 f i XMLDTDDescriptionImpl.obj
 0001:000338a0       ?getByteStream@DOMLSInputImpl@xercesc_3_1@@UBEPAVInputSource@2@XZ 120348a0 f i DOMImplementationImpl.obj
 0001:000338a0       ?getFilter@DOMTreeWalkerImpl@xercesc_3_1@@UAEPAVDOMNodeFilter@2@XZ 120348a0 f i DOMTreeWalkerImpl.obj
 0001:000338a0       ?getElementName@IdentityConstraint@xercesc_3_1@@QBEPAGXZ 120348a0 f i XMLElementDecl.obj
 0001:000338a0       ?getSystemId@XMLResourceIdentifier@xercesc_3_1@@QBEPBGXZ 120348a0 f i DGXMLScanner.obj
 0001:000338a0       ?getNamespaceItems@XSModel@xercesc_3_1@@QAEPAV?$RefVectorOf@VXSNamespaceItem@xercesc_3_1@@@2@XZ 120348a0 f i XMLGrammarPoolImpl.obj
 0001:000338a0       ?getIdentityConstraint@ValueStore@xercesc_3_1@@QBEPAVIdentityConstraint@2@XZ 120348a0 f i IGXMLScanner2.obj
 0001:000338a0       ?getNameSpaceId@XMLNotationDecl@xercesc_3_1@@QBEIXZ 120348a0 f i XMLDTDDescription.obj
 0001:000338a0       ?getEncoding@DOMLSOutputImpl@xercesc_3_1@@UBEPBGXZ 120348a0 f i DOMImplementationImpl.obj
 0001:000338a0       ?getExpression@XercesXPath@xercesc_3_1@@QAEPAGXZ 120348a0 f i XMLGrammarPoolImpl.obj
 0001:000338a0       ?getIdRefList@ValidationContextImpl@xercesc_3_1@@UBEPAV?$RefHashTableOf@VXMLRefInfo@xercesc_3_1@@UStringHasher@2@@2@XZ 120348a0 f i ValidationContextImpl.obj
 0001:000338a0       ?getIdentityConstraint@IC_Selector@xercesc_3_1@@QBEPAVIdentityConstraint@2@XZ 120348a0 f i XSIDCDefinition.obj
 0001:000338a0       ?getLength@VecAttributesImpl@xercesc_3_1@@UBEKXZ 120348a0 f i VecAttributesImpl.obj
 0001:000338a0       ?getElement@ContentSpecNode@xercesc_3_1@@QAEPAVQName@2@XZ 120348a0 f i XMLGrammarPoolImpl.obj
 0001:000338a0       ?getElementName@XMLElementDecl@xercesc_3_1@@QBEPBVQName@2@XZ 120348a0 f i XMLDTDDescription.obj
 0001:000338a0       ?getCode@XMLException@xercesc_3_1@@QBE?AW4Codes@XMLExcepts@2@XZ 120348a0 f i Base64.obj
 0001:000338a0       ?getEncodingName@XMLTranscoder@xercesc_3_1@@QBEPBGXZ 120348a0 f i PlatformUtils.obj
 0001:000338a0       ?getContextType@XMLSchemaDescriptionImpl@xercesc_3_1@@UBE?AW4ContextType@XMLSchemaDescription@2@XZ 120348a0 f i XMLSchemaDescriptionImpl.obj
 0001:000338a0       ?getRawData@XMLBigInteger@xercesc_3_1@@QBEPAGXZ 120348a0 f i XMLBigDecimal.obj
 0001:000338a0       ?getLength@VecAttrListImpl@xercesc_3_1@@UBEKXZ 120348a0 f i VecAttrListImpl.obj
 0001:000338a0       ?getValidationContext@PSVIItem@xercesc_3_1@@QAEPBGXZ 120348a0 f i PSVIAttribute.obj
 0001:000338a0       ?getFirstChild@DOMParentNode@xercesc_3_1@@QBEPAVDOMNode@2@XZ 120348a0 f i DOMParentNode.obj
 0001:000338a0       ?getScheme@XMLUri@xercesc_3_1@@QBEPBGXZ 120348a0 f i XMLString.obj
 0001:000338a0       ?getFinalDefault@SchemaInfo@xercesc_3_1@@QBEHXZ 120348a0 f i IGXMLScanner.obj
 0001:000338a0       ?getElement@ContentSpecNode@xercesc_3_1@@QBEPBVQName@2@XZ 120348a0 f i XMLGrammarPoolImpl.obj
 0001:000338a0       ?getValueLen@XMLEntityDecl@xercesc_3_1@@QBEKXZ 120348a0 f i XMLDTDDescription.obj
 0001:000338a0       ?getByteStream@Wrapper4InputSource@xercesc_3_1@@UBEPAVInputSource@2@XZ 120348a0 f i Wrapper4InputSource.obj
 0001:000338a0       ?getNodeTest@XercesStep@xercesc_3_1@@QBEPAVXercesNodeTest@2@XZ 120348a0 f i XMLGrammarPoolImpl.obj
 0001:000338a0       ?getRefName@XMLRefInfo@xercesc_3_1@@QBEPBGXZ 120348a0 f i XMLGrammarPoolImpl.obj
 0001:000338a0       ?getCategories@RangeTokenMap@xercesc_3_1@@IBEPAVXMLStringPool@2@XZ 120348a0 f i ASCIIRangeFactory.obj
 0001:000338a0       ?getSeverity@DOMErrorImpl@xercesc_3_1@@UBE?AW4ErrorSeverity@DOMError@2@XZ 120348a0 f i DOMLSParserImpl.obj
 0001:000338a0       ?getName@XercesNodeTest@xercesc_3_1@@QBEPAVQName@2@XZ 120348a0 f i XMLGrammarPoolImpl.obj
 0001:000338a0       ?getNameId@XercesAttGroupInfo@xercesc_3_1@@QBEIXZ 120348a0 f i XMLGrammarPoolImpl.obj
 0001:000338a0       ?getOpType@Op@xercesc_3_1@@QBE?AW4opType@12@XZ 120348a0 f i Op.obj
 0001:000338a0       ?getSchemaLocation@XMLResourceIdentifier@xercesc_3_1@@QBEPBGXZ 120348a0 f i DGXMLScanner.obj
 0001:000338a0       ?getCurrentReader@ReaderMgr@xercesc_3_1@@QAEPAVXMLReader@2@XZ 120348a0 f i XMLValidator.obj
 0001:000338a0       ?getTotalDigit@XMLBigDecimal@xercesc_3_1@@QBEIXZ 120348a0 f i XMLAbstractDoubleFloat.obj
 0001:000338a0       ?getType@XMLAttDef@xercesc_3_1@@QBE?AW4AttTypes@12@XZ 120348a0 f i XMLAttDef.obj
 0001:000338a0       ?getIdentityConstraint@IC_Field@xercesc_3_1@@QBEPAVIdentityConstraint@2@XZ 120348a0 f i XMLElementDecl.obj
 0001:000338a0       ?getMessage@DOMException@xercesc_3_1@@QBEPBGXZ 120348a0 f i AbstractDOMParser.obj
 0001:000338b0       ?makeStream@LocalFileInputSource@xercesc_3_1@@UBEPAVBinInputStream@2@XZ 120348b0 f   LocalFileInputSource.obj
 0001:00033950       ??0MemBufFormatTarget@xercesc_3_1@@QAE@KQAVMemoryManager@1@@Z 12034950 f   MemBufFormatTarget.obj
 0001:000339d0       ??1MemBufFormatTarget@xercesc_3_1@@UAE@XZ 120349d0 f   MemBufFormatTarget.obj
 0001:00033a30       ??_EMemBufFormatTarget@xercesc_3_1@@UAEPAXI@Z 12034a30 f i MemBufFormatTarget.obj
 0001:00033af0       ??_FMemBufFormatTarget@xercesc_3_1@@QAEXXZ 12034af0 f i MemBufFormatTarget.obj
 0001:00033b80       ?ensureCapacity@MemBufFormatTarget@xercesc_3_1@@AAEXK@Z 12034b80 f   MemBufFormatTarget.obj
 0001:00033bd0       ?getRawBuffer@BinMemOutputStream@xercesc_3_1@@QBEPBEXZ 12034bd0 f   BinMemOutputStream.obj
 0001:00033bd0       ?getRawBuffer@MemBufFormatTarget@xercesc_3_1@@QBEPBEXZ 12034bd0 f   MemBufFormatTarget.obj
 0001:00033c10       ?reset@MemBufFormatTarget@xercesc_3_1@@QAEXXZ 12034c10 f   MemBufFormatTarget.obj
 0001:00033c50       ?writeChars@MemBufFormatTarget@xercesc_3_1@@UAEXQBEKQAVXMLFormatter@2@@Z 12034c50 f   MemBufFormatTarget.obj
 0001:00033cc0       ??0MemBufInputSource@xercesc_3_1@@QAE@QBEKQBD_NQAVMemoryManager@1@@Z 12034cc0 f   MemBufInputSource.obj
 0001:00033d40       ??0MemBufInputSource@xercesc_3_1@@QAE@QBEKQBG_NQAVMemoryManager@1@@Z 12034d40 f   MemBufInputSource.obj
 0001:00033dc0       ??1MemBufInputSource@xercesc_3_1@@UAE@XZ 12034dc0 f   MemBufInputSource.obj
 0001:00033e30       ??_EMemBufInputSource@xercesc_3_1@@UAEPAXI@Z 12034e30 f i MemBufInputSource.obj
 0001:00033ef0       ?makeStream@MemBufInputSource@xercesc_3_1@@UBEPAVBinInputStream@2@XZ 12034ef0 f   MemBufInputSource.obj
 0001:00033f90       ?resetMemBufInputSource@MemBufInputSource@xercesc_3_1@@QAEXQBEK@Z 12034f90 f   MemBufInputSource.obj
 0001:00033fb0       ?setCopyBufToStream@MemBufInputSource@xercesc_3_1@@QAEX_N@Z 12034fb0 f i MemBufInputSource.obj
 0001:00033fb0       ?setIgnoredCachedDTD@XMLScanner@xercesc_3_1@@QAEX_N@Z 12034fb0 f i XMLValidator.obj
 0001:00033fc0       ??0StdInInputSource@xercesc_3_1@@QAE@QAVMemoryManager@1@@Z 12034fc0 f i StdInInputSource.obj
 0001:00034020       ??1StdInInputSource@xercesc_3_1@@UAE@XZ 12035020 f i StdInInputSource.obj
 0001:00034070       ??_EStdInInputSource@xercesc_3_1@@UAEPAXI@Z 12035070 f i StdInInputSource.obj
 0001:00034120       ??_FStdInInputSource@xercesc_3_1@@QAEXXZ 12035120 f i StdInInputSource.obj
 0001:00034180       ?makeStream@StdInInputSource@xercesc_3_1@@UBEPAVBinInputStream@2@XZ 12035180 f   StdInInputSource.obj
 0001:00034230       ??0StdOutFormatTarget@xercesc_3_1@@QAE@XZ 12035230 f   StdOutFormatTarget.obj
 0001:00034290       ??1StdOutFormatTarget@xercesc_3_1@@UAE@XZ 12035290 f   StdOutFormatTarget.obj
 0001:00034300       ??_EStdOutFormatTarget@xercesc_3_1@@UAEPAXI@Z 12035300 f i StdOutFormatTarget.obj
 0001:000343c0       ?flush@StdOutFormatTarget@xercesc_3_1@@UAEXXZ 120353c0 f   StdOutFormatTarget.obj
 0001:000343e0       ?writeChars@StdOutFormatTarget@xercesc_3_1@@UAEXQBEKQAVXMLFormatter@2@@Z 120353e0 f   StdOutFormatTarget.obj
 0001:00034490       ??0URLInputSource@xercesc_3_1@@QAE@ABVXMLURL@1@QAVMemoryManager@1@@Z 12035490 f   URLInputSource.obj
 0001:00034520       ??0URLInputSource@xercesc_3_1@@QAE@QBG00QAVMemoryManager@1@@Z 12035520 f   URLInputSource.obj
 0001:000345b0       ??0URLInputSource@xercesc_3_1@@QAE@QBG0QAVMemoryManager@1@@Z 120355b0 f   URLInputSource.obj
 0001:00034640       ??0URLInputSource@xercesc_3_1@@QAE@QBGQBD1QAVMemoryManager@1@@Z 12035640 f   URLInputSource.obj
 0001:000346d0       ??0URLInputSource@xercesc_3_1@@QAE@QBGQBDQAVMemoryManager@1@@Z 120356d0 f   URLInputSource.obj
 0001:00034760       ??1URLInputSource@xercesc_3_1@@UAE@XZ 12035760 f   URLInputSource.obj
 0001:000347c0       ??_EURLInputSource@xercesc_3_1@@UAEPAXI@Z 120357c0 f i URLInputSource.obj
 0001:00034880       ?makeStream@URLInputSource@xercesc_3_1@@UBEPAVBinInputStream@2@XZ 12035880 f   URLInputSource.obj
 0001:00034890       ?urlSrc@URLInputSource@xercesc_3_1@@QBEABVXMLURL@2@XZ 12035890 f i URLInputSource.obj
 0001:000348a0       ??0DOMLSInput@xercesc_3_1@@IAE@XZ 120358a0 f i Wrapper4DOMLSInput.obj
 0001:000348b0       ??0DOMLSResourceResolver@xercesc_3_1@@IAE@XZ 120358b0 f i Wrapper4DOMLSInput.obj
 0001:000348c0       ??0Wrapper4DOMLSInput@xercesc_3_1@@QAE@QAVDOMLSInput@1@PAVDOMLSResourceResolver@1@_NQAVMemoryManager@1@@Z 120358c0 f   Wrapper4DOMLSInput.obj
 0001:00034970       ??1DOMLSInput@xercesc_3_1@@UAE@XZ 12035970 f i Wrapper4DOMLSInput.obj
 0001:00034980       ??1DOMLSResourceResolver@xercesc_3_1@@UAE@XZ 12035980 f i Wrapper4DOMLSInput.obj
 0001:00034990       ??1Wrapper4DOMLSInput@xercesc_3_1@@UAE@XZ 12035990 f   Wrapper4DOMLSInput.obj
 0001:00034a00       ??_EDOMLSInput@xercesc_3_1@@UAEPAXI@Z 12035a00 f i Wrapper4DOMLSInput.obj
 0001:00034a60       ??_EDOMLSResourceResolver@xercesc_3_1@@UAEPAXI@Z 12035a60 f i Wrapper4DOMLSInput.obj
 0001:00034ac0       ??_EWrapper4DOMLSInput@xercesc_3_1@@UAEPAXI@Z 12035ac0 f i Wrapper4DOMLSInput.obj
 0001:00034b80       ?getEncoding@Wrapper4DOMLSInput@xercesc_3_1@@UBEPBGXZ 12035b80 f   Wrapper4DOMLSInput.obj
 0001:00034ba0       ?getIssueFatalErrorIfNotFound@Wrapper4DOMLSInput@xercesc_3_1@@UBE_NXZ 12035ba0 f   Wrapper4DOMLSInput.obj
 0001:00034bb0       ?getPublicId@Wrapper4DOMLSInput@xercesc_3_1@@UBEPBGXZ 12035bb0 f   Wrapper4DOMLSInput.obj
 0001:00034bc0       ?getSystemId@Wrapper4DOMLSInput@xercesc_3_1@@UBEPBGXZ 12035bc0 f   Wrapper4DOMLSInput.obj
 0001:00034bd0       ?makeStream@Wrapper4DOMLSInput@xercesc_3_1@@UBEPAVBinInputStream@2@XZ 12035bd0 f   Wrapper4DOMLSInput.obj
 0001:00034df0       ?setEncoding@Wrapper4DOMLSInput@xercesc_3_1@@UAEXQBG@Z 12035df0 f   Wrapper4DOMLSInput.obj
 0001:00034e00       ?setIssueFatalErrorIfNotFound@Wrapper4DOMLSInput@xercesc_3_1@@UAEX_N@Z 12035e00 f   Wrapper4DOMLSInput.obj
 0001:00034e10       ?setPublicId@Wrapper4DOMLSInput@xercesc_3_1@@UAEXQBG@Z 12035e10 f   Wrapper4DOMLSInput.obj
 0001:00034e20       ?setSystemId@Wrapper4DOMLSInput@xercesc_3_1@@UAEXQBG@Z 12035e20 f   Wrapper4DOMLSInput.obj
 0001:00034e30       ??0Wrapper4InputSource@xercesc_3_1@@QAE@QAVInputSource@1@_NQAVMemoryManager@1@@Z 12035e30 f   Wrapper4InputSource.obj
 0001:00034ed0       ??1Wrapper4InputSource@xercesc_3_1@@UAE@XZ 12035ed0 f   Wrapper4InputSource.obj
 0001:00034f40       ??_EWrapper4InputSource@xercesc_3_1@@UAEPAXI@Z 12035f40 f i Wrapper4InputSource.obj
 0001:00035000       ?getEncoding@Wrapper4InputSource@xercesc_3_1@@UBEPBGXZ 12036000 f   Wrapper4InputSource.obj
 0001:00035010       ?getIssueFatalErrorIfNotFound@Wrapper4InputSource@xercesc_3_1@@UBE_NXZ 12036010 f   Wrapper4InputSource.obj
 0001:00035020       ?getPublicId@Wrapper4InputSource@xercesc_3_1@@UBEPBGXZ 12036020 f   Wrapper4InputSource.obj
 0001:00035030       ?getSystemId@Wrapper4InputSource@xercesc_3_1@@UBEPBGXZ 12036030 f   Wrapper4InputSource.obj
 0001:00035040       ?setEncoding@Wrapper4InputSource@xercesc_3_1@@UAEXQBG@Z 12036040 f   Wrapper4InputSource.obj
 0001:00035050       ?setIssueFatalErrorIfNotFound@Wrapper4InputSource@xercesc_3_1@@UAEX_N@Z 12036050 f   Wrapper4InputSource.obj
 0001:00035060       ?setPublicId@Wrapper4InputSource@xercesc_3_1@@UAEXQBG@Z 12036060 f   Wrapper4InputSource.obj
 0001:00035070       ?setSystemId@Wrapper4InputSource@xercesc_3_1@@UAEXQBG@Z 12036070 f   Wrapper4InputSource.obj
 0001:00035080       ??0XMLAttDef@xercesc_3_1@@IAE@QBGW4AttTypes@01@W4DefAttTypes@01@0QAVMemoryManager@1@@Z 12036080 f   XMLAttDef.obj
 0001:00035180       ??0XMLAttDef@xercesc_3_1@@IAE@W4AttTypes@01@W4DefAttTypes@01@QAVMemoryManager@1@@Z 12036180 f   XMLAttDef.obj
 0001:00035210       ??1?$JanitorMemFunCall@VDOMXPathExpressionImpl@xercesc_3_1@@@xercesc_3_1@@QAE@XZ 12036210 f i DOMXPathExpressionImpl.obj
 0001:00035210       ??1?$JanitorMemFunCall@VWFXMLScanner@xercesc_3_1@@@xercesc_3_1@@QAE@XZ 12036210 f i WFXMLScanner.obj
 0001:00035210       ??1?$JanitorMemFunCall@VAbstractDOMParser@xercesc_3_1@@@xercesc_3_1@@QAE@XZ 12036210 f i AbstractDOMParser.obj
 0001:00035210       ??1?$JanitorMemFunCall@VXMLUri@xercesc_3_1@@@xercesc_3_1@@QAE@XZ 12036210 f i XMLUri.obj
 0001:00035210       ??1?$JanitorMemFunCall@VXMLAttDef@xercesc_3_1@@@xercesc_3_1@@QAE@XZ 12036210 f i XMLAttDef.obj
 0001:00035210       ??1?$JanitorMemFunCall@VSchemaGrammar@xercesc_3_1@@@xercesc_3_1@@QAE@XZ 12036210 f i SchemaGrammar.obj
 0001:00035210       ??1?$JanitorMemFunCall@VIGXMLScanner@xercesc_3_1@@@xercesc_3_1@@QAE@XZ 12036210 f i IGXMLScanner.obj
 0001:00035210       ??1?$JanitorMemFunCall@VIdentityConstraint@xercesc_3_1@@@xercesc_3_1@@QAE@XZ 12036210 f i IdentityConstraint.obj
 0001:00035210       ??1?$JanitorMemFunCall@VXMLScanner@xercesc_3_1@@@xercesc_3_1@@QAE@XZ 12036210 f i XMLScanner.obj
 0001:00035210       ??1?$JanitorMemFunCall@VDOMXPathResultImpl@xercesc_3_1@@@xercesc_3_1@@QAE@XZ 12036210 f i DOMXPathExpressionImpl.obj
 0001:00035210       ??1?$JanitorMemFunCall@VUnionDatatypeValidator@xercesc_3_1@@@xercesc_3_1@@QAE@XZ 12036210 f i UnionDatatypeValidator.obj
 0001:00035210       ??1?$JanitorMemFunCall@VXMLNotationDecl@xercesc_3_1@@@xercesc_3_1@@QAE@XZ 12036210 f i XMLNotationDecl.obj
 0001:00035210       ??1?$JanitorMemFunCall@VSAXParser@xercesc_3_1@@@xercesc_3_1@@QAE@XZ 12036210 f i SAXParser.obj
 0001:00035210       ??1?$JanitorMemFunCall@VXPathMatcher@xercesc_3_1@@@xercesc_3_1@@QAE@XZ 12036210 f i XPathMatcher.obj
 0001:00035210       ??1?$JanitorMemFunCall@VQName@xercesc_3_1@@@xercesc_3_1@@QAE@XZ 12036210 f i QName.obj
 0001:00035210       ??1?$JanitorMemFunCall@VRegularExpression@xercesc_3_1@@@xercesc_3_1@@QAE@XZ 12036210 f i RegularExpression.obj
 0001:00035210       ??1?$JanitorMemFunCall@VSAX2XMLReaderImpl@xercesc_3_1@@@xercesc_3_1@@QAE@XZ 12036210 f i SAX2XMLReaderImpl.obj
 0001:00035210       ??1?$JanitorMemFunCall@VXercesXPath@xercesc_3_1@@@xercesc_3_1@@QAE@XZ 12036210 f i XercesXPath.obj
 0001:00035210       ??1?$JanitorMemFunCall@VXMLEntityDecl@xercesc_3_1@@@xercesc_3_1@@QAE@XZ 12036210 f i XMLEntityDecl.obj
 0001:00035210       ??1?$JanitorMemFunCall@VXMLURL@xercesc_3_1@@@xercesc_3_1@@QAE@XZ 12036210 f i XMLURL.obj
 0001:00035210       ??1?$JanitorMemFunCall@VDOMLSParserImpl@xercesc_3_1@@@xercesc_3_1@@QAE@XZ 12036210 f i DOMLSParserImpl.obj
 0001:00035210       ??1?$JanitorMemFunCall@VXercesDOMParser@xercesc_3_1@@@xercesc_3_1@@QAE@XZ 12036210 f i XercesDOMParser.obj
 0001:00035210       ??1?$JanitorMemFunCall@VSGXMLScanner@xercesc_3_1@@@xercesc_3_1@@QAE@XZ 12036210 f i SGXMLScanner.obj
 0001:00035210       ??1?$JanitorMemFunCall@VIdentityConstraintHandler@xercesc_3_1@@@xercesc_3_1@@QAE@XZ 12036210 f i IdentityConstraintHandler.obj
 0001:00035210       ??1?$JanitorMemFunCall@VXMLGrammarPoolImpl@xercesc_3_1@@@xercesc_3_1@@QAE@XZ 12036210 f i XMLGrammarPoolImpl.obj
 0001:00035210       ??1?$JanitorMemFunCall@VXMLBigDecimal@xercesc_3_1@@@xercesc_3_1@@QAE@XZ 12036210 f i XMLBigDecimal.obj
 0001:00035210       ??1?$JanitorMemFunCall@VReaderMgr@xercesc_3_1@@@xercesc_3_1@@QAE@XZ 12036210 f i DGXMLScanner.obj
 0001:00035210       ??1?$JanitorMemFunCall@VDGXMLScanner@xercesc_3_1@@@xercesc_3_1@@QAE@XZ 12036210 f i DGXMLScanner.obj
 0001:00035230       ??1XMLAttDef@xercesc_3_1@@UAE@XZ 12036230 f   XMLAttDef.obj
 0001:000352b0       ??_EXMLAttDef@xercesc_3_1@@UAEPAXI@Z 120362b0 f i XMLAttDef.obj
 0001:00035380       ??_FXMLAttDef@xercesc_3_1@@QAEXXZ 12036380 f i XMLAttDef.obj
 0001:00035410       ?cleanUp@XMLAttDef@xercesc_3_1@@AAEXXZ 12036410 f   XMLAttDef.obj
 0001:00035440       ?getAttTypeString@XMLAttDef@xercesc_3_1@@SAPBGW4AttTypes@12@QAVMemoryManager@2@@Z 12036440 f   XMLAttDef.obj
 0001:000354d0       ?getDefAttTypeString@XMLAttDef@xercesc_3_1@@SAPBGW4DefAttTypes@12@QAVMemoryManager@2@@Z 120364d0 f   XMLAttDef.obj
 0001:00035560       ?getProtoType@XMLAttDef@xercesc_3_1@@UBEPAVXProtoType@2@XZ 12036560 f   XMLAttDef.obj
 0001:00035570       ?getValidationConstraintFatal@XMLScanner@xercesc_3_1@@QBE_NXZ 12036570 f i XMLValidator.obj
 0001:00035570       ?isExternal@XMLAttDef@xercesc_3_1@@QBE_NXZ 12036570 f i XMLAttDef.obj
 0001:00035580       ?isSerializable@NameDatatypeValidator@xercesc_3_1@@UBE_NXZ 12036580 f   NameDatatypeValidator.obj
 0001:00035580       ?isSerializable@XMLDTDDescription@xercesc_3_1@@UBE_NXZ 12036580 f   XMLDTDDescription.obj
 0001:00035580       ?isSerializable@Base64BinaryDatatypeValidator@xercesc_3_1@@UBE_NXZ 12036580 f   Base64BinaryDatatypeValidator.obj
 0001:00035580       ?isSerializable@XMLFloat@xercesc_3_1@@UBE_NXZ 12036580 f   XMLFloat.obj
 0001:00035580       ?isSerializable@DurationDatatypeValidator@xercesc_3_1@@UBE_NXZ 12036580 f   DurationDatatypeValidator.obj
 0001:00035580       ?isSerializable@IC_Key@xercesc_3_1@@UBE_NXZ 12036580 f   IC_Key.obj
 0001:00035580       ?isSerializable@XercesGroupInfo@xercesc_3_1@@UBE_NXZ 12036580 f   XercesGroupInfo.obj
 0001:00035580       ?isSerializable@DatatypeValidatorFactory@xercesc_3_1@@UBE_NXZ 12036580 f   DatatypeValidatorFactory.obj
 0001:00035580       ?isSerializable@IC_Unique@xercesc_3_1@@UBE_NXZ 12036580 f   IC_Unique.obj
 0001:00035580       ?isSerializable@QNameDatatypeValidator@xercesc_3_1@@UBE_NXZ 12036580 f   QNameDatatypeValidator.obj
 0001:00035580       ?isSerializable@AnyURIDatatypeValidator@xercesc_3_1@@UBE_NXZ 12036580 f   AnyURIDatatypeValidator.obj
 0001:00035580       ?requiresNamespaces@SchemaValidator@xercesc_3_1@@UBE_NXZ 12036580 f   SchemaValidator.obj
 0001:00035580       ?isSerializable@KVStringPair@xercesc_3_1@@UBE_NXZ 12036580 f   KVStringPair.obj
 0001:00035580       ?isRepeatableLeaf@CMRepeatingLeaf@xercesc_3_1@@UBE_NXZ 12036580 f   DFAContentModel.obj
 0001:00035580       ?supportsSrcOfs@Win32TransService@xercesc_3_1@@UBE_NXZ 12036580 f   Win32TransService.obj
 0001:00035580       ?isSerializable@YearMonthDatatypeValidator@xercesc_3_1@@UBE_NXZ 12036580 f   YearMonthDatatypeValidator.obj
 0001:00035580       ?isSerializable@XMLSchemaDescriptionImpl@xercesc_3_1@@UBE_NXZ 12036580 f   XMLSchemaDescriptionImpl.obj
 0001:00035580       ?isSerializable@XMLDouble@xercesc_3_1@@UBE_NXZ 12036580 f   XMLDouble.obj
 0001:00035580       ?isSerializable@ContentSpecNode@xercesc_3_1@@UBE_NXZ 12036580 f   ContentSpecNode.obj
 0001:00035580       ?isSerializable@AbstractStringValidator@xercesc_3_1@@UBE_NXZ 12036580 f   AbstractStringValidator.obj
 0001:00035580       ?isSerializable@IC_Field@xercesc_3_1@@UBE_NXZ 12036580 f   IC_Field.obj
 0001:00035580       ?isSerializable@NCNameDatatypeValidator@xercesc_3_1@@UBE_NXZ 12036580 f   NCNameDatatypeValidator.obj
 0001:00035580       ?isSerializable@XercesNodeTest@xercesc_3_1@@UBE_NXZ 12036580 f   XercesXPath.obj
 0001:00035580       ?isSerializable@XSAnnotation@xercesc_3_1@@UBE_NXZ 12036580 f   XSAnnotation.obj
 0001:00035580       ?isSerializable@XMLSchemaDescription@xercesc_3_1@@UBE_NXZ 12036580 f   XMLSchemaDescription.obj
 0001:00035580       ?isSerializable@IdentityConstraint@xercesc_3_1@@UBE_NXZ 12036580 f   IdentityConstraint.obj
 0001:00035580       ?isSerializable@UnionDatatypeValidator@xercesc_3_1@@UBE_NXZ 12036580 f   UnionDatatypeValidator.obj
 0001:00035580       ?isSerializable@SchemaAttDefList@xercesc_3_1@@UBE_NXZ 12036580 f   SchemaAttDefList.obj
 0001:00035580       ?isSerializable@XMLNotationDecl@xercesc_3_1@@UBE_NXZ 12036580 f   XMLNotationDecl.obj
 0001:00035580       ?isSerializable@XMLStringPool@xercesc_3_1@@UBE_NXZ 12036580 f   StringPool.obj
 0001:00035580       ?isSerializable@DateTimeDatatypeValidator@xercesc_3_1@@UBE_NXZ 12036580 f   DateTimeDatatypeValidator.obj
 0001:00035580       ?isSerializable@SchemaElementDecl@xercesc_3_1@@UBE_NXZ 12036580 f   SchemaElementDecl.obj
 0001:00035580       ?isSerializable@XMLRefInfo@xercesc_3_1@@UBE_NXZ 12036580 f   XMLRefInfo.obj
 0001:00035580       ?isSerializable@IC_KeyRef@xercesc_3_1@@UBE_NXZ 12036580 f   IC_KeyRef.obj
 0001:00035580       ?isSerializable@BooleanDatatypeValidator@xercesc_3_1@@UBE_NXZ 12036580 f   BooleanDatatypeValidator.obj
 0001:00035580       ?isSerializable@DTDAttDefList@xercesc_3_1@@UBE_NXZ 12036580 f   DTDAttDefList.obj
 0001:00035580       ?isSerializable@QName@xercesc_3_1@@UBE_NXZ 12036580 f   QName.obj
 0001:00035580       ?isSerializable@NOTATIONDatatypeValidator@xercesc_3_1@@UBE_NXZ 12036580 f   NOTATIONDatatypeValidator.obj
 0001:00035580       ?isSerializable@TimeDatatypeValidator@xercesc_3_1@@UBE_NXZ 12036580 f   TimeDatatypeValidator.obj
 0001:00035580       ?isSerializable@HexBinaryDatatypeValidator@xercesc_3_1@@UBE_NXZ 12036580 f   HexBinaryDatatypeValidator.obj
 0001:00035580       ?isSerializable@IDDatatypeValidator@xercesc_3_1@@UBE_NXZ 12036580 f   IDDatatypeValidator.obj
 0001:00035580       ?isSerializable@StringDatatypeValidator@xercesc_3_1@@UBE_NXZ 12036580 f   StringDatatypeValidator.obj
 0001:00035580       ?isSerializable@SchemaAttDef@xercesc_3_1@@UBE_NXZ 12036580 f   SchemaAttDef.obj
 0001:00035580       ?isSerializable@IC_Selector@xercesc_3_1@@UBE_NXZ 12036580 f   IC_Selector.obj
 0001:00035580       ?isAtomic@DatatypeValidator@xercesc_3_1@@UBE_NXZ 12036580 f   XMLAttr.obj
 0001:00035580       ?isSerializable@XMLEntityDecl@xercesc_3_1@@UBE_NXZ 12036580 f   XMLEntityDecl.obj
 0001:00035580       ?handlesSchema@SchemaValidator@xercesc_3_1@@UBE_NXZ 12036580 f   IGXMLScanner.obj
 0001:00035580       ?isSerializable@XMLNumber@xercesc_3_1@@UBE_NXZ 12036580 f   XMLNumber.obj
 0001:00035580       ?isSerializable@DecimalDatatypeValidator@xercesc_3_1@@UBE_NXZ 12036580 f   DecimalDatatypeValidator.obj
 0001:00035580       ?isSerializable@AnySimpleTypeDatatypeValidator@xercesc_3_1@@UBE_NXZ 12036580 f   AnySimpleTypeDatatypeValidator.obj
 0001:00035580       ?isSerializable@DayDatatypeValidator@xercesc_3_1@@UBE_NXZ 12036580 f   DayDatatypeValidator.obj
 0001:00035580       ?isSerializable@XercesXPath@xercesc_3_1@@UBE_NXZ 12036580 f   XercesXPath.obj
 0001:00035580       ?handlesDTD@DTDValidator@xercesc_3_1@@UBE_NXZ 12036580 f   DGXMLScanner.obj
 0001:00035580       ?isSerializable@DateDatatypeValidator@xercesc_3_1@@UBE_NXZ 12036580 f   DateDatatypeValidator.obj
 0001:00035580       ?isSerializable@XMLGrammarDescription@xercesc_3_1@@UBE_NXZ 12036580 f   XMLGrammarDescription.obj
 0001:00035580       ?isSerializable@SchemaGrammar@xercesc_3_1@@UBE_NXZ 12036580 f   SchemaGrammar.obj
 0001:00035580       ?isSerializable@MonthDayDatatypeValidator@xercesc_3_1@@UBE_NXZ 12036580 f   MonthDayDatatypeValidator.obj
 0001:00035580       ?isSerializable@ComplexTypeInfo@xercesc_3_1@@UBE_NXZ 12036580 f   ComplexTypeInfo.obj
 0001:00035580       ?isSerializable@DTDEntityDecl@xercesc_3_1@@UBE_NXZ 12036580 f   DTDEntityDecl.obj
 0001:00035580       ?isSerializable@XercesStep@xercesc_3_1@@UBE_NXZ 12036580 f   XercesXPath.obj
 0001:00035580       ?isSerializable@YearDatatypeValidator@xercesc_3_1@@UBE_NXZ 12036580 f   YearDatatypeValidator.obj
 0001:00035580       ?isSerializable@DTDGrammar@xercesc_3_1@@UBE_NXZ 12036580 f   DTDGrammar.obj
 0001:00035580       ?isSerializable@Grammar@xercesc_3_1@@UBE_NXZ 12036580 f   Grammar.obj
 0001:00035580       ?isSerializable@FloatDatatypeValidator@xercesc_3_1@@UBE_NXZ 12036580 f   FloatDatatypeValidator.obj
 0001:00035580       ?isSerializable@IDREFDatatypeValidator@xercesc_3_1@@UBE_NXZ 12036580 f   IDREFDatatypeValidator.obj
 0001:00035580       ?isSerializable@DTDAttDef@xercesc_3_1@@UBE_NXZ 12036580 f   DTDAttDef.obj
 0001:00035580       ?isSerializable@XMLAttDef@xercesc_3_1@@UBE_NXZ 12036580 f   XMLAttDef.obj
 0001:00035580       ?isSerializable@XMLAttDefList@xercesc_3_1@@UBE_NXZ 12036580 f   XMLAttDefList.obj
 0001:00035580       ?isSerializable@XercesAttGroupInfo@xercesc_3_1@@UBE_NXZ 12036580 f   XercesAttGroupInfo.obj
 0001:00035580       ?isSerializable@XMLDateTime@xercesc_3_1@@UBE_NXZ 12036580 f   XMLDateTime.obj
 0001:00035580       ?isSerializable@ListDatatypeValidator@xercesc_3_1@@UBE_NXZ 12036580 f   ListDatatypeValidator.obj
 0001:00035580       ?isSerializable@XMLBigDecimal@xercesc_3_1@@UBE_NXZ 12036580 f   XMLBigDecimal.obj
 0001:00035580       ?isSerializable@XMLElementDecl@xercesc_3_1@@UBE_NXZ 12036580 f   XMLElementDecl.obj
 0001:00035580       ?isSerializable@XMLDTDDescriptionImpl@xercesc_3_1@@UBE_NXZ 12036580 f   XMLDTDDescriptionImpl.obj
 0001:00035580       ?isSerializable@AbstractNumericFacetValidator@xercesc_3_1@@UBE_NXZ 12036580 f   AbstractNumericFacetValidator.obj
 0001:00035580       ?isSerializable@DTDElementDecl@xercesc_3_1@@UBE_NXZ 12036580 f   DTDElementDecl.obj
 0001:00035580       ?isSerializable@MonthDatatypeValidator@xercesc_3_1@@UBE_NXZ 12036580 f   MonthDatatypeValidator.obj
 0001:00035580       ?isSerializable@AbstractNumericValidator@xercesc_3_1@@UBE_NXZ 12036580 f   AbstractNumericValidator.obj
 0001:00035580       ?isSerializable@DatatypeValidator@xercesc_3_1@@UBE_NXZ 12036580 f   DatatypeValidator.obj
 0001:00035580       ?isSerializable@XercesLocationPath@xercesc_3_1@@UBE_NXZ 12036580 f   XercesXPath.obj
 0001:00035580       ?isSerializable@XMLAbstractDoubleFloat@xercesc_3_1@@UBE_NXZ 12036580 f   XMLAbstractDoubleFloat.obj
 0001:00035580       ?isSerializable@DoubleDatatypeValidator@xercesc_3_1@@UBE_NXZ 12036580 f   DoubleDatatypeValidator.obj
 0001:00035580       ?isSerializable@XMLUri@xercesc_3_1@@UBE_NXZ 12036580 f   XMLUri.obj
 0001:00035580       ?isSerializable@ENTITYDatatypeValidator@xercesc_3_1@@UBE_NXZ 12036580 f   ENTITYDatatypeValidator.obj
 0001:00035580       ?isSerializable@DateTimeValidator@xercesc_3_1@@UBE_NXZ 12036580 f   DateTimeValidator.obj
 0001:00035590       ?serialize@XMLAttDef@xercesc_3_1@@UAEXAAVXSerializeEngine@2@@Z 12036590 f   XMLAttDef.obj
 0001:00035680       ?setEnumeration@XMLAttDef@xercesc_3_1@@QAEXQBG@Z 12036680 f i XMLAttDef.obj
 0001:000356f0       ?toCheckIdRefList@ValidationContextImpl@xercesc_3_1@@UAEX_N@Z 120366f0 f i ValidationContextImpl.obj
 0001:000356f0       ?setExternalAttDeclaration@XMLAttDef@xercesc_3_1@@QAEX_N@Z 120366f0 f i XMLAttDef.obj
 0001:000356f0       ?setValidationConstraintFatal@XMLScanner@xercesc_3_1@@QAEX_N@Z 120366f0 f i XMLValidator.obj
 0001:00035700       ?setValue@XMLAttDef@xercesc_3_1@@QAEXQBG@Z 12036700 f i XMLAttDef.obj
 0001:00035770       ??0XMLAttDefList@xercesc_3_1@@IAE@QAVMemoryManager@1@@Z 12036770 f i XMLAttDefList.obj
 0001:000357d0       ??1XMLAttDefList@xercesc_3_1@@UAE@XZ 120367d0 f i XMLAttDefList.obj
 0001:00035820       ??_EXMLAttDefList@xercesc_3_1@@UAEPAXI@Z 12036820 f i XMLAttDefList.obj
 0001:000358d0       ??_FXMLAttDefList@xercesc_3_1@@QAEXXZ 120368d0 f i XMLAttDefList.obj
 0001:00035930       ?getProtoType@XMLAttDefList@xercesc_3_1@@UBEPAVXProtoType@2@XZ 12036930 f   XMLAttDefList.obj
 0001:00035940       ??0ValidationContext@xercesc_3_1@@IAE@QAVMemoryManager@1@@Z 12036940 f i XMLAttr.obj
 0001:00035960       ??0XMLAttr@xercesc_3_1@@QAE@IQBG00W4AttTypes@XMLAttDef@1@_NQAVMemoryManager@1@PAVDatatypeValidator@1@2@Z 12036960 f   XMLAttr.obj
 0001:00035a60       ??0XMLAttr@xercesc_3_1@@QAE@IQBG0W4AttTypes@XMLAttDef@1@_NQAVMemoryManager@1@PAVDatatypeValidator@1@2@Z 12036a60 f   XMLAttr.obj
 0001:00035b50       ??0XMLAttr@xercesc_3_1@@QAE@QAVMemoryManager@1@@Z 12036b50 f   XMLAttr.obj
 0001:00035bf0       ??1ValidationContext@xercesc_3_1@@UAE@XZ 12036bf0 f i XMLAttr.obj
 0001:00035c00       ?cleanUp@XMLAttr@xercesc_3_1@@AAEXXZ 12036c00 f i XMLAttr.obj
 0001:00035c00       ??1XMLAttr@xercesc_3_1@@QAE@XZ 12036c00 f i XMLAttr.obj
 0001:00035c20       ??_EValidationContext@xercesc_3_1@@UAEPAXI@Z 12036c20 f i XMLAttr.obj
 0001:00035c80       ??_FValidationContext@xercesc_3_1@@QAEXXZ 12036c80 f i XMLAttr.obj
 0001:00035c90       ??_FXMLAttr@xercesc_3_1@@QAEXXZ 12036c90 f i XMLAttr.obj
 0001:00035ca0       ?compare@AnySimpleTypeDatatypeValidator@xercesc_3_1@@UAEHQBG0QAVMemoryManager@2@@Z 12036ca0 f i AnySimpleTypeDatatypeValidator.obj
 0001:00035ca0       ?compare@DatatypeValidator@xercesc_3_1@@UAEHQBG0QAVMemoryManager@2@@Z 12036ca0 f i XMLAttr.obj
 0001:00035ca0       ?compare@AbstractStringValidator@xercesc_3_1@@UAEHQBG0QAVMemoryManager@2@@Z 12036ca0 f i AbstractStringValidator.obj
 0001:00035cc0       ?getFinal@XSTypeDefinition@xercesc_3_1@@QBEFXZ 12036cc0 f i XMLAttr.obj
 0001:00035cd0       ?getUsed@XMLRefInfo@xercesc_3_1@@QBE_NXZ 12036cd0 f i XMLGrammarPoolImpl.obj
 0001:00035cd0       ?getFinite@DatatypeValidator@xercesc_3_1@@QBE_NXZ 12036cd0 f i XMLAttr.obj
 0001:00035cd0       ?getAbstract@ComplexTypeInfo@xercesc_3_1@@QBE_NXZ 12036cd0 f i XMLElementDecl.obj
 0001:00035ce0       ?getItemType@XSSimpleTypeDefinition@xercesc_3_1@@QAEPAV12@XZ 12036ce0 f i XMLAttr.obj
 0001:00035cf0       ?getName@XMLAttr@xercesc_3_1@@QBEPBGXZ 12036cf0 f i XMLAttr.obj
 0001:00035d00       ?getNumeric@DatatypeValidator@xercesc_3_1@@QBE_NXZ 12036d00 f i XMLAttr.obj
 0001:00035d00       ?containsAttWithTypeId@ComplexTypeInfo@xercesc_3_1@@QBE_NXZ 12036d00 f i XMLElementDecl.obj
 0001:00035d10       ?getPrefix@XMLAttr@xercesc_3_1@@QBEPBGXZ 12036d10 f i XMLAttr.obj
 0001:00035d20       ?getPrimitiveType@XSSimpleTypeDefinition@xercesc_3_1@@QAEPAV12@XZ 12036d20 f i XMLAttr.obj
 0001:00035d30       ?getQName@XMLAttr@xercesc_3_1@@QBEPBGXZ 12036d30 f   XMLAttr.obj
 0001:00035d40       ?getSpecified@XMLAttr@xercesc_3_1@@QBE_NXZ 12036d40 f i XMLAttr.obj
 0001:00035d50       ?getURIId@XMLAttr@xercesc_3_1@@QBEIXZ 12036d50 f i XMLAttr.obj
 0001:00035d60       ?getWSFacet@DatatypeValidator@xercesc_3_1@@QBEFXZ 12036d60 f i XMLAttr.obj
 0001:00035d70       ?isSubstitutableBy@DatatypeValidator@xercesc_3_1@@UAE_NQBV12@@Z 12036d70 f i XMLAttr.obj
 0001:00035da0       ?set@XMLAttr@xercesc_3_1@@QAEXIQBG00W4AttTypes@XMLAttDef@2@PAVDatatypeValidator@2@_N@Z 12036da0 f i XMLAttr.obj
 0001:00035dd0       ?set@XMLAttr@xercesc_3_1@@QAEXIQBG0W4AttTypes@XMLAttDef@2@PAVDatatypeValidator@2@_N@Z 12036dd0 f i XMLAttr.obj
 0001:00035e00       ?setAnonymous@DatatypeValidator@xercesc_3_1@@QAEXXZ 12036e00 f i XMLAttr.obj
 0001:00035e00       ?setAnonymous@ComplexTypeInfo@xercesc_3_1@@QAEXXZ 12036e00 f i XMLElementDecl.obj
 0001:00035e10       ?setBounded@DatatypeValidator@xercesc_3_1@@IAEX_N@Z 12036e10 f i XMLAttr.obj
 0001:00035e10       ?setAdoptContentSpec@ComplexTypeInfo@xercesc_3_1@@QAEX_N@Z 12036e10 f i XMLElementDecl.obj
 0001:00035e20       ?setFacetsDefined@DatatypeValidator@xercesc_3_1@@IAEXH@Z 12036e20 f i XMLAttr.obj
 0001:00035e30       ?setFixed@DatatypeValidator@xercesc_3_1@@IAEXH@Z 12036e30 f i XMLAttr.obj
 0001:00035e40       ?setName@XMLAttr@xercesc_3_1@@QAEXIQBG0@Z 12036e40 f   XMLAttr.obj
 0001:00035e60       ?setPattern@DatatypeValidator@xercesc_3_1@@IAEXPBG@Z 12036e60 f i XMLAttr.obj
 0001:00035f60       ?setDatatypeValidator@ComplexTypeInfo@xercesc_3_1@@QAEXQAVDatatypeValidator@2@@Z 12036f60 f i XMLElementDecl.obj
 0001:00035f60       ?setPrimitiveType@XSSimpleTypeDefinition@xercesc_3_1@@AAEXQAV12@@Z 12036f60 f i XMLAttr.obj
 0001:00035f70       ?setRegex@DatatypeValidator@xercesc_3_1@@IAEXQAVRegularExpression@2@@Z 12036f70 f i XMLAttr.obj
 0001:00035f70       ?setMiscFlags@SchemaElementDecl@xercesc_3_1@@QAEXH@Z 12036f70 f i XMLElementDecl.obj
 0001:00035f70       ?setURI@DOMLocatorImpl@xercesc_3_1@@QAEXQBG@Z 12036f70 f i DOMLSParserImpl.obj
 0001:00035f80       ?setSpecified@XMLAttr@xercesc_3_1@@QAEX_N@Z 12036f80 f i XMLAttr.obj
 0001:00035f90       ?setURIId@XMLAttr@xercesc_3_1@@QAEXI@Z 12036f90 f   XMLAttr.obj
 0001:00035fa0       ?setValue@XMLAttr@xercesc_3_1@@QAEXQBG@Z 12036fa0 f   XMLAttr.obj
 0001:00036020       ?setWhiteSpace@DatatypeValidator@xercesc_3_1@@IAEXF@Z 12037020 f i XMLAttr.obj
 0001:00036030       ?ensureCapacity@XMLBuffer@xercesc_3_1@@AAEXK@Z 12037030 f   XMLBuffer.obj
 0001:00036120       ??0XMLBufferMgr@xercesc_3_1@@QAE@QAVMemoryManager@1@@Z 12037120 f   XMLBufferMgr.obj
 0001:00036170       ??1XMLBufferMgr@xercesc_3_1@@QAE@XZ 12037170 f   XMLBufferMgr.obj
 0001:000361c0       ??_FXMLBufferMgr@xercesc_3_1@@QAEXXZ 120371c0 f i XMLBufferMgr.obj
 0001:00036210       ?bidOnBuffer@XMLBufferMgr@xercesc_3_1@@QAEAAVXMLBuffer@2@XZ 12037210 f   XMLBufferMgr.obj
 0001:00036340       ?getAvailableBufferCount@XMLBufferMgr@xercesc_3_1@@QBEKXZ 12037340 f i XMLBufferMgr.obj
 0001:00036370       ?releaseBuffer@XMLBufferMgr@xercesc_3_1@@QAEXAAVXMLBuffer@2@@Z 12037370 f   XMLBufferMgr.obj
 0001:00036410       ??0XMLContentModel@xercesc_3_1@@IAE@XZ 12037410 f i XMLContentModel.obj
 0001:00036420       ??1XMLContentModel@xercesc_3_1@@UAE@XZ 12037420 f i XMLContentModel.obj
 0001:00036430       ??_EXMLContentModel@xercesc_3_1@@UAEPAXI@Z 12037430 f i XMLContentModel.obj
 0001:00036490       ??0Grammar@xercesc_3_1@@IAE@XZ 12037490 f i XMLDTDDescription.obj
 0001:000364f0       ??0XMLDTDDescription@xercesc_3_1@@IAE@QAVMemoryManager@1@@Z 120374f0 f   XMLDTDDescription.obj
 0001:00036550       ??1Grammar@xercesc_3_1@@UAE@XZ 12037550 f i XMLDTDDescription.obj
 0001:000365a0       ??1XMLDTDDescription@xercesc_3_1@@UAE@XZ 120375a0 f   XMLDTDDescription.obj
 0001:000365f0       ??_EGrammar@xercesc_3_1@@UAEPAXI@Z 120375f0 f i XMLDTDDescription.obj
 0001:000366a0       ??_EXMLDTDDescription@xercesc_3_1@@UAEPAXI@Z 120376a0 f i XMLDTDDescription.obj
 0001:00036750       ??_FXMLDTDDescription@xercesc_3_1@@QAEXXZ 12037750 f i XMLDTDDescription.obj
 0001:000367b0       ??_FXMLElementDecl@xercesc_3_1@@QAEXXZ 120377b0 f i XMLDTDDescription.obj
 0001:000367c0       ??_FXMLEntityDecl@xercesc_3_1@@QAEXXZ 120377c0 f i XMLDTDDescription.obj
 0001:000367d0       ??_FXMLGrammarDescription@xercesc_3_1@@QAEXXZ 120377d0 f i XMLDTDDescription.obj
 0001:000367e0       ??_FXMLNotationDecl@xercesc_3_1@@QAEXXZ 120377e0 f i XMLDTDDescription.obj
 0001:000367f0       ?getBaseName@XMLElementDecl@xercesc_3_1@@QBEPBGXZ 120377f0 f i XMLDTDDescription.obj
 0001:000367f0       ?getBaseName@XMLElementDecl@xercesc_3_1@@QAEPAGXZ 120377f0 f i XMLDTDDescription.obj
 0001:00036800       ?getFullName@XMLElementDecl@xercesc_3_1@@QBEPBGXZ 12037800 f i XMLDTDDescription.obj
 0001:00036800       ?getKey@DTDElementDecl@xercesc_3_1@@QBEPBGXZ 12037800 f i XMLElementDecl.obj
 0001:00036810       ?getStorerLevel@XSerializeEngine@xercesc_3_1@@QBEIXZ 12037810 f i KVStringPair.obj
 0001:00036810       ?getStringData@DOMLSInputImpl@xercesc_3_1@@UBEPBGXZ 12037810 f i DOMImplementationImpl.obj
 0001:00036810       ?getResultType@DOMXPathResultImpl@xercesc_3_1@@UBE?AW4ResultType@DOMXPathResult@2@XZ 12037810 f i DOMXPathResultImpl.obj
 0001:00036810       ?getSign@XMLBigDecimal@xercesc_3_1@@UBEHXZ 12037810 f i XMLAbstractDoubleFloat.obj
 0001:00036810       ?getMemoryManager@XMLGrammarDescription@xercesc_3_1@@QBEPAVMemoryManager@2@XZ 12037810 f i XMLDTDDescription.obj
 0001:00036810       ?getRoot@DOMNodeIteratorImpl@xercesc_3_1@@UAEPAVDOMNode@2@XZ 12037810 f i DOMNodeIteratorImpl.obj
 0001:00036810       ?getMemoryManager@XMLURL@xercesc_3_1@@QBEPAVMemoryManager@2@XZ 12037810 f i PlatformUtils.obj
 0001:00036810       ?getType@XSObject@xercesc_3_1@@QBE?AW4COMPONENT_TYPE@XSConstants@2@XZ 12037810 f i XMLAttr.obj
 0001:00036810       ?getStringPool@GrammarResolver@xercesc_3_1@@QAEPAVXMLStringPool@2@XZ 12037810 f i XMLValidator.obj
 0001:00036810       ?getMemoryManager@XMLElementDecl@xercesc_3_1@@QBEPAVMemoryManager@2@XZ 12037810 f i XMLDTDDescription.obj
 0001:00036810       ?getIdentityConstraintName@IdentityConstraint@xercesc_3_1@@QBEPAGXZ 12037810 f i XMLElementDecl.obj
 0001:00036810       ?getBufMgr@XMLValidator@xercesc_3_1@@IBEPBVXMLBufferMgr@2@XZ 12037810 f i XMLValidator.obj
 0001:00036810       ?getUserDefinedRegistry@DatatypeValidatorFactory@xercesc_3_1@@QBEPAV?$RefHashTableOf@VDatatypeValidator@xercesc_3_1@@UStringHasher@2@@2@XZ 12037810 f i XMLGrammarPoolImpl.obj
 0001:00036810       ?getBlockSize@XMLTranscoder@xercesc_3_1@@QBEKXZ 12037810 f i PlatformUtils.obj
 0001:00036810       ?getEntityExpansionLimit@SecurityManager@xercesc_3_1@@UBEKXZ 12037810 f i XMLValidator.obj
 0001:00036810       ?getMemoryManager@XMLAttDefList@xercesc_3_1@@QBEPAVMemoryManager@2@XZ 12037810 f i XMLAttDefList.obj
 0001:00036810       ?getId@XMLNotationDecl@xercesc_3_1@@QBEKXZ 12037810 f i XMLDTDDescription.obj
 0001:00036810       ?getEmptyNamespaceId@NamespaceScope@xercesc_3_1@@QBEIXZ 12037810 f i XMLGrammarPoolImpl.obj
 0001:00036810       ?length@TranscodeFromStr@xercesc_3_1@@QBEKXZ 12037810 f i PlatformUtils.obj
 0001:00036810       ?getId@XMLEntityDecl@xercesc_3_1@@QBEKXZ 12037810 f i XMLDTDDescription.obj
 0001:00036810       ?getXPath@IC_Field@xercesc_3_1@@QBEPAVXercesXPath@2@XZ 12037810 f i XMLElementDecl.obj
 0001:00036810       ?length@TranscodeToStr@xercesc_3_1@@QBEKXZ 12037810 f i PlatformUtils.obj
 0001:00036810       ?getMemoryManager@InputSource@xercesc_3_1@@QBEPAVMemoryManager@2@XZ 12037810 f i LocalFileInputSource.obj
 0001:00036810       ?getPort@XMLUri@xercesc_3_1@@QBEHXZ 12037810 f i XMLString.obj
 0001:00036810       ?getNextSibling@DOMChildNode@xercesc_3_1@@QBEPAVDOMNode@2@XZ 12037810 f i DOMChildNode.obj
 0001:00036810       ?getPublicId@XMLResourceIdentifier@xercesc_3_1@@QBEPBGXZ 12037810 f i DGXMLScanner.obj
 0001:00036810       ?getBufMgr@XMLValidator@xercesc_3_1@@IAEPAVXMLBufferMgr@2@XZ 12037810 f i XMLValidator.obj
 0001:00036810       ?getMemoryManager@RegxParser@xercesc_3_1@@IBEPAVMemoryManager@2@XZ 12037810 f i ParserForXMLSchema.obj
 0001:00036810       ?getEncodingName@XMLFormatter@xercesc_3_1@@QBEPBGXZ 12037810 f i LocalFileFormatTarget.obj
 0001:00036810       ?getBlockDefault@SchemaInfo@xercesc_3_1@@QBEHXZ 12037810 f i IGXMLScanner.obj
 0001:00036810       ?getCurrentEntity@ReaderMgr@xercesc_3_1@@QAEPAVXMLEntityDecl@2@XZ 12037810 f i ReaderMgr.obj
 0001:00036810       ?getByteStream@DOMLSOutputImpl@xercesc_3_1@@UBEPAVXMLFormatTarget@2@XZ 12037810 f i DOMImplementationImpl.obj
 0001:00036810       ?getXPath@IC_Selector@xercesc_3_1@@QBEPAVXercesXPath@2@XZ 12037810 f i XSIDCDefinition.obj
 0001:00036810       ?getReaderNum@EndOfEntityException@xercesc_3_1@@QBEKXZ 12037810 f i DGXMLScanner.obj
 0001:00036810       ?getTokenType@Token@xercesc_3_1@@QBE?AW4tokType@12@XZ 12037810 f i ASCIIRangeFactory.obj
 0001:00036810       ?getDocument@DOMParentNode@xercesc_3_1@@QBEPAVDOMDocument@2@XZ 12037810 f i DOMParentNode.obj
 0001:00036810       ?getRangeMap@RangeTokenMap@xercesc_3_1@@IBEPAV?$RefHashTableOf@VRangeFactory@xercesc_3_1@@UStringHasher@2@@2@XZ 12037810 f i ASCIIRangeFactory.obj
 0001:00036810       ?getMemoryManager@XMLGrammarPool@xercesc_3_1@@QAEPAVMemoryManager@2@XZ 12037810 f i XMLGrammarPoolImpl.obj
 0001:00036810       ?getWhatToShow@DOMTreeWalkerImpl@xercesc_3_1@@UAEKXZ 12037810 f i DOMTreeWalkerImpl.obj
 0001:00036810       ?getNamespaces@XSModel@xercesc_3_1@@QAEPAV?$RefArrayVectorOf@G@2@XZ 12037810 f i XMLGrammarPoolImpl.obj
 0001:00036810       ?getDefaultType@XMLAttDef@xercesc_3_1@@QBE?AW4DefAttTypes@12@XZ 12037810 f i XMLAttDef.obj
 0001:00036810       ?getTargetNamespace@SchemaGrammar@xercesc_3_1@@UBEPBGXZ 12037810 f i XMLGrammarPoolImpl.obj
 0001:00036810       ?getOwnerDocument@DOMParentNode@xercesc_3_1@@QBEPAVDOMDocument@2@XZ 12037810 f i DOMParentNode.obj
 0001:00036810       ?getCurrentEntity@ReaderMgr@xercesc_3_1@@QBEPBVXMLEntityDecl@2@XZ 12037810 f i ReaderMgr.obj
 0001:00036810       ?getType@XMLAttr@xercesc_3_1@@QBE?AW4AttTypes@XMLAttDef@2@XZ 12037810 f i XMLAttr.obj
 0001:00036810       ?getMessage@SAXException@xercesc_3_1@@UBEPBGXZ 12037810 f i XSAnnotation.obj
 0001:00036820       ?getProtoType@XMLDTDDescription@xercesc_3_1@@UBEPAVXProtoType@2@XZ 12037820 f   XMLDTDDescription.obj
 0001:00036830       ?getSign@XMLAbstractDoubleFloat@xercesc_3_1@@UBEHXZ 12037830 f i XMLAbstractDoubleFloat.obj
 0001:00036830       ?getType@ContentSpecNode@xercesc_3_1@@QBE?AW4NodeTypes@12@XZ 12037830 f i XMLGrammarPoolImpl.obj
 0001:00036830       ?getNamespaceURI@IdentityConstraint@xercesc_3_1@@QBEHXZ 12037830 f i XMLElementDecl.obj
 0001:00036830       ?getMinOccurs@XSParticle@xercesc_3_1@@QBEKXZ 12037830 f i XSComplexTypeDefinition.obj
 0001:00036830       ?getAnnotationString@XSAnnotation@xercesc_3_1@@QBEPBGXZ 12037830 f i XMLGrammarPoolImpl.obj
 0001:00036830       ?getPublicId@XMLEntityDecl@xercesc_3_1@@QBEPBGXZ 12037830 f i XMLDTDDescription.obj
 0001:00036830       ?getPath@XMLUri@xercesc_3_1@@QBEPBGXZ 12037830 f i XMLString.obj
 0001:00036830       ?getEnclosingElementName@XMLSchemaDescriptionImpl@xercesc_3_1@@UBEPBVQName@2@XZ 12037830 f i XMLSchemaDescriptionImpl.obj
 0001:00036830       ?getContentHandler@SAX2XMLFilterImpl@xercesc_3_1@@UBEPAVContentHandler@2@XZ 12037830 f i SAX2XMLFilterImpl.obj
 0001:00036830       ?getScopeDefined@ComplexTypeInfo@xercesc_3_1@@QBEIXZ 12037830 f i XMLElementDecl.obj
 0001:00036830       ?getAttributeUses@XSAttributeGroupDefinition@xercesc_3_1@@QAEPAV?$RefVectorOf@VXSAttributeUse@xercesc_3_1@@@2@XZ 12037830 f i XSAttributeGroupDefinition.obj
 0001:00036830       ?getValue@XMLBigDecimal@xercesc_3_1@@QBEPBGXZ 12037830 f i XMLAbstractDoubleFloat.obj
 0001:00036830       ?getModelType@DTDElementDecl@xercesc_3_1@@QBE?AW4ModelTypes@12@XZ 12037830 f i XMLElementDecl.obj
 0001:00036830       ?getAttDefCount@DTDAttDefList@xercesc_3_1@@UBEKXZ 12037830 f i DTDAttDefList.obj
 0001:00036830       ?getValidity@PSVIItem@xercesc_3_1@@QBE?AW4VALIDITY_STATE@12@XZ 12037830 f i PSVIAttribute.obj
 0001:00036830       ?getParameterNames@DOMLSSerializerImpl@xercesc_3_1@@UBEPBVDOMStringList@2@XZ 12037830 f i DOMLSSerializerImpl.obj
 0001:00036830       ?getGrammarDescription@DTDGrammar@xercesc_3_1@@UBEPAVXMLGrammarDescription@2@XZ 12037830 f i DTDGrammar.obj
 0001:00036830       ?getScope@XSElementDeclaration@xercesc_3_1@@QBE?AW4SCOPE@XSConstants@2@XZ 12037830 f i PSVIElement.obj
 0001:00036830       ?getBaseURI@XMLNotationDecl@xercesc_3_1@@QBEPBGXZ 12037830 f i XMLDTDDescription.obj
 0001:00036830       ?getIntVal@XMLBigDecimal@xercesc_3_1@@QBEPAGXZ 12037830 f i XMLAbstractDoubleFloat.obj
 0001:00036830       ?getBaseURI@DOMNotationImpl@xercesc_3_1@@UBEPBGXZ 12037830 f i DOMNotationImpl.obj
 0001:00036830       ?getCompleteWildCard@XercesAttGroupInfo@xercesc_3_1@@QBEPAVSchemaAttDef@2@XZ 12037830 f i XMLGrammarPoolImpl.obj
 0001:00036830       ?getBufSize@XSerializeEngine@xercesc_3_1@@QBEKXZ 12037830 f i KVStringPair.obj
 0001:00036830       ?getType@DatatypeValidator@xercesc_3_1@@QBE?AW4ValidatorType@12@XZ 12037830 f i XMLAttr.obj
 0001:00036830       ?getLocalPart@QName@xercesc_3_1@@QAEPAGXZ 12037830 f i QName.obj
 0001:00036830       ?getMessage@XMLException@xercesc_3_1@@QBEPBGXZ 12037830 f i Base64.obj
 0001:00036830       ?getProcessContents@XSWildcard@xercesc_3_1@@QBE?AW4PROCESS_CONTENTS@12@XZ 12037830 f i XSComplexTypeDefinition.obj
 0001:00036830       ?getTargetNSURIString@SchemaInfo@xercesc_3_1@@QBEPBGXZ 12037830 f i IGXMLScanner.obj
 0001:00036830       ?getTypeDefinition@XSAttributeDeclaration@xercesc_3_1@@QBEPAVXSSimpleTypeDefinition@2@XZ 12037830 f i PSVIAttributeList.obj
 0001:00036830       ?getValue@XMLAttDef@xercesc_3_1@@QBEPBGXZ 12037830 f i XMLAttDef.obj
 0001:00036830       ?getParticles@XSModelGroup@xercesc_3_1@@QBEPAV?$RefVectorOf@VXSParticle@xercesc_3_1@@@2@XZ 12037830 f i XSModelGroup.obj
 0001:00036830       ?getRelatedData@DOMErrorImpl@xercesc_3_1@@UBEPAXXZ 12037830 f i DOMLSParserImpl.obj
 0001:00036830       ?getBaseURI@DOMLSInputImpl@xercesc_3_1@@UBEPBGXZ 12037830 f i DOMImplementationImpl.obj
 0001:00036830       ?getGrammarPool@GrammarResolver@xercesc_3_1@@QBEPAVXMLGrammarPool@2@XZ 12037830 f i XMLValidator.obj
 0001:00036830       ?getGrammar@SchemaValidator@xercesc_3_1@@UBEPAVGrammar@2@XZ 12037830 f i IGXMLScanner.obj
 0001:00036830       ?getAttDefCount@SchemaAttDefList@xercesc_3_1@@UBEKXZ 12037830 f i SchemaAttDefList.obj
 0001:00036830       ?getDocument@DOMRangeImpl@xercesc_3_1@@QAEPAVDOMDocument@2@XZ 12037830 f i DOMRangeImpl.obj
 0001:00036830       ?getRefKey@XSIDCDefinition@xercesc_3_1@@QBEPAV12@XZ 12037830 f i XSElementDeclaration.obj
 0001:00036830       ?getAttributeDeclRegistry@SchemaGrammar@xercesc_3_1@@QBEPAV?$RefHashTableOf@VXMLAttDef@xercesc_3_1@@UStringHasher@2@@2@XZ 12037830 f i XMLGrammarPoolImpl.obj
 0001:00036830       ?getParameterNames@DOMLSParserImpl@xercesc_3_1@@UBEPBVDOMStringList@2@XZ 12037830 f i DOMLSParserImpl.obj
 0001:00036830       ?getAnnotation@XSNotationDeclaration@xercesc_3_1@@QBEPAVXSAnnotation@2@XZ 12037830 f i XSModel.obj
 0001:00036830       ?getParseContext@RegxParser@xercesc_3_1@@QBE?AW4parserStateContext@12@XZ 12037830 f i ParserForXMLSchema.obj
 0001:00036830       ?getSystemId@XSDLocator@xercesc_3_1@@UBEPBGXZ 12037830 f i IGXMLScanner2.obj
 0001:00036830       ?getConstraintType@XSAttributeUse@xercesc_3_1@@QBE?AW4VALUE_CONSTRAINT@XSConstants@2@XZ 12037830 f i XSAttributeGroupDefinition.obj
 0001:00036830       ?getLocalPart@QName@xercesc_3_1@@QBEPBGXZ 12037830 f i QName.obj
 0001:00036830       ?getData2@ModifierOp@xercesc_3_1@@UBEHXZ 12037830 f i Op.obj
 0001:00036830       ?getAnnotationString@XSAnnotation@xercesc_3_1@@QAEPAGXZ 12037830 f i XMLGrammarPoolImpl.obj
 0001:00036840       ?getURI@XMLElementDecl@xercesc_3_1@@QBEIXZ 12037840 f i XMLDTDDescription.obj
 0001:00036850       ?isDeclared@XMLElementDecl@xercesc_3_1@@QBE_NXZ 12037850 f i XMLDTDDescription.obj
 0001:00036860       ?isExternal@XMLEntityDecl@xercesc_3_1@@QBE_NXZ 12037860 f i XMLDTDDescription.obj
 0001:00036860       ?getHandleMultipleImports@XMLScanner@xercesc_3_1@@QBE_NXZ 12037860 f i XMLValidator.obj
 0001:00036870       ?isUnparsed@XMLEntityDecl@xercesc_3_1@@QBE_NXZ 12037870 f i XMLDTDDescription.obj
 0001:00036880       ?setBaseURI@XMLEntityDecl@xercesc_3_1@@QAEXQBG@Z 12037880 f i XMLDTDDescription.obj
 0001:000368f0       ?setBaseURI@XMLNotationDecl@xercesc_3_1@@QAEXQBG@Z 120378f0 f i XMLDTDDescription.obj
 0001:00036960       ?setExternalElemDeclaration@XMLElementDecl@xercesc_3_1@@QAEX_N@Z 12037960 f i XMLDTDDescription.obj
 0001:00036960       ?setIssueFatalErrorIfNotFound@InputSource@xercesc_3_1@@UAEX_N@Z 12037960 f i LocalFileInputSource.obj
 0001:00036960       ?setCreateEntityReferenceNodes@AbstractDOMParser@xercesc_3_1@@QAEX_N@Z 12037960 f i XSAnnotation.obj
 0001:00036970       ?setNotationName@XMLEntityDecl@xercesc_3_1@@QAEXQBG@Z 12037970 f i XMLDTDDescription.obj
 0001:000369e0       ?setPublicId@XMLEntityDecl@xercesc_3_1@@QAEXQBG@Z 120379e0 f i XMLDTDDescription.obj
 0001:00036a50       ?setPublicId@XMLNotationDecl@xercesc_3_1@@QAEXQBG@Z 12037a50 f i XMLDTDDescription.obj
 0001:00036ac0       ?setSystemId@XMLEntityDecl@xercesc_3_1@@QAEXQBG@Z 12037ac0 f i XMLDTDDescription.obj
 0001:00036b30       ?setSystemId@XMLNotationDecl@xercesc_3_1@@QAEXQBG@Z 12037b30 f i XMLDTDDescription.obj
 0001:00036ba0       ?setValue@XMLEntityDecl@xercesc_3_1@@QAEXQBG@Z 12037ba0 f i XMLDTDDescription.obj
 0001:00036c20       ??0?$BaseRefVectorOf@VIC_Field@xercesc_3_1@@@xercesc_3_1@@QAE@K_NQAVMemoryManager@1@@Z 12037c20 f i XMLElementDecl.obj
 0001:00036c80       ??0?$BaseRefVectorOf@VIdentityConstraint@xercesc_3_1@@@xercesc_3_1@@QAE@K_NQAVMemoryManager@1@@Z 12037c80 f i XMLElementDecl.obj
 0001:00036ce0       ??0?$BaseRefVectorOf@VSchemaElementDecl@xercesc_3_1@@@xercesc_3_1@@QAE@K_NQAVMemoryManager@1@@Z 12037ce0 f i XMLElementDecl.obj
 0001:00036d40       ??0?$RefHash2KeysTableOfEnumerator@VSchemaAttDef@xercesc_3_1@@UStringHasher@2@@xercesc_3_1@@QAE@QAV?$RefHash2KeysTableOf@VSchemaAttDef@xercesc_3_1@@UStringHasher@2@@1@_NQAVMemoryManager@1@@Z 12037d40 f i XMLElementDecl.obj
 0001:00036e10       ??0XMLElementDecl@xercesc_3_1@@IAE@QAVMemoryManager@1@@Z 12037e10 f   XMLElementDecl.obj
 0001:00036e90       ??1?$BaseRefVectorOf@VIC_Field@xercesc_3_1@@@xercesc_3_1@@UAE@XZ 12037e90 f i XMLElementDecl.obj
 0001:00036ea0       ??1?$BaseRefVectorOf@VIdentityConstraint@xercesc_3_1@@@xercesc_3_1@@UAE@XZ 12037ea0 f i XMLElementDecl.obj
 0001:00036eb0       ??1?$BaseRefVectorOf@VSchemaElementDecl@xercesc_3_1@@@xercesc_3_1@@UAE@XZ 12037eb0 f i XMLElementDecl.obj
 0001:00036ec0       ??1?$RefHash2KeysTableOfEnumerator@VSchemaAttDef@xercesc_3_1@@UStringHasher@2@@xercesc_3_1@@UAE@XZ 12037ec0 f i XMLElementDecl.obj
 0001:00036f50       ??1?$RefVectorOf@VIC_Field@xercesc_3_1@@@xercesc_3_1@@UAE@XZ 12037f50 f i XMLElementDecl.obj
 0001:00036fe0       ??1?$RefVectorOf@VIdentityConstraint@xercesc_3_1@@@xercesc_3_1@@UAE@XZ 12037fe0 f i XMLElementDecl.obj
 0001:00037070       ??1?$RefVectorOf@VSchemaElementDecl@xercesc_3_1@@@xercesc_3_1@@UAE@XZ 12038070 f i XMLElementDecl.obj
 0001:00037100       ??1?$XMLEnumerator@VSchemaAttDef@xercesc_3_1@@@xercesc_3_1@@UAE@XZ 12038100 f i XMLElementDecl.obj
 0001:00037110       ??1FieldMatcher@xercesc_3_1@@UAE@XZ 12038110 f i XMLElementDecl.obj
 0001:00037160       ??1XMLElementDecl@xercesc_3_1@@UAE@XZ 12038160 f   XMLElementDecl.obj
 0001:000371c0       ??4?$ValueVectorOf@I@xercesc_3_1@@QAEAAV01@ABV01@@Z 120381c0 f i XMLElementDecl.obj
 0001:00037220       ??_EFieldMatcher@xercesc_3_1@@UAEPAXI@Z 12038220 f i XMLElementDecl.obj
 0001:000372d0       ??_EXMLElementDecl@xercesc_3_1@@UAEPAXI@Z 120382d0 f i XMLElementDecl.obj
 0001:00037390       ??_FComplexTypeInfo@xercesc_3_1@@QAEXXZ 12038390 f i XMLElementDecl.obj
 0001:000373a0       ??_FDTDAttDef@xercesc_3_1@@QAEXXZ 120383a0 f i XMLElementDecl.obj
 0001:000373b0       ??_FDTDElementDecl@xercesc_3_1@@QAEXXZ 120383b0 f i XMLElementDecl.obj
 0001:000373c0       ??_FIC_Field@xercesc_3_1@@QAEXXZ 120383c0 f i XMLElementDecl.obj
 0001:000373d0       ??_FSchemaAttDef@xercesc_3_1@@QAEXXZ 120383d0 f i XMLElementDecl.obj
 0001:000373e0       ??_FSchemaElementDecl@xercesc_3_1@@QAEXXZ 120383e0 f i XMLElementDecl.obj
 0001:000373f0       ??_FUnionDatatypeValidator@xercesc_3_1@@QAEXXZ 120383f0 f i XMLElementDecl.obj
 0001:00037400       ??_G?$BaseRefVectorOf@VIC_Field@xercesc_3_1@@@xercesc_3_1@@UAEPAXI@Z 12038400 f i XMLElementDecl.obj
 0001:00037400       ??_E?$BaseRefVectorOf@VIC_Field@xercesc_3_1@@@xercesc_3_1@@UAEPAXI@Z 12038400 f i XMLElementDecl.obj
 0001:00037430       ??_G?$BaseRefVectorOf@VIdentityConstraint@xercesc_3_1@@@xercesc_3_1@@UAEPAXI@Z 12038430 f i XMLElementDecl.obj
 0001:00037430       ??_E?$BaseRefVectorOf@VIdentityConstraint@xercesc_3_1@@@xercesc_3_1@@UAEPAXI@Z 12038430 f i XMLElementDecl.obj
 0001:00037460       ??_E?$BaseRefVectorOf@VSchemaElementDecl@xercesc_3_1@@@xercesc_3_1@@UAEPAXI@Z 12038460 f i XMLElementDecl.obj
 0001:00037460       ??_G?$BaseRefVectorOf@VSchemaElementDecl@xercesc_3_1@@@xercesc_3_1@@UAEPAXI@Z 12038460 f i XMLElementDecl.obj
 0001:00037490       ??_G?$RefHash2KeysTableOfEnumerator@VSchemaAttDef@xercesc_3_1@@UStringHasher@2@@xercesc_3_1@@UAEPAXI@Z 12038490 f i XMLElementDecl.obj
 0001:00037490       ??_E?$RefHash2KeysTableOfEnumerator@VSchemaAttDef@xercesc_3_1@@UStringHasher@2@@xercesc_3_1@@UAEPAXI@Z 12038490 f i XMLElementDecl.obj
 0001:00037530       ??_G?$RefVectorOf@VIC_Field@xercesc_3_1@@@xercesc_3_1@@UAEPAXI@Z 12038530 f i XMLElementDecl.obj
 0001:00037530       ??_E?$RefVectorOf@VIC_Field@xercesc_3_1@@@xercesc_3_1@@UAEPAXI@Z 12038530 f i XMLElementDecl.obj
 0001:00037560       ??_E?$RefVectorOf@VIdentityConstraint@xercesc_3_1@@@xercesc_3_1@@UAEPAXI@Z 12038560 f i XMLElementDecl.obj
 0001:00037560       ??_G?$RefVectorOf@VIdentityConstraint@xercesc_3_1@@@xercesc_3_1@@UAEPAXI@Z 12038560 f i XMLElementDecl.obj
 0001:00037590       ??_G?$RefVectorOf@VSchemaElementDecl@xercesc_3_1@@@xercesc_3_1@@UAEPAXI@Z 12038590 f i XMLElementDecl.obj
 0001:00037590       ??_E?$RefVectorOf@VSchemaElementDecl@xercesc_3_1@@@xercesc_3_1@@UAEPAXI@Z 12038590 f i XMLElementDecl.obj
 0001:000375c0       ??_G?$XMLEnumerator@VSchemaAttDef@xercesc_3_1@@@xercesc_3_1@@UAEPAXI@Z 120385c0 f i XMLElementDecl.obj
 0001:000375c0       ??_E?$XMLEnumerator@VSchemaAttDef@xercesc_3_1@@@xercesc_3_1@@UAEPAXI@Z 120385c0 f i XMLElementDecl.obj
 0001:000375f0       ?addElement@ComplexTypeInfo@xercesc_3_1@@QAEXQAVSchemaElementDecl@2@@Z 120385f0 f i XMLElementDecl.obj
 0001:00037740       ?addField@IdentityConstraint@xercesc_3_1@@QAEXQAVIC_Field@2@@Z 12038740 f i XMLElementDecl.obj
 0001:00037830       ?addIdentityConstraint@SchemaElementDecl@xercesc_3_1@@QAEXQAVIdentityConstraint@2@@Z 12038830 f i XMLElementDecl.obj
 0001:00037920       ?cleanUp@UnionDatatypeValidator@xercesc_3_1@@AAEXXZ 12038920 f i XMLElementDecl.obj
 0001:00037950       ?cleanUp@XPathMatcher@xercesc_3_1@@AAEXXZ 12038950 f i XMLElementDecl.obj
 0001:00037990       ?contains@ComplexTypeInfo@xercesc_3_1@@QAE_NQBG@Z 12038990 f i XMLElementDecl.obj
 0001:00037b20       ?elementAt@ComplexTypeInfo@xercesc_3_1@@QAEPAVSchemaElementDecl@2@K@Z 12038b20 f i XMLElementDecl.obj
 0001:00037b20       ?elementAt@ComplexTypeInfo@xercesc_3_1@@QBEPBVSchemaElementDecl@2@K@Z 12038b20 f i XMLElementDecl.obj
 0001:00037b40       ?elementCount@ComplexTypeInfo@xercesc_3_1@@QBEKXZ 12038b40 f i XMLElementDecl.obj
 0001:00037b50       ?getAdoptContentSpec@ComplexTypeInfo@xercesc_3_1@@QBE_NXZ 12038b50 f i XMLElementDecl.obj
 0001:00037b50       ?getBounded@DatatypeValidator@xercesc_3_1@@QBE_NXZ 12038b50 f i XMLAttr.obj
 0001:00037b60       ?getAttDef@ComplexTypeInfo@xercesc_3_1@@QBEPBVSchemaAttDef@2@QBGH@Z 12038b60 f i XMLElementDecl.obj
 0001:00037b60       ?getAttDef@ComplexTypeInfo@xercesc_3_1@@QAEPAVSchemaAttDef@2@QBGH@Z 12038b60 f i XMLElementDecl.obj
 0001:00037b90       ?getMemoryManager@AbstractDOMParser@xercesc_3_1@@IBEPAVMemoryManager@2@XZ 12038b90 f i XSAnnotation.obj
 0001:00037b90       ?getMemberTypeValidators@UnionDatatypeValidator@xercesc_3_1@@QBEPAV?$RefVectorOf@VDatatypeValidator@xercesc_3_1@@@2@XZ 12038b90 f i XMLElementDecl.obj
 0001:00037b90       ?getMinLength@AbstractStringValidator@xercesc_3_1@@QBEKXZ 12038b90 f i XMLGrammarPoolImpl.obj
 0001:00037b90       ?getAttWildCard@ComplexTypeInfo@xercesc_3_1@@QBEPBVSchemaAttDef@2@XZ 12038b90 f i XMLElementDecl.obj
 0001:00037b90       ?getPSVIHandler@SAXParser@xercesc_3_1@@QBEPBVPSVIHandler@2@XZ 12038b90 f i SAX2XMLReaderImpl.obj
 0001:00037b90       ?getDatatypeValidator@SchemaElementDecl@xercesc_3_1@@QBEPAVDatatypeValidator@2@XZ 12038b90 f i XMLElementDecl.obj
 0001:00037b90       ?getMaxInclusive@AbstractNumericFacetValidator@xercesc_3_1@@QBEPAVXMLNumber@2@XZ 12038b90 f i AbstractNumericFacetValidator.obj
 0001:00037b90       ?getAttWildCard@ComplexTypeInfo@xercesc_3_1@@QAEPAVSchemaAttDef@2@XZ 12038b90 f i XMLElementDecl.obj
 0001:00037b90       ?getPSVIHandler@SAXParser@xercesc_3_1@@QAEPAVPSVIHandler@2@XZ 12038b90 f i SAX2XMLReaderImpl.obj
 0001:00037ba0       ?getContentModel@ComplexTypeInfo@xercesc_3_1@@QAEPAVXMLContentModel@2@_N@Z 12038ba0 f i XMLElementDecl.obj
 0001:00037bd0       ?getContentModel@DTDElementDecl@xercesc_3_1@@UAEPAVXMLContentModel@2@XZ 12038bd0 f i XMLElementDecl.obj
 0001:00037bf0       ?getContentModel@SchemaElementDecl@xercesc_3_1@@UAEPAVXMLContentModel@2@XZ 12038bf0 f i XMLElementDecl.obj
 0001:00037c20       ?getAnnotations@XSSimpleTypeDefinition@xercesc_3_1@@QAEPAV?$RefVectorOf@VXSAnnotation@xercesc_3_1@@@2@XZ 12038c20 f i XMLAttr.obj
 0001:00037c20       ?getRawData@XMLDateTime@xercesc_3_1@@UBEPAGXZ 12038c20 f i XMLDateTime.obj
 0001:00037c20       ?getEnumeration@UnionDatatypeValidator@xercesc_3_1@@ABEPAV?$RefArrayVectorOf@G@2@XZ 12038c20 f i XMLElementDecl.obj
 0001:00037c20       ?getErrorHandler@SAXParser@xercesc_3_1@@QBEPBVErrorHandler@2@XZ 12038c20 f i SAX2XMLReaderImpl.obj
 0001:00037c20       ?getErrorHandler@SAXParser@xercesc_3_1@@QAEPAVErrorHandler@2@XZ 12038c20 f i SAX2XMLReaderImpl.obj
 0001:00037c20       ?getAnnotations@XSNamespaceItem@xercesc_3_1@@QAEPAV?$RefVectorOf@VXSAnnotation@xercesc_3_1@@@2@XZ 12038c20 f i XSAttributeDeclaration.obj
 0001:00037c20       ?getMaxLength@AbstractStringValidator@xercesc_3_1@@QBEKXZ 12038c20 f i XMLGrammarPoolImpl.obj
 0001:00037c20       ?getContentSpec@ComplexTypeInfo@xercesc_3_1@@QBEPAVContentSpecNode@2@XZ 12038c20 f i XMLElementDecl.obj
 0001:00037c20       ?getAnnotations@XSNamespaceItem@xercesc_3_1@@QBEPBV?$RefVectorOf@VXSAnnotation@xercesc_3_1@@@2@XZ 12038c20 f i XSAttributeDeclaration.obj
 0001:00037c20       ?getSubstitutionGroupElem@SchemaElementDecl@xercesc_3_1@@QBEPAV12@XZ 12038c20 f i XMLElementDecl.obj
 0001:00037c20       ?getEnumString@UnionDatatypeValidator@xercesc_3_1@@UBEPBV?$RefArrayVectorOf@G@2@XZ 12038c20 f i UnionDatatypeValidator.obj
 0001:00037c30       ?getContentSpec@SchemaElementDecl@xercesc_3_1@@UAEPAVContentSpecNode@2@XZ 12038c30 f i XMLElementDecl.obj
 0001:00037c30       ?getContentSpec@SchemaElementDecl@xercesc_3_1@@UBEPBVContentSpecNode@2@XZ 12038c30 f i XMLElementDecl.obj
 0001:00037c40       ?getDefinedFacets@XSSimpleTypeDefinition@xercesc_3_1@@QBEHXZ 12038c40 f i XMLAttr.obj
 0001:00037c40       ?getMinOccurs@ContentSpecNode@xercesc_3_1@@QBEHXZ 12038c40 f i XMLGrammarPoolImpl.obj
 0001:00037c40       ?getElementId@ComplexTypeInfo@xercesc_3_1@@QBEIXZ 12038c40 f i XMLElementDecl.obj
 0001:00037c40       ?getFragment@XMLUri@xercesc_3_1@@QBEPBGXZ 12038c40 f i XMLString.obj
 0001:00037c40       ?getName@DOMAttrImpl@xercesc_3_1@@UBEPBGXZ 12038c40 f i DOMAttrImpl.obj
 0001:00037c40       ?getAnnotation@XSWildcard@xercesc_3_1@@QBEPAVXSAnnotation@2@XZ 12038c40 f i XSComplexTypeDefinition.obj
 0001:00037c40       ?getAnnotation@XSAttributeGroupDefinition@xercesc_3_1@@QBEPAVXSAnnotation@2@XZ 12038c40 f i XSAttributeGroupDefinition.obj
 0001:00037c40       ?getScope@XSAttributeDeclaration@xercesc_3_1@@QBE?AW4SCOPE@XSConstants@2@XZ 12038c40 f i PSVIAttributeList.obj
 0001:00037c40       ?getGroupInfoRegistry@SchemaGrammar@xercesc_3_1@@QBEPAV?$RefHashTableOf@VXercesGroupInfo@xercesc_3_1@@UStringHasher@2@@2@XZ 12038c40 f i XMLGrammarPoolImpl.obj
 0001:00037c40       ?getAnnotation@XSFacet@xercesc_3_1@@QBEPAVXSAnnotation@2@XZ 12038c40 f i XSFacet.obj
 0001:00037c40       ?getPublicId@SAXParseException@xercesc_3_1@@QBEPBGXZ 12038c40 f i SAXParseException.obj
 0001:00037c40       ?getNodeName@DOMAttrImpl@xercesc_3_1@@UBEPBGXZ 12038c40 f i DOMAttrImpl.obj
 0001:00037c40       ?getAnnotations@XSMultiValueFacet@xercesc_3_1@@QAEPAV?$RefVectorOf@VXSAnnotation@xercesc_3_1@@@2@XZ 12038c40 f i XSMultiValueFacet.obj
 0001:00037c40       ?getSystemId@XSAnnotation@xercesc_3_1@@QBEPBGXZ 12038c40 f i XMLGrammarPoolImpl.obj
 0001:00037c40       ?getMemoryManager@XMLAttDef@xercesc_3_1@@QBEPAVMemoryManager@2@XZ 12038c40 f i XMLAttDef.obj
 0001:00037c40       ?getBaseURI@XMLEntityDecl@xercesc_3_1@@QBEPBGXZ 12038c40 f i XMLDTDDescription.obj
 0001:00037c40       ?getBaseValidator@DatatypeValidator@xercesc_3_1@@QBEPAV12@XZ 12038c40 f i XMLAttr.obj
 0001:00037c40       ?getNodeName@DOMEntityImpl@xercesc_3_1@@UBEPBGXZ 12038c40 f i DOMEntityImpl.obj
 0001:00037c40       ?getTypeDefinition@XSElementDeclaration@xercesc_3_1@@QBEPAVXSTypeDefinition@2@XZ 12038c40 f i PSVIElement.obj
 0001:00037c40       ?getMemoryManager@QName@xercesc_3_1@@QBEPAVMemoryManager@2@XZ 12038c40 f i QName.obj
 0001:00037c40       ?getState@RegxParser@xercesc_3_1@@QBE?AW4parserState@12@XZ 12038c40 f i ParserForXMLSchema.obj
 0001:00037c40       ?getEntityResolver@SAX2XMLFilterImpl@xercesc_3_1@@UBEPAVEntityResolver@2@XZ 12038c40 f i SAX2XMLFilterImpl.obj
 0001:00037c40       ?getLocator@XercesGroupInfo@xercesc_3_1@@QBEPAVXSDLocator@2@XZ 12038c40 f i XMLGrammarPoolImpl.obj
 0001:00037c40       ?getString@Context@RegularExpression@xercesc_3_1@@QBEPBGXZ 12038c40 f i RegularExpression.obj
 0001:00037c40       ?getAttrDeclaration@XSAttributeUse@xercesc_3_1@@QBEPAVXSAttributeDeclaration@2@XZ 12038c40 f i XSAttributeGroupDefinition.obj
 0001:00037c40       ?getEnclosingScope@SchemaElementDecl@xercesc_3_1@@QBEIXZ 12038c40 f i XMLElementDecl.obj
 0001:00037c40       ?getAnnotations@XSIDCDefinition@xercesc_3_1@@QAEPAV?$RefVectorOf@VXSAnnotation@xercesc_3_1@@@2@XZ 12038c40 f i XSIDCDefinition.obj
 0001:00037c40       ?getQuery@XMLURL@xercesc_3_1@@QBEPBGXZ 12038c40 f i PlatformUtils.obj
 0001:00037c40       ?getMemoryManager@XPathMatcher@xercesc_3_1@@QBEPAVMemoryManager@2@XZ 12038c40 f i XMLElementDecl.obj
 0001:00037c50       ?attributeCount@XercesAttGroupInfo@xercesc_3_1@@QBEKXZ 12038c50 f i XMLGrammarPoolImpl.obj
 0001:00037c50       ?getFieldCount@IdentityConstraint@xercesc_3_1@@QBEKXZ 12038c50 f i XMLElementDecl.obj
 0001:00037c60       ?getIdentityConstraintAt@SchemaElementDecl@xercesc_3_1@@QBEPAVIdentityConstraint@2@K@Z 12038c60 f i XMLElementDecl.obj
 0001:00037c80       ?getIdentityConstraintCount@SchemaElementDecl@xercesc_3_1@@QBEKXZ 12038c80 f i XMLElementDecl.obj
 0001:00037c90       ?getValidationContext@SchemaGrammar@xercesc_3_1@@QBEPAVValidationContext@2@XZ 12038c90 f i XMLGrammarPoolImpl.obj
 0001:00037c90       ?getDefaultAttributes@DOMElementImpl@xercesc_3_1@@UBEPAVDOMAttrMapImpl@2@XZ 12038c90 f i DOMElementImpl.obj
 0001:00037c90       ?getNotationName@DOMEntityImpl@xercesc_3_1@@UBEPBGXZ 12038c90 f i DOMEntityImpl.obj
 0001:00037c90       ?getElementDeclaration@PSVIElement@xercesc_3_1@@QAEPAVXSElementDeclaration@2@XZ 12038c90 f i PSVIElement.obj
 0001:00037c90       ?getAttName@SchemaAttDef@xercesc_3_1@@QBEPAVQName@2@XZ 12038c90 f i XMLElementDecl.obj
 0001:00037c90       ?getLocalName@DOMAttrNSImpl@xercesc_3_1@@UBEPBGXZ 12038c90 f i DOMAttrNSImpl.obj
 0001:00037c90       ?getAttributeDeclaration@PSVIAttribute@xercesc_3_1@@QAEPAVXSAttributeDeclaration@2@XZ 12038c90 f i PSVIAttribute.obj
 0001:00037c90       ?getAnnotation@XSElementDeclaration@xercesc_3_1@@QBEPAVXSAnnotation@2@XZ 12038c90 f i PSVIElement.obj
 0001:00037c90       ?getEntities@DOMDocumentTypeImpl@xercesc_3_1@@UBEPAVDOMNamedNodeMap@2@XZ 12038c90 f i DOMDocumentTypeImpl.obj
 0001:00037c90       ?getBaseURI@DOMEntityReferenceImpl@xercesc_3_1@@UBEPBGXZ 12038c90 f i DOMEntityReferenceImpl.obj
 0001:00037c90       ?getRegex@DatatypeValidator@xercesc_3_1@@IBEPAVRegularExpression@2@XZ 12038c90 f i XMLAttr.obj
 0001:00037c90       ?getDatatypeValidator@XSSimpleTypeDefinition@xercesc_3_1@@QBEPAVDatatypeValidator@2@XZ 12038c90 f i XMLAttr.obj
 0001:00037c90       ?getTypeName@ComplexTypeInfo@xercesc_3_1@@QBEPAGXZ 12038c90 f i XMLElementDecl.obj
 0001:00037c90       ?getURI@DOMLocatorImpl@xercesc_3_1@@UBEPBGXZ 12038c90 f i DOMLSParserImpl.obj
 0001:00037c90       ?getSimpleType@XSComplexTypeDefinition@xercesc_3_1@@QBEPAVXSSimpleTypeDefinition@2@XZ 12038c90 f i PSVIElement.obj
 0001:00037c90       ?getMiscFlags@SchemaElementDecl@xercesc_3_1@@QBEHXZ 12038c90 f i XMLElementDecl.obj
 0001:00037ca0       ?getModelType@SchemaElementDecl@xercesc_3_1@@QBE?AW4ModelTypes@12@XZ 12038ca0 f i XMLElementDecl.obj
 0001:00037cb0       ?hasBackReferences@RegxParser@xercesc_3_1@@QBE_NXZ 12038cb0 f i ParserForXMLSchema.obj
 0001:00037cb0       ?getPreprocessed@ComplexTypeInfo@xercesc_3_1@@QBE_NXZ 12038cb0 f i XMLElementDecl.obj
 0001:00037cb0       ?getIgnoreSerializedAnnotations@XMLGrammarPool@xercesc_3_1@@QBE_NXZ 12038cb0 f i XMLGrammarPoolImpl.obj
 0001:00037cc0       ?getProtoType@XMLElementDecl@xercesc_3_1@@UBEPAVXProtoType@2@XZ 12038cc0 f   XMLElementDecl.obj
 0001:00037cd0       ?getElements@DOMDocumentTypeImpl@xercesc_3_1@@UBEPAVDOMNamedNodeMap@2@XZ 12038cd0 f i DOMDocumentTypeImpl.obj
 0001:00037cd0       ?getInputEncoding@DOMEntityImpl@xercesc_3_1@@UBEPBGXZ 12038cd0 f i DOMEntityImpl.obj
 0001:00037cd0       ?getGrammarDescription@SchemaGrammar@xercesc_3_1@@UBEPAVXMLGrammarDescription@2@XZ 12038cd0 f i XMLGrammarPoolImpl.obj
 0001:00037cd0       ?getTypeUri@ComplexTypeInfo@xercesc_3_1@@QBEPBGXZ 12038cd0 f i XMLElementDecl.obj
 0001:00037cd0       ?getSchemaInformation@PSVIElement@xercesc_3_1@@QAEPAVXSModel@2@XZ 12038cd0 f i PSVIElement.obj
 0001:00037cd0       ?getRecursingTypeNames@SchemaInfo@xercesc_3_1@@QBEPAV?$ValueVectorOf@PBG@2@XZ 12038cd0 f i IGXMLScanner.obj
 0001:00037cd0       ?getEmptyNamespaceId@XMLScanner@xercesc_3_1@@QBEIXZ 12038cd0 f i XMLValidator.obj
 0001:00037cd0       ?getParticle@XSComplexTypeDefinition@xercesc_3_1@@QBEPAVXSParticle@2@XZ 12038cd0 f i PSVIElement.obj
 0001:00037cd0       ?getXmlEncoding@DOMDocumentImpl@xercesc_3_1@@UBEPBGXZ 12038cd0 f i DOMDocumentImpl.obj
 0001:00037cd0       ?getTypeLocalName@DatatypeValidator@xercesc_3_1@@QBEPBGXZ 12038cd0 f i XMLAttr.obj
 0001:00037cd0       ?getComplexTypeInfo@SchemaElementDecl@xercesc_3_1@@QBEPAVComplexTypeInfo@2@XZ 12038cd0 f i XMLElementDecl.obj
 0001:00037cd0       ?getDocumentHandler@SAXParser@xercesc_3_1@@QAEPAVDocumentHandler@2@XZ 12038cd0 f i SAX2XMLReaderImpl.obj
 0001:00037cd0       ?getDocumentHandler@SAXParser@xercesc_3_1@@QBEPBVDocumentHandler@2@XZ 12038cd0 f i SAX2XMLReaderImpl.obj
 0001:00037cd0       ?getBaseURI@DOMDocumentImpl@xercesc_3_1@@UBEPBGXZ 12038cd0 f i DOMDocumentImpl.obj
 0001:00037cd0       ?getNamespaceURI@DOMElementNSImpl@xercesc_3_1@@UBEPBGXZ 12038cd0 f i DOMElementNSImpl.obj
 0001:00037cd0       ?getNamespaceList@SchemaAttDef@xercesc_3_1@@QBEPAV?$ValueVectorOf@I@2@XZ 12038cd0 f i XMLElementDecl.obj
 0001:00037cd0       ?getMultiValueFacets@XSSimpleTypeDefinition@xercesc_3_1@@QAEPAV?$RefVectorOf@VXSMultiValueFacet@xercesc_3_1@@@2@XZ 12038cd0 f i XMLAttr.obj
 0001:00037ce0       ?hasAttDefs@ComplexTypeInfo@xercesc_3_1@@QBE_NXZ 12038ce0 f i XMLElementDecl.obj
 0001:00037cf0       ?isAtomic@UnionDatatypeValidator@xercesc_3_1@@UBE_NXZ 12038cf0 f i XMLElementDecl.obj
 0001:00037dc0       ?isGlobalDecl@SchemaElementDecl@xercesc_3_1@@UBE_NXZ 12038dc0 f i XMLElementDecl.obj
 0001:00037dd0       ?isSubstitutableBy@UnionDatatypeValidator@xercesc_3_1@@UAE_NQBVDatatypeValidator@2@@Z 12038dd0 f i XMLElementDecl.obj
 0001:00037ed0       ?loadElementDecl@XMLElementDecl@xercesc_3_1@@SAPAV12@AAVXSerializeEngine@2@@Z 12038ed0 f   XMLElementDecl.obj
 0001:00037f20       ?newInstance@UnionDatatypeValidator@xercesc_3_1@@UAEPAVDatatypeValidator@2@QAV?$RefHashTableOf@VKVStringPair@xercesc_3_1@@UStringHasher@2@@2@QAV?$RefArrayVectorOf@G@2@HQAVMemoryManager@2@@Z 12038f20 f i XMLElementDecl.obj
 0001:00037fb0       ?nextElement@?$RefHash2KeysTableOfEnumerator@VSchemaAttDef@xercesc_3_1@@UStringHasher@2@@xercesc_3_1@@UAEAAVSchemaAttDef@2@XZ 12038fb0 f i XMLElementDecl.obj
 0001:00037fb0       ?nextElement@?$RefHash2KeysTableOfEnumerator@VSchemaInfo@xercesc_3_1@@UStringHasher@2@@xercesc_3_1@@UAEAAVSchemaInfo@2@XZ 12038fb0 f i IGXMLScanner2.obj
 0001:00037fb0       ?nextElement@?$RefHash2KeysTableOfEnumerator@V?$ValueVectorOf@PAVSchemaElementDecl@xercesc_3_1@@@xercesc_3_1@@UStringHasher@2@@xercesc_3_1@@UAEAAV?$ValueVectorOf@PAVSchemaElementDecl@xercesc_3_1@@@2@XZ 12038fb0 f i XTemplateSerializer.obj
 0001:00038050       ?removeAll@?$RefHash2KeysTableOf@VXSIDCDefinition@xercesc_3_1@@UStringHasher@2@@xercesc_3_1@@QAEXXZ 12039050 f i XSElementDeclaration.obj
 0001:00038050       ?removeAll@?$RefHash2KeysTableOf@VIdentityConstraint@xercesc_3_1@@UStringHasher@2@@xercesc_3_1@@QAEXXZ 12039050 f i TraverseSchema.obj
 0001:00038050       ?removeAll@?$RefHash2KeysTableOf@VXSObject@xercesc_3_1@@UStringHasher@2@@xercesc_3_1@@QAEXXZ 12039050 f i XSModel.obj
 0001:00038050       ?removeAll@?$RefHash2KeysTableOf@VSchemaAttDef@xercesc_3_1@@UStringHasher@2@@xercesc_3_1@@QAEXXZ 12039050 f i XMLElementDecl.obj
 0001:000380d0       ?removeLastElement@?$BaseRefVectorOf@VKVStringPair@xercesc_3_1@@@xercesc_3_1@@UAEXXZ 120390d0 f i IGXMLScanner.obj
 0001:000380d0       ?removeLastElement@?$BaseRefVectorOf@VDOMNodeIteratorImpl@xercesc_3_1@@@xercesc_3_1@@UAEXXZ 120390d0 f i DOMDocumentImpl.obj
 0001:000380d0       ?removeLastElement@?$BaseRefVectorOf@VDatatypeValidator@xercesc_3_1@@@xercesc_3_1@@UAEXXZ 120390d0 f i XTemplateSerializer.obj
 0001:000380d0       ?removeLastElement@?$BaseRefVectorOf@VOp@xercesc_3_1@@@xercesc_3_1@@UAEXXZ 120390d0 f i Op.obj
 0001:000380d0       ?removeLastElement@?$BaseRefVectorOf@VXercesLocationPath@xercesc_3_1@@@xercesc_3_1@@UAEXXZ 120390d0 f i XTemplateSerializer.obj
 0001:000380d0       ?removeLastElement@?$BaseRefVectorOf@VSchemaElementDecl@xercesc_3_1@@@xercesc_3_1@@UAEXXZ 120390d0 f i XMLElementDecl.obj
 0001:000380d0       ?removeLastElement@?$BaseRefVectorOf@VXSMultiValueFacet@xercesc_3_1@@@xercesc_3_1@@UAEXXZ 120390d0 f i XSObjectFactory.obj
 0001:000380d0       ?removeLastElement@?$BaseRefVectorOf@VXMLElementDecl@xercesc_3_1@@@xercesc_3_1@@UAEXXZ 120390d0 f i WFXMLScanner.obj
 0001:000380d0       ?removeLastElement@?$BaseRefVectorOf@VXMLEntityDecl@xercesc_3_1@@@xercesc_3_1@@UAEXXZ 120390d0 f i ReaderMgr.obj
 0001:000380d0       ?removeLastElement@?$BaseRefVectorOf@VXSFacet@xercesc_3_1@@@xercesc_3_1@@UAEXXZ 120390d0 f i XSObjectFactory.obj
 0001:000380d0       ?removeLastElement@?$BaseRefVectorOf@VContentSpecNode@xercesc_3_1@@@xercesc_3_1@@UAEXXZ 120390d0 f i XTemplateSerializer.obj
 0001:000380d0       ?removeLastElement@?$BaseRefVectorOf@VXSAnnotation@xercesc_3_1@@@xercesc_3_1@@UAEXXZ 120390d0 f i XSComplexTypeDefinition.obj
 0001:000380d0       ?removeLastElement@?$BaseRefVectorOf@VIdentityConstraint@xercesc_3_1@@@xercesc_3_1@@UAEXXZ 120390d0 f i XMLElementDecl.obj
 0001:000380d0       ?removeLastElement@?$BaseRefVectorOf@VENameMap@xercesc_3_1@@@xercesc_3_1@@UAEXXZ 120390d0 f i TransService.obj
 0001:000380d0       ?removeLastElement@?$BaseRefVectorOf@VDOMNode@xercesc_3_1@@@xercesc_3_1@@UAEXXZ 120390d0 f i DOMDocumentImpl.obj
 0001:000380d0       ?removeLastElement@?$BaseRefVectorOf@VMatch@xercesc_3_1@@@xercesc_3_1@@UAEXXZ 120390d0 f i RegularExpression.obj
 0001:000380d0       ?removeLastElement@?$BaseRefVectorOf@VDOMImplementation@xercesc_3_1@@@xercesc_3_1@@UAEXXZ 120390d0 f i DOMImplementationListImpl.obj
 0001:000380d0       ?removeLastElement@?$BaseRefVectorOf@VXSParticle@xercesc_3_1@@@xercesc_3_1@@UAEXXZ 120390d0 f i XSObjectFactory.obj
 0001:000380d0       ?removeLastElement@?$BaseRefVectorOf@VXSObject@xercesc_3_1@@@xercesc_3_1@@UAEXXZ 120390d0 f i XSModel.obj
 0001:000380d0       ?removeLastElement@?$BaseRefVectorOf@VDOMImplementationSource@xercesc_3_1@@@xercesc_3_1@@UAEXXZ 120390d0 f i DOMImplementationRegistry.obj
 0001:000380d0       ?removeLastElement@?$BaseRefVectorOf@VSchemaAttDef@xercesc_3_1@@@xercesc_3_1@@UAEXXZ 120390d0 f i XMLGrammarPoolImpl.obj
 0001:000380d0       ?removeLastElement@?$BaseRefVectorOf@VXSSimpleTypeDefinition@xercesc_3_1@@@xercesc_3_1@@UAEXXZ 120390d0 f i XSObjectFactory.obj
 0001:000380d0       ?removeLastElement@?$BaseRefVectorOf@VDOMRangeImpl@xercesc_3_1@@@xercesc_3_1@@UAEXXZ 120390d0 f i DOMDocumentImpl.obj
 0001:000380d0       ?removeLastElement@?$BaseRefVectorOf@VDOMDocumentImpl@xercesc_3_1@@@xercesc_3_1@@UAEXXZ 120390d0 f i AbstractDOMParser.obj
 0001:000380d0       ?removeLastElement@?$BaseRefVectorOf@VXMLNumber@xercesc_3_1@@@xercesc_3_1@@UAEXXZ 120390d0 f i XTemplateSerializer.obj
 0001:000380d0       ?removeLastElement@?$BaseRefVectorOf@VXPathMatcher@xercesc_3_1@@@xercesc_3_1@@UAEXXZ 120390d0 f i XPathMatcherStack.obj
 0001:000380d0       ?removeLastElement@?$BaseRefVectorOf@VXercesStep@xercesc_3_1@@@xercesc_3_1@@UAEXXZ 120390d0 f i XTemplateSerializer.obj
 0001:000380d0       ?removeLastElement@?$BaseRefVectorOf@VToken@xercesc_3_1@@@xercesc_3_1@@UAEXXZ 120390d0 f i TokenFactory.obj
 0001:000380d0       ?removeLastElement@?$BaseRefVectorOf@VXSAttributeUse@xercesc_3_1@@@xercesc_3_1@@UAEXXZ 120390d0 f i XSObjectFactory.obj
 0001:000380d0       ?removeLastElement@?$BaseRefVectorOf@VIC_Field@xercesc_3_1@@@xercesc_3_1@@UAEXXZ 120390d0 f i XMLElementDecl.obj
 0001:000380d0       ?removeLastElement@?$BaseRefVectorOf@VXSIDCDefinition@xercesc_3_1@@@xercesc_3_1@@UAEXXZ 120390d0 f i XSObjectFactory.obj
 0001:00038100       ?resetNamespaceList@SchemaAttDef@xercesc_3_1@@QAEXXZ 12039100 f i XMLElementDecl.obj
 0001:00038120       ?serialize@XMLElementDecl@xercesc_3_1@@UAEXAAVXSerializeEngine@2@@Z 12039120 f   XMLElementDecl.obj
 0001:000381a0       ?setAttWildCard@ComplexTypeInfo@xercesc_3_1@@QAEXQAVSchemaAttDef@2@@Z 120391a0 f i XMLElementDecl.obj
 0001:000381c0       ?setAttWildCard@SchemaElementDecl@xercesc_3_1@@QAEXQAVSchemaAttDef@2@@Z 120391c0 f i XMLElementDecl.obj
 0001:000381e0       ?setAttWithTypeId@ComplexTypeInfo@xercesc_3_1@@QAEX_N@Z 120391e0 f i XMLElementDecl.obj
 0001:000381e0       ?setNumeric@DatatypeValidator@xercesc_3_1@@IAEX_N@Z 120391e0 f i XMLAttr.obj
 0001:000381f0       ?setLength@AbstractStringValidator@xercesc_3_1@@IAEXK@Z 120391f0 f i XMLGrammarPoolImpl.obj
 0001:000381f0       ?setSchemaTypeInfo@DOMElementNSImpl@xercesc_3_1@@UAEXPBVDOMTypeInfoImpl@2@@Z 120391f0 f i DOMElementNSImpl.obj
 0001:000381f0       ?setBaseComplexTypeInfo@ComplexTypeInfo@xercesc_3_1@@QAEXQAV12@@Z 120391f0 f i XMLElementDecl.obj
 0001:00038200       ?setBaseAttDecl@SchemaAttDef@xercesc_3_1@@QAEXQAV12@@Z 12039200 f i XMLElementDecl.obj
 0001:00038200       ?setBaseDatatypeValidator@ComplexTypeInfo@xercesc_3_1@@QAEXQAVDatatypeValidator@2@@Z 12039200 f i XMLElementDecl.obj
 0001:00038210       ?setComplexTypeInfo@SchemaElementDecl@xercesc_3_1@@QAEXQAVComplexTypeInfo@2@@Z 12039210 f i XMLElementDecl.obj
 0001:00038220       ?setContentModel@DTDElementDecl@xercesc_3_1@@UAEXQAVXMLContentModel@2@@Z 12039220 f i XMLElementDecl.obj
 0001:00038260       ?setDefaultValue@SchemaElementDecl@xercesc_3_1@@QAEXQBG@Z 12039260 f i XMLElementDecl.obj
 0001:000382d0       ?setElementName@XMLElementDecl@xercesc_3_1@@QAEXQBG0H@Z 120392d0 f   XMLElementDecl.obj
 0001:00038370       ?setElementName@XMLElementDecl@xercesc_3_1@@QAEXQBGH@Z 12039370 f   XMLElementDecl.obj
 0001:00038410       ?setElementName@XMLElementDecl@xercesc_3_1@@QAEXQBVQName@2@@Z 12039410 f   XMLElementDecl.obj
 0001:000384b0       ?setEnumeration@UnionDatatypeValidator@xercesc_3_1@@AAEXPAV?$RefArrayVectorOf@G@2@_N@Z 120394b0 f i XMLElementDecl.obj
 0001:000384f0       ?setNamespaceList@SchemaAttDef@xercesc_3_1@@QAEXQBV?$ValueVectorOf@I@2@@Z 120394f0 f i XMLElementDecl.obj
 0001:000385e0       ?setValidSubstitutionGroups@SchemaGrammar@xercesc_3_1@@QAEXQAV?$RefHash2KeysTableOf@V?$ValueVectorOf@PAVSchemaElementDecl@xercesc_3_1@@@xercesc_3_1@@UStringHasher@2@@2@@Z 120395e0 f i XMLGrammarPoolImpl.obj
 0001:000385e0       ?setCurrentNode@AbstractDOMParser@xercesc_3_1@@IAEXPAVDOMNode@2@@Z 120395e0 f i XSAnnotation.obj
 0001:000385e0       ?setBlockSet@SchemaElementDecl@xercesc_3_1@@QAEXH@Z 120395e0 f i XMLElementDecl.obj
 0001:000385e0       ?setPSVIScope@SchemaAttDef@xercesc_3_1@@QAEXW4PSVIScope@PSVIDefs@2@@Z 120395e0 f i XMLElementDecl.obj
 0001:000385e0       ?setRelatedNode@DOMLocatorImpl@xercesc_3_1@@QAEXQAVDOMNode@2@@Z 120395e0 f i DOMLSParserImpl.obj
 0001:000385f0       ?setAttributeDeclRegistry@SchemaGrammar@xercesc_3_1@@QAEXQAV?$RefHashTableOf@VXMLAttDef@xercesc_3_1@@UStringHasher@2@@2@@Z 120395f0 f i XMLGrammarPoolImpl.obj
 0001:000385f0       ?setContentHandler@SAX2XMLFilterImpl@xercesc_3_1@@UAEXQAVContentHandler@2@@Z 120395f0 f i SAX2XMLFilterImpl.obj
 0001:000385f0       ?setModelType@SchemaElementDecl@xercesc_3_1@@QAEXW4ModelTypes@12@@Z 120395f0 f i XMLElementDecl.obj
 0001:000385f0       ?setModelType@DTDElementDecl@xercesc_3_1@@QAEXW4ModelTypes@12@@Z 120395f0 f i XMLElementDecl.obj
 0001:000385f0       ?updateValidity@PSVIAttribute@xercesc_3_1@@QAEXW4VALIDITY_STATE@PSVIItem@2@@Z 120395f0 f i PSVIAttribute.obj
 0001:000385f0       ?setScopeDefined@ComplexTypeInfo@xercesc_3_1@@QAEXI@Z 120395f0 f i XMLElementDecl.obj
 0001:000385f0       ?setRelatedData@DOMErrorImpl@xercesc_3_1@@QAEXPAX@Z 120395f0 f i DOMLSParserImpl.obj
 0001:000385f0       ?setType@ContentSpecNode@xercesc_3_1@@QAEXW4NodeTypes@12@@Z 120395f0 f i XMLGrammarPoolImpl.obj
 0001:000385f0       ?setType@DatatypeValidator@xercesc_3_1@@IAEXW4ValidatorType@12@@Z 120395f0 f i XMLAttr.obj
 0001:000385f0       ?setValidity@PSVIItem@xercesc_3_1@@QAEXW4VALIDITY_STATE@12@@Z 120395f0 f i PSVIItem.obj
 0001:000385f0       ?setElemStack@ValidationContextImpl@xercesc_3_1@@UAEXPAVElemStack@2@@Z 120395f0 f i ValidationContextImpl.obj
 0001:000385f0       ?setParseContext@RegxParser@xercesc_3_1@@QAEXW4parserStateContext@12@@Z 120395f0 f i ParserForXMLSchema.obj
 0001:000385f0       ?setGrammar@SchemaValidator@xercesc_3_1@@UAEXPAVGrammar@2@@Z 120395f0 f i IGXMLScanner.obj
 0001:000385f0       ?setNamespaceURI@IdentityConstraint@xercesc_3_1@@QAEXH@Z 120395f0 f i XMLElementDecl.obj
 0001:00038600       ?setSubstitutionGroupElem@SchemaElementDecl@xercesc_3_1@@QAEXQAV12@@Z 12039600 f i XMLElementDecl.obj
 0001:00038600       ?setMaxLength@AbstractStringValidator@xercesc_3_1@@IAEXK@Z 12039600 f i XMLGrammarPoolImpl.obj
 0001:00038610       ?setTypeName@ComplexTypeInfo@xercesc_3_1@@QAEXQBG@Z 12039610 f i XMLElementDecl.obj
 0001:00038700       ?storeElementDecl@XMLElementDecl@xercesc_3_1@@SAXAAVXSerializeEngine@2@QAV12@@Z 12039700 f   XMLElementDecl.obj
 0001:00038740       ?validate@UnionDatatypeValidator@xercesc_3_1@@UAEXQBGQAVValidationContext@2@QAVMemoryManager@2@@Z 12039740 f i XMLElementDecl.obj
 0001:00038740       ?validate@BooleanDatatypeValidator@xercesc_3_1@@UAEXQBGQAVValidationContext@2@QAVMemoryManager@2@@Z 12039740 f i BooleanDatatypeValidator.obj
 0001:00038760       ??0XMLEntityDecl@xercesc_3_1@@QAE@QAVMemoryManager@1@@Z 12039760 f   XMLEntityDecl.obj
 0001:00038800       ??0XMLEntityDecl@xercesc_3_1@@QAE@QBG0QAVMemoryManager@1@@Z 12039800 f   XMLEntityDecl.obj
 0001:00038920       ??0XMLEntityDecl@xercesc_3_1@@QAE@QBGGQAVMemoryManager@1@@Z 12039920 f   XMLEntityDecl.obj
 0001:00038a40       ??0XMLEntityDecl@xercesc_3_1@@QAE@QBGQAVMemoryManager@1@@Z 12039a40 f   XMLEntityDecl.obj
 0001:00038b20       ??1XMLEntityDecl@xercesc_3_1@@UAE@XZ 12039b20 f   XMLEntityDecl.obj
 0001:00038bc0       ??_EXMLEntityDecl@xercesc_3_1@@UAEPAXI@Z 12039bc0 f i XMLEntityDecl.obj
 0001:00038c20       ?cleanUp@XMLEntityDecl@xercesc_3_1@@AAEXXZ 12039c20 f   XMLEntityDecl.obj
 0001:00038c70       ?getProtoType@XMLEntityDecl@xercesc_3_1@@UBEPAVXProtoType@2@XZ 12039c70 f   XMLEntityDecl.obj
 0001:00038c80       ?serialize@XMLEntityDecl@xercesc_3_1@@UAEXAAVXSerializeEngine@2@@Z 12039c80 f   XMLEntityDecl.obj
 0001:00038dc0       ?setName@XMLEntityDecl@xercesc_3_1@@QAEXQBG@Z 12039dc0 f   XMLEntityDecl.obj
 0001:00038e30       ??0XMLFormatter@xercesc_3_1@@QAE@QBD0QAVXMLFormatTarget@1@W4EscapeFlags@01@W4UnRepFlags@01@QAVMemoryManager@1@@Z 12039e30 f   XMLFormatter.obj
 0001:00039000       ??0XMLFormatter@xercesc_3_1@@QAE@QBDQAVXMLFormatTarget@1@W4EscapeFlags@01@W4UnRepFlags@01@QAVMemoryManager@1@@Z 1203a000 f   XMLFormatter.obj
 0001:00039170       ??0XMLFormatter@xercesc_3_1@@QAE@QBG0QAVXMLFormatTarget@1@W4EscapeFlags@01@W4UnRepFlags@01@QAVMemoryManager@1@@Z 1203a170 f   XMLFormatter.obj
 0001:000392d0       ??0XMLFormatter@xercesc_3_1@@QAE@QBGQAVXMLFormatTarget@1@W4EscapeFlags@01@W4UnRepFlags@01@QAVMemoryManager@1@@Z 1203a2d0 f   XMLFormatter.obj
 0001:00039430       ??1XMLFormatter@xercesc_3_1@@QAE@XZ 1203a430 f   XMLFormatter.obj
 0001:000394b0       ??6XMLFormatter@xercesc_3_1@@QAEAAV01@G@Z 1203a4b0 f   XMLFormatter.obj
 0001:000394e0       ??6XMLFormatter@xercesc_3_1@@QAEAAV01@QBG@Z 1203a4e0 f   XMLFormatter.obj
 0001:00039520       ?formatBuf@XMLFormatter@xercesc_3_1@@QAEXQBGKW4EscapeFlags@12@W4UnRepFlags@12@@Z 1203a520 f   XMLFormatter.obj
 0001:000397a0       ?getCharRef@XMLFormatter@xercesc_3_1@@AAEPBEAAKAAPAEPBG@Z 1203a7a0 f   XMLFormatter.obj
 0001:00039830       ?handleUnEscapedChars@XMLFormatter@xercesc_3_1@@AAEKPBGKW4UnRepFlags@12@@Z 1203a830 f   XMLFormatter.obj
 0001:000398c0       ?inEscapeList@XMLFormatter@xercesc_3_1@@AAE_NW4EscapeFlags@12@G@Z 1203a8c0 f   XMLFormatter.obj
 0001:00039930       ?specialFormat@XMLFormatter@xercesc_3_1@@AAEXQBGKW4EscapeFlags@12@@Z 1203a930 f   XMLFormatter.obj
 0001:000399f0       ?writeBOM@XMLFormatter@xercesc_3_1@@QAEXQBEK@Z 1203a9f0 f   XMLFormatter.obj
 0001:00039a10       ?writeCharRef@XMLFormatter@xercesc_3_1@@AAEXABG@Z 1203aa10 f   XMLFormatter.obj
 0001:00039ab0       ?writeCharRef@XMLFormatter@xercesc_3_1@@AAEXK@Z 1203aab0 f   XMLFormatter.obj
 0001:00039b70       ??0XMLGrammarDescription@xercesc_3_1@@IAE@QAVMemoryManager@1@@Z 1203ab70 f   XMLGrammarDescription.obj
 0001:00039bd0       ??1XMLGrammarDescription@xercesc_3_1@@UAE@XZ 1203abd0 f   XMLGrammarDescription.obj
 0001:00039c20       ??_EXMLGrammarDescription@xercesc_3_1@@UAEPAXI@Z 1203ac20 f i XMLGrammarDescription.obj
 0001:00039cd0       ?getProtoType@XMLGrammarDescription@xercesc_3_1@@UBEPAVXProtoType@2@XZ 1203acd0 f   XMLGrammarDescription.obj
 0001:00039ce0       ??0?$BaseRefVectorOf@VSchemaAttDef@xercesc_3_1@@@xercesc_3_1@@QAE@K_NQAVMemoryManager@1@@Z 1203ace0 f i XMLGrammarPoolImpl.obj
 0001:00039d40       ??0?$RefHash3KeysIdPool@VSchemaElementDecl@xercesc_3_1@@UStringHasher@2@@xercesc_3_1@@QAE@K_NKQAVMemoryManager@1@@Z 1203ad40 f i XMLGrammarPoolImpl.obj
 0001:00039db0       ??0?$RefHash3KeysIdPoolEnumerator@VSchemaElementDecl@xercesc_3_1@@UStringHasher@2@@xercesc_3_1@@QAE@QAV?$RefHash3KeysIdPool@VSchemaElementDecl@xercesc_3_1@@UStringHasher@2@@1@_NQAVMemoryManager@1@@Z 1203adb0 f i XMLGrammarPoolImpl.obj
 0001:00039e90       ??0?$RefHashTableOfEnumerator@VGrammar@xercesc_3_1@@UStringHasher@2@@xercesc_3_1@@QAE@QAV?$RefHashTableOf@VGrammar@xercesc_3_1@@UStringHasher@2@@1@_NQAVMemoryManager@1@@Z 1203ae90 f i XMLGrammarPoolImpl.obj
 0001:00039f50       ??0ContentSpecNode@xercesc_3_1@@QAE@QAVMemoryManager@1@@Z 1203af50 f i XMLGrammarPoolImpl.obj
 0001:00039fe0       ??0ContentSpecNode@xercesc_3_1@@QAE@QAVQName@1@QAVMemoryManager@1@@Z 1203afe0 f i XMLGrammarPoolImpl.obj
 0001:0003a0b0       ??0ContentSpecNode@xercesc_3_1@@QAE@QAVQName@1@_NQAVMemoryManager@1@@Z 1203b0b0 f i XMLGrammarPoolImpl.obj
 0001:0003a190       ??0ContentSpecNode@xercesc_3_1@@QAE@QAVXMLElementDecl@1@QAVMemoryManager@1@@Z 1203b190 f i XMLGrammarPoolImpl.obj
 0001:0003a260       ??0ContentSpecNode@xercesc_3_1@@QAE@W4NodeTypes@01@QAV01@1_N2QAVMemoryManager@1@@Z 1203b260 f i XMLGrammarPoolImpl.obj
 0001:0003a300       ??0DTDEntityDecl@xercesc_3_1@@QAE@QAVMemoryManager@1@@Z 1203b300 f i XMLGrammarPoolImpl.obj
 0001:0003a370       ??0DTDEntityDecl@xercesc_3_1@@QAE@QBG0_NQAVMemoryManager@1@@Z 1203b370 f i XMLGrammarPoolImpl.obj
 0001:0003a3e0       ??0DTDEntityDecl@xercesc_3_1@@QAE@QBGG_N1@Z 1203b3e0 f i XMLGrammarPoolImpl.obj
 0001:0003a460       ??0DTDEntityDecl@xercesc_3_1@@QAE@QBG_NQAVMemoryManager@1@@Z 1203b460 f i XMLGrammarPoolImpl.obj
 0001:0003a4d0       ??0XMLGrammarPool@xercesc_3_1@@IAE@QAVMemoryManager@1@@Z 1203b4d0 f i XMLGrammarPoolImpl.obj
 0001:0003a4f0       ??0XMLGrammarPoolImpl@xercesc_3_1@@QAE@QAVMemoryManager@1@@Z 1203b4f0 f   XMLGrammarPoolImpl.obj
 0001:0003a620       ??0XMLRefInfo@xercesc_3_1@@QAE@QBG_N1QAVMemoryManager@1@@Z 1203b620 f i XMLGrammarPoolImpl.obj
 0001:0003a6e0       ??0XercesNamespaceResolver@xercesc_3_1@@QAE@ABV01@@Z 1203b6e0 f i XMLGrammarPoolImpl.obj
 0001:0003a6f0       ??0XercesNamespaceResolver@xercesc_3_1@@QAE@XZ 1203b6f0 f i XMLGrammarPoolImpl.obj
 0001:0003a700       ??1?$BaseRefVectorOf@VSchemaAttDef@xercesc_3_1@@@xercesc_3_1@@UAE@XZ 1203b700 f i XMLGrammarPoolImpl.obj
 0001:0003a710       ??1?$NameIdPoolEnumerator@VDTDElementDecl@xercesc_3_1@@@xercesc_3_1@@UAE@XZ 1203b710 f i XMLGrammarPoolImpl.obj
 0001:0003a760       ??1?$NameIdPoolEnumerator@VDTDEntityDecl@xercesc_3_1@@@xercesc_3_1@@UAE@XZ 1203b760 f i XMLGrammarPoolImpl.obj
 0001:0003a7b0       ??1?$NameIdPoolEnumerator@VXMLNotationDecl@xercesc_3_1@@@xercesc_3_1@@UAE@XZ 1203b7b0 f i XMLGrammarPoolImpl.obj
 0001:0003a800       ??1?$RefHash3KeysIdPoolEnumerator@VSchemaElementDecl@xercesc_3_1@@UStringHasher@2@@xercesc_3_1@@UAE@XZ 1203b800 f i XMLGrammarPoolImpl.obj
 0001:0003a8a0       ??1?$RefHashTableOfEnumerator@VGrammar@xercesc_3_1@@UStringHasher@2@@xercesc_3_1@@UAE@XZ 1203b8a0 f i XMLGrammarPoolImpl.obj
 0001:0003a930       ??1?$RefVectorOf@VSchemaAttDef@xercesc_3_1@@@xercesc_3_1@@UAE@XZ 1203b930 f i XMLGrammarPoolImpl.obj
 0001:0003a9c0       ??1?$XMLEnumerator@VDTDElementDecl@xercesc_3_1@@@xercesc_3_1@@UAE@XZ 1203b9c0 f i XMLGrammarPoolImpl.obj
 0001:0003a9d0       ??1?$XMLEnumerator@VDTDEntityDecl@xercesc_3_1@@@xercesc_3_1@@UAE@XZ 1203b9d0 f i XMLGrammarPoolImpl.obj
 0001:0003a9e0       ??1?$XMLEnumerator@VGrammar@xercesc_3_1@@@xercesc_3_1@@UAE@XZ 1203b9e0 f i XMLGrammarPoolImpl.obj
 0001:0003a9f0       ??1?$XMLEnumerator@VSchemaElementDecl@xercesc_3_1@@@xercesc_3_1@@UAE@XZ 1203b9f0 f i XMLGrammarPoolImpl.obj
 0001:0003aa00       ??1?$XMLEnumerator@VXMLNotationDecl@xercesc_3_1@@@xercesc_3_1@@UAE@XZ 1203ba00 f i XMLGrammarPoolImpl.obj
 0001:0003aa10       ??1ContentSpecNode@xercesc_3_1@@UAE@XZ 1203ba10 f i XMLGrammarPoolImpl.obj
 0001:0003aaa0       ??1DTDEntityDecl@xercesc_3_1@@UAE@XZ 1203baa0 f i XMLGrammarPoolImpl.obj
 0001:0003aaf0       ??1XMLGrammarPool@xercesc_3_1@@UAE@XZ 1203baf0 f i XMLGrammarPoolImpl.obj
 0001:0003ab00       ??1XMLGrammarPoolImpl@xercesc_3_1@@UAE@XZ 1203bb00 f   XMLGrammarPoolImpl.obj
 0001:0003abb0       ??1XMLRefInfo@xercesc_3_1@@UAE@XZ 1203bbb0 f i XMLGrammarPoolImpl.obj
 0001:0003ac10       ??1XPathScanner@xercesc_3_1@@UAE@XZ 1203bc10 f i XMLGrammarPoolImpl.obj
 0001:0003ac20       ??1XPathScannerForSchema@xercesc_3_1@@UAE@XZ 1203bc20 f i XMLGrammarPoolImpl.obj
 0001:0003ac70       ??1XercesLocationPath@xercesc_3_1@@UAE@XZ 1203bc70 f i XMLGrammarPoolImpl.obj
 0001:0003acd0       ??1XercesNodeTest@xercesc_3_1@@UAE@XZ 1203bcd0 f i XMLGrammarPoolImpl.obj
 0001:0003ad30       ??1XercesStep@xercesc_3_1@@UAE@XZ 1203bd30 f i XMLGrammarPoolImpl.obj
 0001:0003ad90       ??_EContentSpecNode@xercesc_3_1@@UAEPAXI@Z 1203bd90 f i XMLGrammarPoolImpl.obj
 0001:0003adf0       ??_EDTDEntityDecl@xercesc_3_1@@UAEPAXI@Z 1203bdf0 f i XMLGrammarPoolImpl.obj
 0001:0003aea0       ??_EXMLGrammarPool@xercesc_3_1@@UAEPAXI@Z 1203bea0 f i XMLGrammarPoolImpl.obj
 0001:0003af00       ??_EXMLGrammarPoolImpl@xercesc_3_1@@UAEPAXI@Z 1203bf00 f i XMLGrammarPoolImpl.obj
 0001:0003af60       ??_EXMLRefInfo@xercesc_3_1@@UAEPAXI@Z 1203bf60 f i XMLGrammarPoolImpl.obj
 0001:0003b020       ??_EXPathScanner@xercesc_3_1@@UAEPAXI@Z 1203c020 f i XMLGrammarPoolImpl.obj
 0001:0003b080       ??_EXPathScannerForSchema@xercesc_3_1@@UAEPAXI@Z 1203c080 f i XMLGrammarPoolImpl.obj
 0001:0003b130       ??_EXercesLocationPath@xercesc_3_1@@UAEPAXI@Z 1203c130 f i XMLGrammarPoolImpl.obj
 0001:0003b1f0       ??_EXercesNodeTest@xercesc_3_1@@UAEPAXI@Z 1203c1f0 f i XMLGrammarPoolImpl.obj
 0001:0003b2b0       ??_EXercesStep@xercesc_3_1@@UAEPAXI@Z 1203c2b0 f i XMLGrammarPoolImpl.obj
 0001:0003b370       ??_FContentSpecNode@xercesc_3_1@@QAEXXZ 1203c370 f i XMLGrammarPoolImpl.obj
 0001:0003b400       ??_FDTDEntityDecl@xercesc_3_1@@QAEXXZ 1203c400 f i XMLGrammarPoolImpl.obj
 0001:0003b470       ??_FDTDGrammar@xercesc_3_1@@QAEXXZ 1203c470 f i XMLGrammarPoolImpl.obj
 0001:0003b480       ??_FDatatypeValidatorFactory@xercesc_3_1@@QAEXXZ 1203c480 f i XMLGrammarPoolImpl.obj
 0001:0003b490       ??_FIDDatatypeValidator@xercesc_3_1@@QAEXXZ 1203c490 f i XMLGrammarPoolImpl.obj
 0001:0003b4a0       ??_FNamespaceScope@xercesc_3_1@@QAEXXZ 1203c4a0 f i XMLGrammarPoolImpl.obj
 0001:0003b4b0       ??_FSchemaGrammar@xercesc_3_1@@QAEXXZ 1203c4b0 f i XMLGrammarPoolImpl.obj
 0001:0003b4c0       ??_FStringDatatypeValidator@xercesc_3_1@@QAEXXZ 1203c4c0 f i XMLGrammarPoolImpl.obj
 0001:0003b4d0       ??_FXMLDTDDescriptionImpl@xercesc_3_1@@QAEXXZ 1203c4d0 f i XMLGrammarPoolImpl.obj
 0001:0003b4e0       ??_FXMLGrammarPool@xercesc_3_1@@QAEXXZ 1203c4e0 f i XMLGrammarPoolImpl.obj
 0001:0003b500       ??_FXMLGrammarPoolImpl@xercesc_3_1@@QAEXXZ 1203c500 f i XMLGrammarPoolImpl.obj
 0001:0003b510       ??_FXMLRefInfo@xercesc_3_1@@QAEXXZ 1203c510 f i XMLGrammarPoolImpl.obj
 0001:0003b520       ??_FXMLSchemaDescription@xercesc_3_1@@QAEXXZ 1203c520 f i XMLGrammarPoolImpl.obj
 0001:0003b530       ??_FXMLSchemaDescriptionImpl@xercesc_3_1@@QAEXXZ 1203c530 f i XMLGrammarPoolImpl.obj
 0001:0003b540       ??_FXercesAttGroupInfo@xercesc_3_1@@QAEXXZ 1203c540 f i XMLGrammarPoolImpl.obj
 0001:0003b550       ??_FXercesGroupInfo@xercesc_3_1@@QAEXXZ 1203c550 f i XMLGrammarPoolImpl.obj
 0001:0003b560       ??_FXercesLocationPath@xercesc_3_1@@QAEXXZ 1203c560 f i XMLGrammarPoolImpl.obj
 0001:0003b570       ??_FXercesNodeTest@xercesc_3_1@@QAEXXZ 1203c570 f i XMLGrammarPoolImpl.obj
 0001:0003b580       ??_FXercesStep@xercesc_3_1@@QAEXXZ 1203c580 f i XMLGrammarPoolImpl.obj
 0001:0003b590       ??_FXercesXPath@xercesc_3_1@@QAEXXZ 1203c590 f i XMLGrammarPoolImpl.obj
 0001:0003b5a0       ??_E?$BaseRefVectorOf@VSchemaAttDef@xercesc_3_1@@@xercesc_3_1@@UAEPAXI@Z 1203c5a0 f i XMLGrammarPoolImpl.obj
 0001:0003b5a0       ??_G?$BaseRefVectorOf@VSchemaAttDef@xercesc_3_1@@@xercesc_3_1@@UAEPAXI@Z 1203c5a0 f i XMLGrammarPoolImpl.obj
 0001:0003b5d0       ??_E?$NameIdPoolEnumerator@VDTDElementDecl@xercesc_3_1@@@xercesc_3_1@@UAEPAXI@Z 1203c5d0 f i XMLGrammarPoolImpl.obj
 0001:0003b5d0       ??_G?$NameIdPoolEnumerator@VDTDElementDecl@xercesc_3_1@@@xercesc_3_1@@UAEPAXI@Z 1203c5d0 f i XMLGrammarPoolImpl.obj
 0001:0003b630       ??_G?$NameIdPoolEnumerator@VDTDEntityDecl@xercesc_3_1@@@xercesc_3_1@@UAEPAXI@Z 1203c630 f i XMLGrammarPoolImpl.obj
 0001:0003b630       ??_E?$NameIdPoolEnumerator@VDTDEntityDecl@xercesc_3_1@@@xercesc_3_1@@UAEPAXI@Z 1203c630 f i XMLGrammarPoolImpl.obj
 0001:0003b690       ??_E?$NameIdPoolEnumerator@VXMLNotationDecl@xercesc_3_1@@@xercesc_3_1@@UAEPAXI@Z 1203c690 f i XMLGrammarPoolImpl.obj
 0001:0003b690       ??_G?$NameIdPoolEnumerator@VXMLNotationDecl@xercesc_3_1@@@xercesc_3_1@@UAEPAXI@Z 1203c690 f i XMLGrammarPoolImpl.obj
 0001:0003b6f0       ??_E?$RefHash3KeysIdPoolEnumerator@VSchemaElementDecl@xercesc_3_1@@UStringHasher@2@@xercesc_3_1@@UAEPAXI@Z 1203c6f0 f i XMLGrammarPoolImpl.obj
 0001:0003b6f0       ??_G?$RefHash3KeysIdPoolEnumerator@VSchemaElementDecl@xercesc_3_1@@UStringHasher@2@@xercesc_3_1@@UAEPAXI@Z 1203c6f0 f i XMLGrammarPoolImpl.obj
 0001:0003b720       ??_E?$RefHashTableOfEnumerator@VGrammar@xercesc_3_1@@UStringHasher@2@@xercesc_3_1@@UAEPAXI@Z 1203c720 f i XMLGrammarPoolImpl.obj
 0001:0003b720       ??_G?$RefHashTableOfEnumerator@VGrammar@xercesc_3_1@@UStringHasher@2@@xercesc_3_1@@UAEPAXI@Z 1203c720 f i XMLGrammarPoolImpl.obj
 0001:0003b7c0       ??_E?$RefVectorOf@VSchemaAttDef@xercesc_3_1@@@xercesc_3_1@@UAEPAXI@Z 1203c7c0 f i XMLGrammarPoolImpl.obj
 0001:0003b7c0       ??_G?$RefVectorOf@VSchemaAttDef@xercesc_3_1@@@xercesc_3_1@@UAEPAXI@Z 1203c7c0 f i XMLGrammarPoolImpl.obj
 0001:0003b7f0       ??_G?$XMLEnumerator@VDTDElementDecl@xercesc_3_1@@@xercesc_3_1@@UAEPAXI@Z 1203c7f0 f i XMLGrammarPoolImpl.obj
 0001:0003b7f0       ??_E?$XMLEnumerator@VDTDElementDecl@xercesc_3_1@@@xercesc_3_1@@UAEPAXI@Z 1203c7f0 f i XMLGrammarPoolImpl.obj
 0001:0003b820       ??_G?$XMLEnumerator@VDTDEntityDecl@xercesc_3_1@@@xercesc_3_1@@UAEPAXI@Z 1203c820 f i XMLGrammarPoolImpl.obj
 0001:0003b820       ??_E?$XMLEnumerator@VDTDEntityDecl@xercesc_3_1@@@xercesc_3_1@@UAEPAXI@Z 1203c820 f i XMLGrammarPoolImpl.obj
 0001:0003b850       ??_E?$XMLEnumerator@VGrammar@xercesc_3_1@@@xercesc_3_1@@UAEPAXI@Z 1203c850 f i XMLGrammarPoolImpl.obj
 0001:0003b850       ??_G?$XMLEnumerator@VGrammar@xercesc_3_1@@@xercesc_3_1@@UAEPAXI@Z 1203c850 f i XMLGrammarPoolImpl.obj
 0001:0003b880       ??_G?$XMLEnumerator@VSchemaElementDecl@xercesc_3_1@@@xercesc_3_1@@UAEPAXI@Z 1203c880 f i XMLGrammarPoolImpl.obj
 0001:0003b880       ??_E?$XMLEnumerator@VSchemaElementDecl@xercesc_3_1@@@xercesc_3_1@@UAEPAXI@Z 1203c880 f i XMLGrammarPoolImpl.obj
 0001:0003b8b0       ??_G?$XMLEnumerator@VXMLNotationDecl@xercesc_3_1@@@xercesc_3_1@@UAEPAXI@Z 1203c8b0 f i XMLGrammarPoolImpl.obj
 0001:0003b8b0       ??_E?$XMLEnumerator@VXMLNotationDecl@xercesc_3_1@@@xercesc_3_1@@UAEPAXI@Z 1203c8b0 f i XMLGrammarPoolImpl.obj
 0001:0003b8e0       ?Reset@?$NameIdPoolEnumerator@VDTDEntityDecl@xercesc_3_1@@@xercesc_3_1@@UAEXXZ 1203c8e0 f i XMLGrammarPoolImpl.obj
 0001:0003b8e0       ?Reset@?$NameIdPoolEnumerator@VDTDElementDecl@xercesc_3_1@@@xercesc_3_1@@UAEXXZ 1203c8e0 f i XMLGrammarPoolImpl.obj
 0001:0003b8e0       ?Reset@?$NameIdPoolEnumerator@VXMLNotationDecl@xercesc_3_1@@@xercesc_3_1@@UAEXXZ 1203c8e0 f i XMLGrammarPoolImpl.obj
 0001:0003b8f0       ?Reset@?$RefHash3KeysIdPoolEnumerator@VSchemaElementDecl@xercesc_3_1@@UStringHasher@2@@xercesc_3_1@@UAEXXZ 1203c8f0 f i XMLGrammarPoolImpl.obj
 0001:0003b900       ?addAnyAttDef@XercesAttGroupInfo@xercesc_3_1@@QAEXQAVSchemaAttDef@2@_N@Z 1203c900 f i XMLGrammarPoolImpl.obj
 0001:0003ba40       ?addAttDef@XercesAttGroupInfo@xercesc_3_1@@QAEXQAVSchemaAttDef@2@_N@Z 1203ca40 f i XMLGrammarPoolImpl.obj
 0001:0003bb90       ?addElement@XercesGroupInfo@xercesc_3_1@@QAEXQAVSchemaElementDecl@2@@Z 1203cb90 f i XMLGrammarPoolImpl.obj
 0001:0003bbd0       ?add@DOMImplementationListImpl@xercesc_3_1@@QAEXPAVDOMImplementation@2@@Z 1203cbd0 f i DOMImplementationListImpl.obj
 0001:0003bbd0       ?add@DOMStringListImpl@xercesc_3_1@@QAEXPBG@Z 1203cbd0 f i DOMStringListImpl.obj
 0001:0003bbd0       ?addStep@XercesLocationPath@xercesc_3_1@@QAEXQAVXercesStep@2@@Z 1203cbd0 f i XMLGrammarPoolImpl.obj
 0001:0003bc00       ?addToken@XPathScanner@xercesc_3_1@@MAEXQAV?$ValueVectorOf@H@2@H@Z 1203cc00 f i XMLGrammarPoolImpl.obj
 0001:0003bc30       ?anyAttributeAt@XercesAttGroupInfo@xercesc_3_1@@QAEPAVSchemaAttDef@2@K@Z 1203cc30 f i XMLGrammarPoolImpl.obj
 0001:0003bc30       ?anyAttributeAt@XercesAttGroupInfo@xercesc_3_1@@QBEPBVSchemaAttDef@2@K@Z 1203cc30 f i XMLGrammarPoolImpl.obj
 0001:0003bc50       ?anyAttributeCount@XercesAttGroupInfo@xercesc_3_1@@QBEKXZ 1203cc50 f i XMLGrammarPoolImpl.obj
 0001:0003bc60       ?getFieldAt@IdentityConstraint@xercesc_3_1@@QAEPAVIC_Field@2@K@Z 1203cc60 f i XMLElementDecl.obj
 0001:0003bc60       ?getFieldAt@IdentityConstraint@xercesc_3_1@@QBEPBVIC_Field@2@K@Z 1203cc60 f i XMLElementDecl.obj
 0001:0003bc60       ?attributeAt@XercesAttGroupInfo@xercesc_3_1@@QAEPAVSchemaAttDef@2@K@Z 1203cc60 f i XMLGrammarPoolImpl.obj
 0001:0003bc60       ?attributeAt@XercesAttGroupInfo@xercesc_3_1@@QBEPBVSchemaAttDef@2@K@Z 1203cc60 f i XMLGrammarPoolImpl.obj
 0001:0003bc80       ?cacheGrammar@XMLGrammarPoolImpl@xercesc_3_1@@UAE_NQAVGrammar@2@@Z 1203cc80 f   XMLGrammarPoolImpl.obj
 0001:0003bcf0       ?cleanUp@DatatypeValidatorFactory@xercesc_3_1@@AAEXXZ 1203ccf0 f i XMLGrammarPoolImpl.obj
 0001:0003bd30       ?cleanUp@XMLGrammarPoolImpl@xercesc_3_1@@AAEXXZ 1203cd30 f   XMLGrammarPoolImpl.obj
 0001:0003bd40       ?clear@XMLGrammarPoolImpl@xercesc_3_1@@UAE_NXZ 1203cd40 f   XMLGrammarPoolImpl.obj
 0001:0003bd80       ?createDTDDescription@XMLGrammarPoolImpl@xercesc_3_1@@UAEPAVXMLDTDDescription@2@QBG@Z 1203cd80 f   XMLGrammarPoolImpl.obj
 0001:0003be10       ?createDTDGrammar@XMLGrammarPoolImpl@xercesc_3_1@@UAEPAVDTDGrammar@2@XZ 1203ce10 f   XMLGrammarPoolImpl.obj
 0001:0003bea0       ?createSchemaDescription@XMLGrammarPoolImpl@xercesc_3_1@@UAEPAVXMLSchemaDescription@2@QBG@Z 1203cea0 f   XMLGrammarPoolImpl.obj
 0001:0003bf30       ?createSchemaGrammar@XMLGrammarPoolImpl@xercesc_3_1@@UAEPAVSchemaGrammar@2@XZ 1203cf30 f   XMLGrammarPoolImpl.obj
 0001:0003bfc0       ?createXSModel@XMLGrammarPoolImpl@xercesc_3_1@@EAEXXZ 1203cfc0 f   XMLGrammarPoolImpl.obj
 0001:0003c060       ?deserializeGrammars@XMLGrammarPoolImpl@xercesc_3_1@@UAEXQAVBinInputStream@2@@Z 1203d060 f   XMLGrammarPoolImpl.obj
 0001:0003c2e0       ?elementAt@?$BaseRefVectorOf@VSchemaAttDef@xercesc_3_1@@@xercesc_3_1@@QAEPAVSchemaAttDef@2@K@Z 1203d2e0 f i XMLGrammarPoolImpl.obj
 0001:0003c2e0       ?elementAt@?$BaseRefVectorOf@VIC_Field@xercesc_3_1@@@xercesc_3_1@@QAEPAVIC_Field@2@K@Z 1203d2e0 f i XMLElementDecl.obj
 0001:0003c2e0       ?elementAt@?$BaseRefVectorOf@VSchemaElementDecl@xercesc_3_1@@@xercesc_3_1@@QAEPAVSchemaElementDecl@2@K@Z 1203d2e0 f i XMLElementDecl.obj
 0001:0003c2e0       ?elementAt@?$BaseRefVectorOf@VXPathMatcher@xercesc_3_1@@@xercesc_3_1@@QAEPAVXPathMatcher@2@K@Z 1203d2e0 f i IGXMLScanner.obj
 0001:0003c2e0       ?elementAt@?$BaseRefVectorOf@VXMLElementDecl@xercesc_3_1@@@xercesc_3_1@@QAEPAVXMLElementDecl@2@K@Z 1203d2e0 f i WFXMLScanner.obj
 0001:0003c2e0       ?elementAt@?$BaseRefVectorOf@VXMLNumber@xercesc_3_1@@@xercesc_3_1@@QAEPAVXMLNumber@2@K@Z 1203d2e0 f i XTemplateSerializer.obj
 0001:0003c2e0       ?elementAt@?$BaseRefVectorOf@VReferencePosition@RegxParser@xercesc_3_1@@@xercesc_3_1@@QAEPAVReferencePosition@RegxParser@2@K@Z 1203d2e0 f i RegxParser.obj
 0001:0003c2e0       ?elementAt@?$BaseRefVectorOf@VKVStringPair@xercesc_3_1@@@xercesc_3_1@@QAEPAVKVStringPair@2@K@Z 1203d2e0 f i IGXMLScanner.obj
 0001:0003c2e0       ?elementAt@?$BaseRefVectorOf@VXercesLocationPath@xercesc_3_1@@@xercesc_3_1@@QAEPAVXercesLocationPath@2@K@Z 1203d2e0 f i XTemplateSerializer.obj
 0001:0003c2e0       ?elementAt@?$BaseRefVectorOf@VIdentityConstraint@xercesc_3_1@@@xercesc_3_1@@QAEPAVIdentityConstraint@2@K@Z 1203d2e0 f i XMLElementDecl.obj
 0001:0003c2e0       ?elementAt@?$BaseRefVectorOf@VXSObject@xercesc_3_1@@@xercesc_3_1@@QAEPAVXSObject@2@K@Z 1203d2e0 f i XSModel.obj
 0001:0003c2e0       ?elementAt@?$BaseRefVectorOf@VPSVIAttributeStorage@xercesc_3_1@@@xercesc_3_1@@QAEPAVPSVIAttributeStorage@2@K@Z 1203d2e0 f i PSVIAttributeList.obj
 0001:0003c2e0       ?elementAt@?$BaseRefVectorOf@G@xercesc_3_1@@QAEPAGK@Z 1203d2e0 f i IGXMLScanner2.obj
 0001:0003c2e0       ?elementAt@?$BaseRefVectorOf@VDOMRangeImpl@xercesc_3_1@@@xercesc_3_1@@QAEPAVDOMRangeImpl@2@K@Z 1203d2e0 f i DOMCDATASectionImpl.obj
 0001:0003c2e0       ?elementAt@?$BaseRefVectorOf@VDOMImplementation@xercesc_3_1@@@xercesc_3_1@@QAEPAVDOMImplementation@2@K@Z 1203d2e0 f i DOMImplementationListImpl.obj
 0001:0003c2e0       ?elementAt@?$BaseRefVectorOf@VDOMNode@xercesc_3_1@@@xercesc_3_1@@QAEPAVDOMNode@2@K@Z 1203d2e0 f i DOMRangeImpl.obj
 0001:0003c2e0       ?elementAt@?$BaseRefVectorOf@VDatatypeValidator@xercesc_3_1@@@xercesc_3_1@@QAEPAVDatatypeValidator@2@K@Z 1203d2e0 f i XMLElementDecl.obj
 0001:0003c2e0       ?elementAt@?$BaseRefVectorOf@VENameMap@xercesc_3_1@@@xercesc_3_1@@QAEPAVENameMap@2@K@Z 1203d2e0 f i TransService.obj
 0001:0003c2e0       ?elementAt@?$BaseRefVectorOf@VToken@xercesc_3_1@@@xercesc_3_1@@QAEPAVToken@2@K@Z 1203d2e0 f i ParserForXMLSchema.obj
 0001:0003c2e0       ?elementAt@?$BaseRefVectorOf@VScope@InScopeNamespaces@DOMNormalizer@xercesc_3_1@@@xercesc_3_1@@QAEPAVScope@InScopeNamespaces@DOMNormalizer@2@K@Z 1203d2e0 f i DOMNormalizer.obj
 0001:0003c2e0       ?elementAt@?$BaseRefVectorOf@VDOMNodeIteratorImpl@xercesc_3_1@@@xercesc_3_1@@QAEPAVDOMNodeIteratorImpl@2@K@Z 1203d2e0 f i DOMDocumentImpl.obj
 0001:0003c2e0       ?elementAt@?$BaseRefVectorOf@VXercesStep@xercesc_3_1@@@xercesc_3_1@@QAEPAVXercesStep@2@K@Z 1203d2e0 f i XMLGrammarPoolImpl.obj
 0001:0003c2e0       ?elementAt@?$BaseRefVectorOf@VXSFacet@xercesc_3_1@@@xercesc_3_1@@QAEPAVXSFacet@2@K@Z 1203d2e0 f i XSSimpleTypeDefinition.obj
 0001:0003c2e0       ?elementAt@?$BaseRefVectorOf@VXMLAttr@xercesc_3_1@@@xercesc_3_1@@QAEPAVXMLAttr@2@K@Z 1203d2e0 f i DGXMLScanner.obj
 0001:0003c2e0       ?elementAt@?$BaseRefVectorOf@VSchemaInfo@xercesc_3_1@@@xercesc_3_1@@QAEPAVSchemaInfo@2@K@Z 1203d2e0 f i IGXMLScanner.obj
 0001:0003c2e0       ?elementAt@?$BaseRefVectorOf@VOp@xercesc_3_1@@@xercesc_3_1@@QAEPAVOp@2@K@Z 1203d2e0 f i Op.obj
 0001:0003c370       ?elementAt@XercesGroupInfo@xercesc_3_1@@QBEPBVSchemaElementDecl@2@K@Z 1203d370 f i XMLGrammarPoolImpl.obj
 0001:0003c370       ?elementAt@XercesGroupInfo@xercesc_3_1@@QAEPAVSchemaElementDecl@2@K@Z 1203d370 f i XMLGrammarPoolImpl.obj
 0001:0003c380       ?elementCount@XercesGroupInfo@xercesc_3_1@@QBEKXZ 1203d380 f i XMLGrammarPoolImpl.obj
 0001:0003c390       ?findBucketElem@?$RefHash3KeysIdPool@VSchemaElementDecl@xercesc_3_1@@UStringHasher@2@@xercesc_3_1@@AAEPAU?$RefHash3KeysTableBucketElem@VSchemaElementDecl@xercesc_3_1@@@2@QBXHHAAK@Z 1203d390 f i XMLGrammarPoolImpl.obj
 0001:0003c400       ?findBucketElem@?$RefHashTableOf@VDOMElement@xercesc_3_1@@UStringHasher@2@@xercesc_3_1@@AAEPAU?$RefHashTableBucketElem@VDOMElement@xercesc_3_1@@@2@QBXAAK@Z 1203d400 f i SchemaInfo.obj
 0001:0003c400       ?findBucketElem@?$RefHashTableOf@VENameMap@xercesc_3_1@@UStringHasher@2@@xercesc_3_1@@AAEPAU?$RefHashTableBucketElem@VENameMap@xercesc_3_1@@@2@QBXAAK@Z 1203d400 f i TransService.obj
 0001:0003c400       ?findBucketElem@?$RefHashTableOf@VDTDEntityDecl@xercesc_3_1@@UStringHasher@2@@xercesc_3_1@@ABEPBU?$RefHashTableBucketElem@VDTDEntityDecl@xercesc_3_1@@@2@QBXAAK@Z 1203d400 f i XMLGrammarPoolImpl.obj
 0001:0003c400       ?findBucketElem@?$RefHashTableOf@VDTDEntityDecl@xercesc_3_1@@UStringHasher@2@@xercesc_3_1@@AAEPAU?$RefHashTableBucketElem@VDTDEntityDecl@xercesc_3_1@@@2@QBXAAK@Z 1203d400 f i XMLGrammarPoolImpl.obj
 0001:0003c400       ?findBucketElem@?$RefHashTableOf@VKVStringPair@xercesc_3_1@@UStringHasher@2@@xercesc_3_1@@AAEPAU?$RefHashTableBucketElem@VKVStringPair@xercesc_3_1@@@2@QBXAAK@Z 1203d400 f i XTemplateSerializer.obj
 0001:0003c400       ?findBucketElem@?$RefHashTableOf@VDTDAttDef@xercesc_3_1@@UStringHasher@2@@xercesc_3_1@@AAEPAU?$RefHashTableBucketElem@VDTDAttDef@xercesc_3_1@@@2@QBXAAK@Z 1203d400 f i XTemplateSerializer.obj
 0001:0003c400       ?findBucketElem@?$RefHashTableOf@VDatatypeValidator@xercesc_3_1@@UStringHasher@2@@xercesc_3_1@@AAEPAU?$RefHashTableBucketElem@VDatatypeValidator@xercesc_3_1@@@2@QBXAAK@Z 1203d400 f i XMLGrammarPoolImpl.obj
 0001:0003c400       ?findBucketElem@?$RefHashTableOf@VGrammar@xercesc_3_1@@UStringHasher@2@@xercesc_3_1@@AAEPAU?$RefHashTableBucketElem@VGrammar@xercesc_3_1@@@2@QBXAAK@Z 1203d400 f i XMLGrammarPoolImpl.obj
 0001:0003c400       ?findBucketElem@?$RefHashTableOf@GUStringHasher@xercesc_3_1@@@xercesc_3_1@@AAEPAU?$RefHashTableBucketElem@G@2@QBXAAK@Z 1203d400 f i DOMLSSerializerImpl.obj
 0001:0003c400       ?findBucketElem@?$RefHashTableOf@VXercesAttGroupInfo@xercesc_3_1@@UStringHasher@2@@xercesc_3_1@@AAEPAU?$RefHashTableBucketElem@VXercesAttGroupInfo@xercesc_3_1@@@2@QBXAAK@Z 1203d400 f i XTemplateSerializer.obj
 0001:0003c400       ?findBucketElem@?$RefHashTableOf@VDatatypeValidator@xercesc_3_1@@UStringHasher@2@@xercesc_3_1@@ABEPBU?$RefHashTableBucketElem@VDatatypeValidator@xercesc_3_1@@@2@QBXAAK@Z 1203d400 f i XMLGrammarPoolImpl.obj
 0001:0003c400       ?findBucketElem@?$RefHashTableOf@VXMLElementDecl@xercesc_3_1@@UStringHasher@2@@xercesc_3_1@@AAEPAU?$RefHashTableBucketElem@VXMLElementDecl@xercesc_3_1@@@2@QBXAAK@Z 1203d400 f i WFXMLScanner.obj
 0001:0003c400       ?findBucketElem@?$RefHashTableOf@VComplexTypeInfo@xercesc_3_1@@UStringHasher@2@@xercesc_3_1@@AAEPAU?$RefHashTableBucketElem@VComplexTypeInfo@xercesc_3_1@@@2@QBXAAK@Z 1203d400 f i XTemplateSerializer.obj
 0001:0003c400       ?findBucketElem@?$RefHashTableOf@VRangeFactory@xercesc_3_1@@UStringHasher@2@@xercesc_3_1@@AAEPAU?$RefHashTableBucketElem@VRangeFactory@xercesc_3_1@@@2@QBXAAK@Z 1203d400 f i RangeTokenMap.obj
 0001:0003c400       ?findBucketElem@?$RefHashTableOf@VXMLAttDef@xercesc_3_1@@UStringHasher@2@@xercesc_3_1@@ABEPBU?$RefHashTableBucketElem@VXMLAttDef@xercesc_3_1@@@2@QBXAAK@Z 1203d400 f i TraverseSchema.obj
 0001:0003c400       ?findBucketElem@?$RefHashTableOf@VDTDElementDecl@xercesc_3_1@@UStringHasher@2@@xercesc_3_1@@ABEPBU?$RefHashTableBucketElem@VDTDElementDecl@xercesc_3_1@@@2@QBXAAK@Z 1203d400 f i XMLGrammarPoolImpl.obj
 0001:0003c400       ?findBucketElem@?$RefHashTableOf@V?$ValueVectorOf@PAVSchemaElementDecl@xercesc_3_1@@@xercesc_3_1@@UStringHasher@2@@xercesc_3_1@@AAEPAU?$RefHashTableBucketElem@V?$ValueVectorOf@PAVSchemaElementDecl@xercesc_3_1@@@xercesc_3_1@@@2@QBXAAK@Z 1203d400 f i TraverseSchema.obj
 0001:0003c400       ?findBucketElem@?$RefHashTableOf@VXMLNotationDecl@xercesc_3_1@@UStringHasher@2@@xercesc_3_1@@AAEPAU?$RefHashTableBucketElem@VXMLNotationDecl@xercesc_3_1@@@2@QBXAAK@Z 1203d400 f i XMLGrammarPoolImpl.obj
 0001:0003c400       ?findBucketElem@?$RefHashTableOf@VRangeTokenElemMap@xercesc_3_1@@UStringHasher@2@@xercesc_3_1@@AAEPAU?$RefHashTableBucketElem@VRangeTokenElemMap@xercesc_3_1@@@2@QBXAAK@Z 1203d400 f i RangeTokenMap.obj
 0001:0003c400       ?findBucketElem@?$RefHashTableOf@VXSObject@xercesc_3_1@@UStringHasher@2@@xercesc_3_1@@AAEPAU?$RefHashTableBucketElem@VXSObject@xercesc_3_1@@@2@QBXAAK@Z 1203d400 f i XSModel.obj
 0001:0003c400       ?findBucketElem@?$RefHashTableOf@UPoolElem@XMLStringPool@xercesc_3_1@@UStringHasher@3@@xercesc_3_1@@AAEPAU?$RefHashTableBucketElem@UPoolElem@XMLStringPool@xercesc_3_1@@@2@QBXAAK@Z 1203d400 f i StringPool.obj
 0001:0003c400       ?findBucketElem@?$RefHashTableOf@VXercesGroupInfo@xercesc_3_1@@UStringHasher@2@@xercesc_3_1@@AAEPAU?$RefHashTableBucketElem@VXercesGroupInfo@xercesc_3_1@@@2@QBXAAK@Z 1203d400 f i XTemplateSerializer.obj
 0001:0003c400       ?findBucketElem@?$RefHashTableOf@VXSNamespaceItem@xercesc_3_1@@UStringHasher@2@@xercesc_3_1@@AAEPAU?$RefHashTableBucketElem@VXSNamespaceItem@xercesc_3_1@@@2@QBXAAK@Z 1203d400 f i XSModel.obj
 0001:0003c400       ?findBucketElem@?$RefHashTableOf@VXercesAttGroupInfo@xercesc_3_1@@UStringHasher@2@@xercesc_3_1@@ABEPBU?$RefHashTableBucketElem@VXercesAttGroupInfo@xercesc_3_1@@@2@QBXAAK@Z 1203d400 f i TraverseSchema.obj
 0001:0003c400       ?findBucketElem@?$RefHashTableOf@VComplexTypeInfo@xercesc_3_1@@UStringHasher@2@@xercesc_3_1@@ABEPBU?$RefHashTableBucketElem@VComplexTypeInfo@xercesc_3_1@@@2@QBXAAK@Z 1203d400 f i TraverseSchema.obj
 0001:0003c400       ?findBucketElem@?$RefHashTableOf@GUStringHasher@xercesc_3_1@@@xercesc_3_1@@ABEPBU?$RefHashTableBucketElem@G@2@QBXAAK@Z 1203d400 f i DOMLSSerializerImpl.obj
 0001:0003c400       ?findBucketElem@?$RefHashTableOf@VXMLAttDef@xercesc_3_1@@UStringHasher@2@@xercesc_3_1@@AAEPAU?$RefHashTableBucketElem@VXMLAttDef@xercesc_3_1@@@2@QBXAAK@Z 1203d400 f i IGXMLScanner2.obj
 0001:0003c400       ?findBucketElem@?$RefHashTableOf@VKVStringPair@xercesc_3_1@@UStringHasher@2@@xercesc_3_1@@ABEPBU?$RefHashTableBucketElem@VKVStringPair@xercesc_3_1@@@2@QBXAAK@Z 1203d400 f i TraverseSchema.obj
 0001:0003c400       ?findBucketElem@?$RefHashTableOf@V?$ValueVectorOf@PAVSchemaElementDecl@xercesc_3_1@@@xercesc_3_1@@UStringHasher@2@@xercesc_3_1@@ABEPBU?$RefHashTableBucketElem@V?$ValueVectorOf@PAVSchemaElementDecl@xercesc_3_1@@@xercesc_3_1@@@2@QBXAAK@Z 1203d400 f i TraverseSchema.obj
 0001:0003c400       ?findBucketElem@?$RefHashTableOf@VRangeTokenElemMap@xercesc_3_1@@UStringHasher@2@@xercesc_3_1@@ABEPBU?$RefHashTableBucketElem@VRangeTokenElemMap@xercesc_3_1@@@2@QBXAAK@Z 1203d400 f i RangeTokenMap.obj
 0001:0003c400       ?findBucketElem@?$RefHashTableOf@UPoolElem@XMLStringPool@xercesc_3_1@@UStringHasher@3@@xercesc_3_1@@ABEPBU?$RefHashTableBucketElem@UPoolElem@XMLStringPool@xercesc_3_1@@@2@QBXAAK@Z 1203d400 f i StringPool.obj
 0001:0003c400       ?findBucketElem@?$RefHashTableOf@VDTDElementDecl@xercesc_3_1@@UStringHasher@2@@xercesc_3_1@@AAEPAU?$RefHashTableBucketElem@VDTDElementDecl@xercesc_3_1@@@2@QBXAAK@Z 1203d400 f i XMLGrammarPoolImpl.obj
 0001:0003c400       ?findBucketElem@?$RefHashTableOf@VXercesGroupInfo@xercesc_3_1@@UStringHasher@2@@xercesc_3_1@@ABEPBU?$RefHashTableBucketElem@VXercesGroupInfo@xercesc_3_1@@@2@QBXAAK@Z 1203d400 f i TraverseSchema.obj
 0001:0003c400       ?findBucketElem@?$RefHashTableOf@VXMLRefInfo@xercesc_3_1@@UStringHasher@2@@xercesc_3_1@@AAEPAU?$RefHashTableBucketElem@VXMLRefInfo@xercesc_3_1@@@2@QBXAAK@Z 1203d400 f i ValidationContextImpl.obj
 0001:0003c400       ?findBucketElem@?$RefHashTableOf@VGrammar@xercesc_3_1@@UStringHasher@2@@xercesc_3_1@@ABEPBU?$RefHashTableBucketElem@VGrammar@xercesc_3_1@@@2@QBXAAK@Z 1203d400 f i XMLGrammarPoolImpl.obj
 0001:0003c400       ?findBucketElem@?$RefHashTableOf@VCPMapEntry@xercesc_3_1@@UStringHasher@2@@xercesc_3_1@@AAEPAU?$RefHashTableBucketElem@VCPMapEntry@xercesc_3_1@@@2@QBXAAK@Z 1203d400 f i Win32TransService.obj
 0001:0003c400       ?findBucketElem@?$RefHashTableOf@VXMLNotationDecl@xercesc_3_1@@UStringHasher@2@@xercesc_3_1@@ABEPBU?$RefHashTableBucketElem@VXMLNotationDecl@xercesc_3_1@@@2@QBXAAK@Z 1203d400 f i XMLGrammarPoolImpl.obj
 0001:0003c490       ?findNext@?$RefHash3KeysIdPoolEnumerator@VSchemaElementDecl@xercesc_3_1@@UStringHasher@2@@xercesc_3_1@@AAEXXZ 1203d490 f i XMLGrammarPoolImpl.obj
 0001:0003c4e0       ?getAnnotation@SchemaGrammar@xercesc_3_1@@QBEPBVXSAnnotation@2@QBX@Z 1203d4e0 f i XMLGrammarPoolImpl.obj
 0001:0003c4e0       ?getAnnotation@SchemaGrammar@xercesc_3_1@@QAEPAVXSAnnotation@2@QBX@Z 1203d4e0 f i XMLGrammarPoolImpl.obj
 0001:0003c520       ?getAnnotation@SchemaGrammar@xercesc_3_1@@QAEPAVXSAnnotation@2@XZ 1203d520 f i XMLGrammarPoolImpl.obj
 0001:0003c520       ?getAnnotation@SchemaGrammar@xercesc_3_1@@QBEPBVXSAnnotation@2@XZ 1203d520 f i XMLGrammarPoolImpl.obj
 0001:0003c550       ?getLexicalPattern@XSSimpleTypeDefinition@xercesc_3_1@@QAEPAV?$RefArrayVectorOf@G@2@XZ 1203d550 f i XMLAttr.obj
 0001:0003c550       ?getBaseAttDecl@SchemaAttDef@xercesc_3_1@@QBEPBV12@XZ 1203d550 f i XMLElementDecl.obj
 0001:0003c550       ?getXmlEncoding@DOMEntityImpl@xercesc_3_1@@UBEPBGXZ 1203d550 f i DOMEntityImpl.obj
 0001:0003c550       ?getUnknownNamespaceId@XMLScanner@xercesc_3_1@@QBEIXZ 1203d550 f i XMLValidator.obj
 0001:0003c550       ?getBaseDatatypeValidator@ComplexTypeInfo@xercesc_3_1@@QBEPAVDatatypeValidator@2@XZ 1203d550 f i XMLElementDecl.obj
 0001:0003c550       ?getAnnotations@SchemaGrammar@xercesc_3_1@@QAEPAV?$RefHashTableOf@VXSAnnotation@xercesc_3_1@@UPtrHasher@2@@2@XZ 1203d550 f i XMLGrammarPoolImpl.obj
 0001:0003c550       ?getAnnotations@SchemaGrammar@xercesc_3_1@@QBEPBV?$RefHashTableOf@VXSAnnotation@xercesc_3_1@@UPtrHasher@2@@2@XZ 1203d550 f i XMLGrammarPoolImpl.obj
 0001:0003c550       ?getPublicId@DOMDocumentTypeImpl@xercesc_3_1@@UBEPBGXZ 1203d550 f i DOMDocumentTypeImpl.obj
 0001:0003c550       ?getLocalName@DOMElementNSImpl@xercesc_3_1@@UBEPBGXZ 1203d550 f i DOMElementNSImpl.obj
 0001:0003c550       ?getBaseAttDecl@SchemaAttDef@xercesc_3_1@@QAEPAV12@XZ 1203d550 f i XMLElementDecl.obj
 0001:0003c550       ?getTypeUri@DatatypeValidator@xercesc_3_1@@QBEPBGXZ 1203d550 f i XMLAttr.obj
 0001:0003c560       ?getBuiltInRegistry@DatatypeValidatorFactory@xercesc_3_1@@SAPAV?$RefHashTableOf@VDatatypeValidator@xercesc_3_1@@UStringHasher@2@@2@XZ 1203d560 f i XMLGrammarPoolImpl.obj
 0001:0003c570       ?getById@?$NameIdPool@VDTDElementDecl@xercesc_3_1@@@xercesc_3_1@@QAEPAVDTDElementDecl@2@K@Z 1203d570 f i XMLGrammarPoolImpl.obj
 0001:0003c600       ?getById@?$RefHash3KeysIdPool@VSchemaElementDecl@xercesc_3_1@@UStringHasher@2@@xercesc_3_1@@QAEPAVSchemaElementDecl@2@I@Z 1203d600 f i XMLGrammarPoolImpl.obj
 0001:0003c690       ?getByKey@?$RefHash3KeysIdPool@VSchemaElementDecl@xercesc_3_1@@UStringHasher@2@@xercesc_3_1@@QAEPAVSchemaElementDecl@2@QBXHH@Z 1203d690 f i XMLGrammarPoolImpl.obj
 0001:0003c6c0       ?getDeclared@XMLRefInfo@xercesc_3_1@@QBE_NXZ 1203d6c0 f i XMLGrammarPoolImpl.obj
 0001:0003c6c0       ?getCheckElementConsistency@XercesGroupInfo@xercesc_3_1@@QBE_NXZ 1203d6c0 f i XMLGrammarPoolImpl.obj
 0001:0003c6c0       ?getAnonymous@ComplexTypeInfo@xercesc_3_1@@QBE_NXZ 1203d6c0 f i XMLElementDecl.obj
 0001:0003c6c0       ?getExitOnFirstFatal@XSDErrorReporter@xercesc_3_1@@QBE_NXZ 1203d6c0 f i IGXMLScanner.obj
 0001:0003c6c0       ?containsTypeWithId@XercesAttGroupInfo@xercesc_3_1@@QBE_NXZ 1203d6c0 f i XMLGrammarPoolImpl.obj
 0001:0003c6c0       ?getAnonymous@DatatypeValidator@xercesc_3_1@@QBE_NXZ 1203d6c0 f i XMLAttr.obj
 0001:0003c6d0       ?getDatatypeRegistry@SchemaGrammar@xercesc_3_1@@QAEPAVDatatypeValidatorFactory@2@XZ 1203d6d0 f i XMLGrammarPoolImpl.obj
 0001:0003c6e0       ?getDatatypeValidator@DatatypeValidatorFactory@xercesc_3_1@@QBEPAVDatatypeValidator@2@QBG@Z 1203d6e0 f i XMLGrammarPoolImpl.obj
 0001:0003c760       ?hasInvalidChar@XMLURL@xercesc_3_1@@QBE_NXZ 1203d760 f i XMLURL.obj
 0001:0003c760       ?getDeclaredInIntSubset@DTDEntityDecl@xercesc_3_1@@UBE_NXZ 1203d760 f i XMLGrammarPoolImpl.obj
 0001:0003c770       ?getElemDecl@DTDGrammar@xercesc_3_1@@UAEPAVXMLElementDecl@2@I@Z 1203d770 f i XMLGrammarPoolImpl.obj
 0001:0003c770       ?getElemDecl@DTDGrammar@xercesc_3_1@@UBEPBVXMLElementDecl@2@I@Z 1203d770 f i XMLGrammarPoolImpl.obj
 0001:0003c780       ?getElemDecl@DTDGrammar@xercesc_3_1@@UAEPAVXMLElementDecl@2@IQBG0I@Z 1203d780 f i XMLGrammarPoolImpl.obj
 0001:0003c780       ?getElemDecl@DTDGrammar@xercesc_3_1@@UBEPBVXMLElementDecl@2@IQBG0I@Z 1203d780 f i XMLGrammarPoolImpl.obj
 0001:0003c7f0       ?getElemDecl@SchemaGrammar@xercesc_3_1@@UAEPAVXMLElementDecl@2@I@Z 1203d7f0 f i XMLGrammarPoolImpl.obj
 0001:0003c7f0       ?getElemDecl@SchemaGrammar@xercesc_3_1@@UBEPBVXMLElementDecl@2@I@Z 1203d7f0 f i XMLGrammarPoolImpl.obj
 0001:0003c820       ?getElemDecl@SchemaGrammar@xercesc_3_1@@UBEPBVXMLElementDecl@2@IQBG0I@Z 1203d820 f i XMLGrammarPoolImpl.obj
 0001:0003c820       ?getElemDecl@SchemaGrammar@xercesc_3_1@@UAEPAVXMLElementDecl@2@IQBG0I@Z 1203d820 f i XMLGrammarPoolImpl.obj
 0001:0003c8a0       ?getElemEnumerator@DTDGrammar@xercesc_3_1@@QBE?AV?$NameIdPoolEnumerator@VDTDElementDecl@xercesc_3_1@@@2@XZ 1203d8a0 f i XMLGrammarPoolImpl.obj
 0001:0003c920       ?getElemEnumerator@SchemaGrammar@xercesc_3_1@@QBE?AV?$RefHash3KeysIdPoolEnumerator@VSchemaElementDecl@xercesc_3_1@@UStringHasher@2@@2@XZ 1203d920 f i XMLGrammarPoolImpl.obj
 0001:0003c980       ?getElemId@DTDGrammar@xercesc_3_1@@UBEKIQBG0I@Z 1203d980 f i XMLGrammarPoolImpl.obj
 0001:0003c9c0       ?getElemId@SchemaGrammar@xercesc_3_1@@UBEKIQBG0I@Z 1203d9c0 f i XMLGrammarPoolImpl.obj
 0001:0003ca20       ?getEntityDecl@DTDGrammar@xercesc_3_1@@QAEPAVDTDEntityDecl@2@QBG@Z 1203da20 f i XMLGrammarPoolImpl.obj
 0001:0003ca20       ?getEntityDecl@DTDGrammar@xercesc_3_1@@QBEPBVDTDEntityDecl@2@QBG@Z 1203da20 f i XMLGrammarPoolImpl.obj
 0001:0003ca80       ?getEntityEnumerator@DTDGrammar@xercesc_3_1@@QBE?AV?$NameIdPoolEnumerator@VDTDEntityDecl@xercesc_3_1@@@2@XZ 1203da80 f i XMLGrammarPoolImpl.obj
 0001:0003cb00       ?getGrammarEnumerator@XMLGrammarPoolImpl@xercesc_3_1@@UBE?AV?$RefHashTableOfEnumerator@VGrammar@xercesc_3_1@@UStringHasher@2@@2@XZ 1203db00 f   XMLGrammarPoolImpl.obj
 0001:0003cb60       ?getGrammarType@SchemaGrammar@xercesc_3_1@@UBE?AW4GrammarType@Grammar@2@XZ 1203db60 f i XMLGrammarPoolImpl.obj
 0001:0003cb60       ?size@ParenToken@xercesc_3_1@@UBEKXZ 1203db60 f i ParenToken.obj
 0001:0003cb60       ?getGrammarType@XMLSchemaDescription@xercesc_3_1@@UBE?AW4GrammarType@Grammar@2@XZ 1203db60 f i XMLGrammarPoolImpl.obj
 0001:0003cb60       ?getNodeType@DOMElementImpl@xercesc_3_1@@UBE?AW4NodeType@DOMNode@2@XZ 1203db60 f i DOMElementImpl.obj
 0001:0003cb60       ?getType@IC_Key@xercesc_3_1@@UBEFXZ 1203db60 f i TraverseSchema.obj
 0001:0003cb60       ?size@ClosureToken@xercesc_3_1@@UBEKXZ 1203db60 f i ClosureToken.obj
 0001:0003cb60       ?getObjectType@DTDElementDecl@xercesc_3_1@@UBE?AW4objectType@XMLElementDecl@2@XZ 1203db60 f i DTDElementDecl.obj
 0001:0003cb70       ?getIsParameter@DTDEntityDecl@xercesc_3_1@@UBE_NXZ 1203db70 f i XMLGrammarPoolImpl.obj
 0001:0003cb80       ?getIsSpecialChar@DTDEntityDecl@xercesc_3_1@@UBE_NXZ 1203db80 f i XMLGrammarPoolImpl.obj
 0001:0003cb90       ?getBaseURI@DOMEntityImpl@xercesc_3_1@@UBEPBGXZ 1203db90 f i DOMEntityImpl.obj
 0001:0003cb90       ?getXMLNSNamespaceId@XMLScanner@xercesc_3_1@@QBEIXZ 1203db90 f i XMLValidator.obj
 0001:0003cb90       ?getBaseComplexTypeInfo@ComplexTypeInfo@xercesc_3_1@@QBEPAV12@XZ 1203db90 f i XMLElementDecl.obj
 0001:0003cb90       ?getAttWildCard@SchemaElementDecl@xercesc_3_1@@QAEPAVSchemaAttDef@2@XZ 1203db90 f i XMLElementDecl.obj
 0001:0003cb90       ?getXMLEntityResolver@SAXParser@xercesc_3_1@@QBEPBVXMLEntityResolver@2@XZ 1203db90 f i SAX2XMLReaderImpl.obj
 0001:0003cb90       ?getXMLEntityResolver@SAXParser@xercesc_3_1@@QAEPAVXMLEntityResolver@2@XZ 1203db90 f i SAX2XMLReaderImpl.obj
 0001:0003cb90       ?getAttWildCard@SchemaElementDecl@xercesc_3_1@@QBEPBVSchemaAttDef@2@XZ 1203db90 f i XMLElementDecl.obj
 0001:0003cb90       ?getLength@AbstractStringValidator@xercesc_3_1@@QBEKXZ 1203db90 f i XMLGrammarPoolImpl.obj
 0001:0003cb90       ?getInternalSubset@DOMDocumentTypeImpl@xercesc_3_1@@UBEPBGXZ 1203db90 f i DOMDocumentTypeImpl.obj
 0001:0003cb90       ?getMemberTypes@XSSimpleTypeDefinition@xercesc_3_1@@QBEPAV?$RefVectorOf@VXSSimpleTypeDefinition@xercesc_3_1@@@2@XZ 1203db90 f i XMLAttr.obj
 0001:0003cb90       ?getDocumentURI@DOMDocumentImpl@xercesc_3_1@@UBEPBGXZ 1203db90 f i DOMDocumentImpl.obj
 0001:0003cb90       ?getContentLeafNameTypeVector@DFAContentModel@xercesc_3_1@@UBEPAVContentLeafNameTypeVector@2@XZ 1203db90 f i DFAContentModel.obj
 0001:0003cba0       ?getLineCol@XSAnnotation@xercesc_3_1@@QBEXAA_K0@Z 1203dba0 f i XMLGrammarPoolImpl.obj
 0001:0003cbd0       ?getNotationDecl@SchemaGrammar@xercesc_3_1@@UAEPAVXMLNotationDecl@2@QBG@Z 1203dbd0 f i XMLGrammarPoolImpl.obj
 0001:0003cbd0       ?getNotationDecl@DTDGrammar@xercesc_3_1@@UAEPAVXMLNotationDecl@2@QBG@Z 1203dbd0 f i XMLGrammarPoolImpl.obj
 0001:0003cbd0       ?getNotationDecl@DTDGrammar@xercesc_3_1@@UBEPBVXMLNotationDecl@2@QBG@Z 1203dbd0 f i XMLGrammarPoolImpl.obj
 0001:0003cbd0       ?getNotationDecl@SchemaGrammar@xercesc_3_1@@UBEPBVXMLNotationDecl@2@QBG@Z 1203dbd0 f i XMLGrammarPoolImpl.obj
 0001:0003cc00       ?getNotationEnumerator@DTDGrammar@xercesc_3_1@@QBE?AV?$NameIdPoolEnumerator@VXMLNotationDecl@xercesc_3_1@@@2@XZ 1203dc00 f i XMLGrammarPoolImpl.obj
 0001:0003cc80       ?getNotationEnumerator@SchemaGrammar@xercesc_3_1@@QBE?AV?$NameIdPoolEnumerator@VXMLNotationDecl@xercesc_3_1@@@2@XZ 1203dc80 f i XMLGrammarPoolImpl.obj
 0001:0003cd00       ?getScopeCount@SchemaGrammar@xercesc_3_1@@QBEIXZ 1203dd00 f i XMLGrammarPoolImpl.obj
 0001:0003cd00       ?getAttDefList@ComplexTypeInfo@xercesc_3_1@@QBEAAVXMLAttDefList@2@XZ 1203dd00 f i ComplexTypeInfo.obj
 0001:0003cd00       ?getMaxExclusive@AbstractNumericFacetValidator@xercesc_3_1@@QBEPAVXMLNumber@2@XZ 1203dd00 f i AbstractNumericFacetValidator.obj
 0001:0003cd10       ?getStep@XercesLocationPath@xercesc_3_1@@QBEPAVXercesStep@2@K@Z 1203dd10 f i XMLGrammarPoolImpl.obj
 0001:0003cd30       ?getTargetNamespace@DTDGrammar@xercesc_3_1@@UBEPBGXZ 1203dd30 f i XMLGrammarPoolImpl.obj
 0001:0003cd40       ?getType@XercesNodeTest@xercesc_3_1@@QBEFXZ 1203dd40 f i XMLGrammarPoolImpl.obj
 0001:0003cd40       ?getAxisType@XercesStep@xercesc_3_1@@QBEGXZ 1203dd40 f i XMLGrammarPoolImpl.obj
 0001:0003cd50       ?getURIStringPool@XMLGrammarPoolImpl@xercesc_3_1@@UAEPAVXMLStringPool@2@XZ 1203dd50 f   XMLGrammarPoolImpl.obj
 0001:0003cd60       ?getURIStringPool@XSModel@xercesc_3_1@@QAEPAVXMLStringPool@2@XZ 1203dd60 f i XMLGrammarPoolImpl.obj
 0001:0003cd60       ?getPSVIHandler@XMLScanner@xercesc_3_1@@QAEPAVPSVIHandler@2@XZ 1203dd60 f i XMLValidator.obj
 0001:0003cd60       ?getPSVIHandler@XMLScanner@xercesc_3_1@@QBEPBVPSVIHandler@2@XZ 1203dd60 f i XMLValidator.obj
 0001:0003cd70       ?getValidated@SchemaGrammar@xercesc_3_1@@UBE_NXZ 1203dd70 f i XMLGrammarPoolImpl.obj
 0001:0003cd80       ?getXSModel@XMLGrammarPoolImpl@xercesc_3_1@@UAEPAVXSModel@2@AA_N@Z 1203dd80 f   XMLGrammarPoolImpl.obj
 0001:0003cdb0       ?hasAllContent@ContentSpecNode@xercesc_3_1@@QAE_NXZ 1203ddb0 f i XMLGrammarPoolImpl.obj
 0001:0003cdd0       ?hasMoreElements@?$NameIdPoolEnumerator@VXMLNotationDecl@xercesc_3_1@@@xercesc_3_1@@UBE_NXZ 1203ddd0 f i XMLGrammarPoolImpl.obj
 0001:0003cdd0       ?hasMoreElements@?$NameIdPoolEnumerator@VDTDElementDecl@xercesc_3_1@@@xercesc_3_1@@UBE_NXZ 1203ddd0 f i XMLGrammarPoolImpl.obj
 0001:0003cdd0       ?hasMoreElements@?$NameIdPoolEnumerator@VDTDEntityDecl@xercesc_3_1@@@xercesc_3_1@@UBE_NXZ 1203ddd0 f i XMLGrammarPoolImpl.obj
 0001:0003cdf0       ?hasMoreElements@?$RefHash3KeysIdPoolEnumerator@VSchemaElementDecl@xercesc_3_1@@UStringHasher@2@@xercesc_3_1@@UBE_NXZ 1203ddf0 f i XMLGrammarPoolImpl.obj
 0001:0003ce10       ?initialize@?$RefHash3KeysIdPool@VSchemaElementDecl@xercesc_3_1@@UStringHasher@2@@xercesc_3_1@@AAEXK@Z 1203de10 f i XMLGrammarPoolImpl.obj
 0001:0003cec0       ?getThrowEOE@ReaderMgr@xercesc_3_1@@QBE_NXZ 1203dec0 f i XMLValidator.obj
 0001:0003cec0       ?isFirstAdopted@ContentSpecNode@xercesc_3_1@@QBE_NXZ 1203dec0 f i XMLGrammarPoolImpl.obj
 0001:0003cec0       ?getIssueFatalErrorIfNotFound@DOMLSInputImpl@xercesc_3_1@@UBE_NXZ 1203dec0 f i DOMImplementationImpl.obj
 0001:0003cec0       ?getLoadSchema@XMLScanner@xercesc_3_1@@QBE_NXZ 1203dec0 f i XMLValidator.obj
 0001:0003cec0       ?getValidated@DTDGrammar@xercesc_3_1@@UBE_NXZ 1203dec0 f i XMLGrammarPoolImpl.obj
 0001:0003ced0       ?getNormalizeData@XMLScanner@xercesc_3_1@@QBE_NXZ 1203ded0 f i XMLValidator.obj
 0001:0003ced0       ?isSecondAdopted@ContentSpecNode@xercesc_3_1@@QBE_NXZ 1203ded0 f i XMLGrammarPoolImpl.obj
 0001:0003cee0       ?lockPool@XMLGrammarPoolImpl@xercesc_3_1@@UAEXXZ 1203dee0 f   XMLGrammarPoolImpl.obj
 0001:0003cf80       ?nextElement@?$NameIdPoolEnumerator@VDTDEntityDecl@xercesc_3_1@@@xercesc_3_1@@UAEAAVDTDEntityDecl@2@XZ 1203df80 f i XMLGrammarPoolImpl.obj
 0001:0003cf80       ?nextElement@?$NameIdPoolEnumerator@VDTDElementDecl@xercesc_3_1@@@xercesc_3_1@@UAEAAVDTDElementDecl@2@XZ 1203df80 f i XMLGrammarPoolImpl.obj
 0001:0003cf80       ?nextElement@?$NameIdPoolEnumerator@VXMLNotationDecl@xercesc_3_1@@@xercesc_3_1@@UAEAAVXMLNotationDecl@2@XZ 1203df80 f i XMLGrammarPoolImpl.obj
 0001:0003d020       ?nextElement@?$RefHash3KeysIdPoolEnumerator@VSchemaElementDecl@xercesc_3_1@@UStringHasher@2@@xercesc_3_1@@UAEAAVSchemaElementDecl@2@XZ 1203e020 f i XMLGrammarPoolImpl.obj
 0001:0003d0c0       ?orphanFirst@ContentSpecNode@xercesc_3_1@@QAEPAV12@XZ 1203e0c0 f i XMLGrammarPoolImpl.obj
 0001:0003d0d0       ?orphanGrammar@XMLGrammarPoolImpl@xercesc_3_1@@UAEPAVGrammar@2@QBG@Z 1203e0d0 f   XMLGrammarPoolImpl.obj
 0001:0003d120       ?orphanKey@?$RefHashTableOf@VGrammar@xercesc_3_1@@UStringHasher@2@@xercesc_3_1@@QAEPAVGrammar@2@QBX@Z 1203e120 f i XMLGrammarPoolImpl.obj
 0001:0003d250       ?orphanSecond@ContentSpecNode@xercesc_3_1@@QAEPAV12@XZ 1203e250 f i XMLGrammarPoolImpl.obj
 0001:0003d260       ?put@?$NameIdPool@VDTDElementDecl@xercesc_3_1@@@xercesc_3_1@@QAEKQAVDTDElementDecl@2@@Z 1203e260 f i XMLGrammarPoolImpl.obj
 0001:0003d3a0       ?put@?$NameIdPool@VDTDEntityDecl@xercesc_3_1@@@xercesc_3_1@@QAEKQAVDTDEntityDecl@2@@Z 1203e3a0 f i XMLGrammarPoolImpl.obj
 0001:0003d4d0       ?put@?$NameIdPool@VXMLNotationDecl@xercesc_3_1@@@xercesc_3_1@@QAEKQAVXMLNotationDecl@2@@Z 1203e4d0 f i XMLGrammarPoolImpl.obj
 0001:0003d600       ?put@?$RefHash3KeysIdPool@VSchemaElementDecl@xercesc_3_1@@UStringHasher@2@@xercesc_3_1@@QAEKPAXHHQAVSchemaElementDecl@2@@Z 1203e600 f i XMLGrammarPoolImpl.obj
 0001:0003d750       ?put@?$RefHashTableOf@VXSObject@xercesc_3_1@@UStringHasher@2@@xercesc_3_1@@QAEXPAXQAVXSObject@2@@Z 1203e750 f i XSModel.obj
 0001:0003d750       ?put@?$RefHashTableOf@VDTDAttDef@xercesc_3_1@@UStringHasher@2@@xercesc_3_1@@QAEXPAXQAVDTDAttDef@2@@Z 1203e750 f i XTemplateSerializer.obj
 0001:0003d750       ?put@?$RefHashTableOf@VXercesAttGroupInfo@xercesc_3_1@@UStringHasher@2@@xercesc_3_1@@QAEXPAXQAVXercesAttGroupInfo@2@@Z 1203e750 f i XTemplateSerializer.obj
 0001:0003d750       ?put@?$RefHashTableOf@VDTDElementDecl@xercesc_3_1@@UStringHasher@2@@xercesc_3_1@@QAEXPAXQAVDTDElementDecl@2@@Z 1203e750 f i XMLGrammarPoolImpl.obj
 0001:0003d750       ?put@?$RefHashTableOf@VXercesGroupInfo@xercesc_3_1@@UStringHasher@2@@xercesc_3_1@@QAEXPAXQAVXercesGroupInfo@2@@Z 1203e750 f i XTemplateSerializer.obj
 0001:0003d750       ?put@?$RefHashTableOf@VDTDEntityDecl@xercesc_3_1@@UStringHasher@2@@xercesc_3_1@@QAEXPAXQAVDTDEntityDecl@2@@Z 1203e750 f i XMLGrammarPoolImpl.obj
 0001:0003d750       ?put@?$RefHashTableOf@VRangeFactory@xercesc_3_1@@UStringHasher@2@@xercesc_3_1@@QAEXPAXQAVRangeFactory@2@@Z 1203e750 f i RangeTokenMap.obj
 0001:0003d750       ?put@?$RefHashTableOf@VXMLRefInfo@xercesc_3_1@@UStringHasher@2@@xercesc_3_1@@QAEXPAXQAVXMLRefInfo@2@@Z 1203e750 f i ValidationContextImpl.obj
 0001:0003d750       ?put@?$RefHashTableOf@VXMLNotationDecl@xercesc_3_1@@UStringHasher@2@@xercesc_3_1@@QAEXPAXQAVXMLNotationDecl@2@@Z 1203e750 f i XMLGrammarPoolImpl.obj
 0001:0003d750       ?put@?$RefHashTableOf@VComplexTypeInfo@xercesc_3_1@@UStringHasher@2@@xercesc_3_1@@QAEXPAXQAVComplexTypeInfo@2@@Z 1203e750 f i XTemplateSerializer.obj
 0001:0003d750       ?put@?$RefHashTableOf@VGrammar@xercesc_3_1@@UStringHasher@2@@xercesc_3_1@@QAEXPAXQAVGrammar@2@@Z 1203e750 f i XMLGrammarPoolImpl.obj
 0001:0003d750       ?put@?$RefHashTableOf@VDatatypeValidator@xercesc_3_1@@UStringHasher@2@@xercesc_3_1@@QAEXPAXQAVDatatypeValidator@2@@Z 1203e750 f i XTemplateSerializer.obj
 0001:0003d750       ?put@?$RefHashTableOf@VXMLAttDef@xercesc_3_1@@UStringHasher@2@@xercesc_3_1@@QAEXPAXQAVXMLAttDef@2@@Z 1203e750 f i XTemplateSerializer.obj
 0001:0003d750       ?put@?$RefHashTableOf@VXMLElementDecl@xercesc_3_1@@UStringHasher@2@@xercesc_3_1@@QAEXPAXQAVXMLElementDecl@2@@Z 1203e750 f i WFXMLScanner.obj
 0001:0003d750       ?put@?$RefHashTableOf@VDOMElement@xercesc_3_1@@UStringHasher@2@@xercesc_3_1@@QAEXPAXQAVDOMElement@2@@Z 1203e750 f i SchemaInfo.obj
 0001:0003d750       ?put@?$RefHashTableOf@VENameMap@xercesc_3_1@@UStringHasher@2@@xercesc_3_1@@QAEXPAXQAVENameMap@2@@Z 1203e750 f i TransService.obj
 0001:0003d750       ?put@?$RefHashTableOf@VKVStringPair@xercesc_3_1@@UStringHasher@2@@xercesc_3_1@@QAEXPAXQAVKVStringPair@2@@Z 1203e750 f i XTemplateSerializer.obj
 0001:0003d830       ?putElemDecl@DTDGrammar@xercesc_3_1@@UAEKQAVXMLElementDecl@2@_N@Z 1203e830 f i XMLGrammarPoolImpl.obj
 0001:0003d8d0       ?putElemDecl@SchemaGrammar@xercesc_3_1@@UAEKQAVXMLElementDecl@2@_N@Z 1203e8d0 f i XMLGrammarPoolImpl.obj
 0001:0003d980       ?putEntityDecl@DTDGrammar@xercesc_3_1@@QBEKQAVDTDEntityDecl@2@@Z 1203e980 f i XMLGrammarPoolImpl.obj
 0001:0003d990       ?putGroupElemDecl@SchemaGrammar@xercesc_3_1@@QBEKQAVXMLElementDecl@2@@Z 1203e990 f i XMLGrammarPoolImpl.obj
 0001:0003d9b0       ?putNotationDecl@SchemaGrammar@xercesc_3_1@@UBEKQAVXMLNotationDecl@2@@Z 1203e9b0 f i XMLGrammarPoolImpl.obj
 0001:0003d9b0       ?putNotationDecl@DTDGrammar@xercesc_3_1@@UBEKQAVXMLNotationDecl@2@@Z 1203e9b0 f i XMLGrammarPoolImpl.obj
 0001:0003d9c0       ?removeAll@?$RefHash3KeysIdPool@VSchemaElementDecl@xercesc_3_1@@UStringHasher@2@@xercesc_3_1@@QAEXXZ 1203e9c0 f i XMLGrammarPoolImpl.obj
 0001:0003da40       ?retrieveGrammar@XMLGrammarPoolImpl@xercesc_3_1@@UAEPAVGrammar@2@QAVXMLGrammarDescription@2@@Z 1203ea40 f   XMLGrammarPoolImpl.obj
 0001:0003da80       ?serializeGrammars@XMLGrammarPoolImpl@xercesc_3_1@@UAEXQAVBinOutputStream@2@@Z 1203ea80 f   XMLGrammarPoolImpl.obj
 0001:0003dbd0       ?setAnonTypeCount@SchemaGrammar@xercesc_3_1@@QAEXI@Z 1203ebd0 f i XMLGrammarPoolImpl.obj
 0001:0003dbe0       ?setEnclosingCTDefinition@XSAttributeDeclaration@xercesc_3_1@@AAEXQAVXSComplexTypeDefinition@2@@Z 1203ebe0 f i PSVIAttributeList.obj
 0001:0003dbe0       ?setElemId@DTDAttDef@xercesc_3_1@@QAEXK@Z 1203ebe0 f i XMLElementDecl.obj
 0001:0003dbe0       ?setErrorHandler@SAX2XMLFilterImpl@xercesc_3_1@@UAEXQAVErrorHandler@2@@Z 1203ebe0 f i SAX2XMLFilterImpl.obj
 0001:0003dbe0       ?setAttGroupInfoRegistry@SchemaGrammar@xercesc_3_1@@QAEXQAV?$RefHashTableOf@VXercesAttGroupInfo@xercesc_3_1@@UStringHasher@2@@2@@Z 1203ebe0 f i XMLGrammarPoolImpl.obj
 0001:0003dbe0       ?setFinalSet@SchemaElementDecl@xercesc_3_1@@QAEXH@Z 1203ebe0 f i XMLElementDecl.obj
 0001:0003dbe0       ?setElemId@SchemaAttDef@xercesc_3_1@@QAEXK@Z 1203ebe0 f i XMLElementDecl.obj
 0001:0003dbe0       ?setSchemaTypeInfo@DOMAttrImpl@xercesc_3_1@@UAEXPBVDOMTypeInfoImpl@2@@Z 1203ebe0 f i DOMAttrImpl.obj
 0001:0003dbe0       ?setCaseInsensitiveToken@RangeToken@xercesc_3_1@@QAEXPAV12@@Z 1203ebe0 f i ASCIIRangeFactory.obj
 0001:0003dbe0       ?setMaxOccurs@ContentSpecNode@xercesc_3_1@@QAEXH@Z 1203ebe0 f i XMLGrammarPoolImpl.obj
 0001:0003dbe0       ?setEnclosingCTDefinition@XSElementDeclaration@xercesc_3_1@@AAEXQAVXSComplexTypeDefinition@2@@Z 1203ebe0 f i PSVIElement.obj
 0001:0003dbf0       ?setCompleteWildCard@XercesAttGroupInfo@xercesc_3_1@@QAEXQAVSchemaAttDef@2@@Z 1203ebf0 f i XMLGrammarPoolImpl.obj
 0001:0003dc10       ?setDeclaredInIntSubset@DTDEntityDecl@xercesc_3_1@@QAEX_N@Z 1203ec10 f i XMLGrammarPoolImpl.obj
 0001:0003dc20       ?setElement@ContentSpecNode@xercesc_3_1@@QAEXQAVQName@2@@Z 1203ec20 f i XMLGrammarPoolImpl.obj
 0001:0003dcb0       ?setEnumeration@AbstractStringValidator@xercesc_3_1@@IAEXPAV?$RefArrayVectorOf@G@2@_N@Z 1203ecb0 f i XMLGrammarPoolImpl.obj
 0001:0003dcf0       ?setFirst@ContentSpecNode@xercesc_3_1@@QAEXQAV12@@Z 1203ecf0 f i XMLGrammarPoolImpl.obj
 0001:0003dd20       ?setIgnoreSerializedAnnotations@XMLGrammarPool@xercesc_3_1@@QAEX_N@Z 1203ed20 f i XMLGrammarPoolImpl.obj
 0001:0003dd20       ?setPreprocessed@ComplexTypeInfo@xercesc_3_1@@QAEX_N@Z 1203ed20 f i XMLElementDecl.obj
 0001:0003dd30       ?setIsParameter@DTDEntityDecl@xercesc_3_1@@QAEX_N@Z 1203ed30 f i XMLGrammarPoolImpl.obj
 0001:0003dd40       ?setIsSpecialChar@DTDEntityDecl@xercesc_3_1@@QAEX_N@Z 1203ed40 f i XMLGrammarPoolImpl.obj
 0001:0003dd50       ?setLineCol@XSAnnotation@xercesc_3_1@@QAEX_K0@Z 1203ed50 f i XMLGrammarPoolImpl.obj
 0001:0003dd70       ?setMinLength@AbstractStringValidator@xercesc_3_1@@IAEXK@Z 1203ed70 f i XMLGrammarPoolImpl.obj
 0001:0003dd70       ?setDatatypeValidator@SchemaElementDecl@xercesc_3_1@@QAEXPAVDatatypeValidator@2@@Z 1203ed70 f i XMLElementDecl.obj
 0001:0003dd80       ?setScopeCount@SchemaGrammar@xercesc_3_1@@QAEXI@Z 1203ed80 f i XMLGrammarPoolImpl.obj
 0001:0003dd90       ?setSecond@ContentSpecNode@xercesc_3_1@@QAEXQAV12@@Z 1203ed90 f i XMLGrammarPoolImpl.obj
 0001:0003ddc0       ?setTargetNamespace@SchemaGrammar@xercesc_3_1@@QAEXQBG@Z 1203edc0 f i XMLGrammarPoolImpl.obj
 0001:0003de30       ?setFinite@DatatypeValidator@xercesc_3_1@@IAEX_N@Z 1203ee30 f i XMLAttr.obj
 0001:0003de30       ?setUsed@XMLRefInfo@xercesc_3_1@@QAEX_N@Z 1203ee30 f i XMLGrammarPoolImpl.obj
 0001:0003de30       ?setAbstract@ComplexTypeInfo@xercesc_3_1@@QAEX_N@Z 1203ee30 f i XMLElementDecl.obj
 0001:0003de40       ?setValidated@SchemaGrammar@xercesc_3_1@@UAEX_N@Z 1203ee40 f i XMLGrammarPoolImpl.obj
 0001:0003de50       ?unlockPool@XMLGrammarPoolImpl@xercesc_3_1@@UAEXXZ 1203ee50 f   XMLGrammarPoolImpl.obj
 0001:0003deb0       ?createObject@XMLNotationDecl@xercesc_3_1@@SAPAVXSerializable@2@PAVMemoryManager@2@@Z 1203eeb0 f   XMLNotationDecl.obj
 0001:0003df70       ??0XMLNotationDecl@xercesc_3_1@@QAE@QAVMemoryManager@1@@Z 1203ef70 f   XMLNotationDecl.obj
 0001:0003e000       ??0XMLNotationDecl@xercesc_3_1@@QAE@QBG000QAVMemoryManager@1@@Z 1203f000 f   XMLNotationDecl.obj
 0001:0003e110       ??1XMLNotationDecl@xercesc_3_1@@UAE@XZ 1203f110 f   XMLNotationDecl.obj
 0001:0003e190       ??_EXMLNotationDecl@xercesc_3_1@@UAEPAXI@Z 1203f190 f i XMLNotationDecl.obj
 0001:0003e270       ?cleanUp@XMLNotationDecl@xercesc_3_1@@AAEXXZ 1203f270 f   XMLNotationDecl.obj
 0001:0003e2b0       ?getProtoType@XMLNotationDecl@xercesc_3_1@@UBEPAVXProtoType@2@XZ 1203f2b0 f   XMLNotationDecl.obj
 0001:0003e2c0       ?serialize@XMLNotationDecl@xercesc_3_1@@UAEXAAVXSerializeEngine@2@@Z 1203f2c0 f   XMLNotationDecl.obj
 0001:0003e3a0       ?setName@XMLNotationDecl@xercesc_3_1@@QAEXQBG@Z 1203f3a0 f   XMLNotationDecl.obj
 0001:0003e410       ?basicEncodingProbe@XMLRecognizer@xercesc_3_1@@SA?AW4Encodings@12@QBEK@Z 1203f410 f   XMLRecognizer.obj
 0001:0003e5b0       ?encodingForName@XMLRecognizer@xercesc_3_1@@SA?AW4Encodings@12@QBG@Z 1203f5b0 f   XMLRecognizer.obj
 0001:0003e780       ?nameForEncoding@XMLRecognizer@xercesc_3_1@@SAPBGW4Encodings@12@QAVMemoryManager@2@@Z 1203f780 f   XMLRecognizer.obj
 0001:0003e810       ?createObject@XMLRefInfo@xercesc_3_1@@SAPAVXSerializable@2@PAVMemoryManager@2@@Z 1203f810 f   XMLRefInfo.obj
 0001:0003e8b0       ??0XMLRefInfo@xercesc_3_1@@QAE@QAVMemoryManager@1@@Z 1203f8b0 f   XMLRefInfo.obj
 0001:0003e920       ?getProtoType@XMLRefInfo@xercesc_3_1@@UBEPAVXProtoType@2@XZ 1203f920 f   XMLRefInfo.obj
 0001:0003e930       ?serialize@XMLRefInfo@xercesc_3_1@@UAEXAAVXSerializeEngine@2@@Z 1203f930 f   XMLRefInfo.obj
 0001:0003e9a0       ??0XMLSchemaDescription@xercesc_3_1@@IAE@QAVMemoryManager@1@@Z 1203f9a0 f   XMLSchemaDescription.obj
 0001:0003ea00       ??1XMLSchemaDescription@xercesc_3_1@@UAE@XZ 1203fa00 f   XMLSchemaDescription.obj
 0001:0003ea50       ??_EXMLSchemaDescription@xercesc_3_1@@UAEPAXI@Z 1203fa50 f i XMLSchemaDescription.obj
 0001:0003eb00       ?getProtoType@XMLSchemaDescription@xercesc_3_1@@UBEPAVXProtoType@2@XZ 1203fb00 f   XMLSchemaDescription.obj
 0001:0003eb10       ?serialize@XMLDTDDescription@xercesc_3_1@@UAEXAAVXSerializeEngine@2@@Z 1203fb10 f   XMLDTDDescription.obj
 0001:0003eb10       ?serialize@XMLSchemaDescription@xercesc_3_1@@UAEXAAVXSerializeEngine@2@@Z 1203fb10 f   XMLSchemaDescription.obj
 0001:0003eb20       ??0Locator@xercesc_3_1@@QAE@XZ 1203fb20 f i XMLValidator.obj
 0001:0003eb30       ??0SecurityManager@xercesc_3_1@@QAE@XZ 1203fb30 f i XMLValidator.obj
 0001:0003eb40       ??0ThrowEOEJanitor@xercesc_3_1@@QAE@PAVReaderMgr@1@_N@Z 1203fb40 f i XMLValidator.obj
 0001:0003eb60       ??0XMLValidator@xercesc_3_1@@IAE@QAVXMLErrorReporter@1@@Z 1203fb60 f   XMLValidator.obj
 0001:0003eb90       ??1Locator@xercesc_3_1@@UAE@XZ 1203fb90 f i XMLValidator.obj
 0001:0003eba0       ??1SecurityManager@xercesc_3_1@@UAE@XZ 1203fba0 f i XMLValidator.obj
 0001:0003ebb0       ??1ThrowEOEJanitor@xercesc_3_1@@QAE@XZ 1203fbb0 f i XMLValidator.obj
 0001:0003ebc0       ??1XMLValidator@xercesc_3_1@@UAE@XZ 1203fbc0 f i XMLValidator.obj
 0001:0003ebd0       ??_ELocator@xercesc_3_1@@UAEPAXI@Z 1203fbd0 f i XMLValidator.obj
 0001:0003ec30       ??_ESecurityManager@xercesc_3_1@@UAEPAXI@Z 1203fc30 f i XMLValidator.obj
 0001:0003ec90       ??_EXMLValidator@xercesc_3_1@@UAEPAXI@Z 1203fc90 f i XMLValidator.obj
 0001:0003ecf0       ??_FElemStack@xercesc_3_1@@QAEXXZ 1203fcf0 f i XMLValidator.obj
 0001:0003ed00       ??_FReaderMgr@xercesc_3_1@@QAEXXZ 1203fd00 f i XMLValidator.obj
 0001:0003ed10       ??_FWFElemStack@xercesc_3_1@@QAEXXZ 1203fd10 f i XMLValidator.obj
 0001:0003ed20       ??_FXMLValidator@xercesc_3_1@@QAEXXZ 1203fd20 f i XMLValidator.obj
 0001:0003ed50       ?addGlobalPrefix@XMLScanner@xercesc_3_1@@QAEXQBGI@Z 1203fd50 f i XMLValidator.obj
 0001:0003ed60       ?bufferFull@XMLScanner@xercesc_3_1@@UAE_NAAVXMLBuffer@2@@Z 1203fd60 f i XMLValidator.obj
 0001:0003ed80       ?cacheGrammarFromParse@XMLScanner@xercesc_3_1@@QAEX_N@Z 1203fd80 f i XMLValidator.obj
 0001:0003ed90       ?emitError@XMLValidator@xercesc_3_1@@QAEXW4Codes@XMLValid@2@@Z 1203fd90 f   XMLValidator.obj
 0001:0003eeb0       ?emitError@XMLValidator@xercesc_3_1@@QAEXW4Codes@XMLValid@2@QBD111@Z 1203feb0 f   XMLValidator.obj
 0001:0003f000       ?emitError@XMLValidator@xercesc_3_1@@QAEXW4Codes@XMLValid@2@QBG111@Z 12040000 f   XMLValidator.obj
 0001:0003f150       ?emitError@XMLValidator@xercesc_3_1@@QAEXW4Codes@XMLValid@2@W43XMLExcepts@2@QBG222@Z 12040150 f   XMLValidator.obj
 0001:0003f2b0       ?getCalculateSrcOfs@XMLScanner@xercesc_3_1@@QBE_NXZ 120402b0 f i XMLValidator.obj
 0001:0003f2c0       ?getCommentOrPISeen@ElemStack@xercesc_3_1@@QBE_NXZ 120402c0 f i XMLValidator.obj
 0001:0003f2d0       ?getCurrentGrammar@ElemStack@xercesc_3_1@@QAEPAVGrammar@2@XZ 120402d0 f i XMLValidator.obj
 0001:0003f2e0       ?getCurrentGrammarType@XMLScanner@xercesc_3_1@@UBE?AW4GrammarType@Grammar@2@XZ 120402e0 f i XMLValidator.obj
 0001:0003f2e0       ?size@ConcatToken@xercesc_3_1@@UBEKXZ 120402e0 f i ConcatToken.obj
 0001:0003f2e0       ?getNodeType@DOMAttrImpl@xercesc_3_1@@UBE?AW4NodeType@DOMNode@2@XZ 120402e0 f i DOMAttrImpl.obj
 0001:0003f2e0       ?getType@IC_KeyRef@xercesc_3_1@@UBEFXZ 120402e0 f i XSIDCDefinition.obj
 0001:0003f2f0       ?getCurrentReaderNum@ReaderMgr@xercesc_3_1@@QBEKXZ 120402f0 f i XMLValidator.obj
 0001:0003f300       ?getCurrentSchemaElemName@ElemStack@xercesc_3_1@@QAEPAGXZ 12040300 f i XMLValidator.obj
 0001:0003f310       ?getCurrentScope@ElemStack@xercesc_3_1@@QAEHXZ 12040310 f i XMLValidator.obj
 0001:0003f320       ?getCurrentURI@ElemStack@xercesc_3_1@@QAEIXZ 12040320 f i XMLValidator.obj
 0001:0003f330       ?getCurrentURI@WFElemStack@xercesc_3_1@@QAEIXZ 12040330 f i XMLValidator.obj
 0001:0003f340       ?getDisableDefaultEntityResolution@XMLScanner@xercesc_3_1@@QBE_NXZ 12040340 f i XMLValidator.obj
 0001:0003f350       ?getDoNamespaces@XMLScanner@xercesc_3_1@@QBE_NXZ 12040350 f i XMLValidator.obj
 0001:0003f360       ?getDoSchema@XMLScanner@xercesc_3_1@@QBE_NXZ 12040360 f i XMLValidator.obj
 0001:0003f370       ?getDocTypeHandler@XMLScanner@xercesc_3_1@@QAEPAVDocTypeHandler@2@XZ 12040370 f i XMLValidator.obj
 0001:0003f370       ?getErrorHandler@XercesDOMParser@xercesc_3_1@@QBEPBVErrorHandler@2@XZ 12040370 f i XSAnnotation.obj
 0001:0003f370       ?getDeclarationHandler@SAX2XMLReaderImpl@xercesc_3_1@@UBEPAVDeclHandler@2@XZ 12040370 f i SAX2XMLReaderImpl.obj
 0001:0003f370       ?getDocTypeHandler@XMLScanner@xercesc_3_1@@QBEPBVDocTypeHandler@2@XZ 12040370 f i XMLValidator.obj
 0001:0003f370       ?getErrorHandler@XercesDOMParser@xercesc_3_1@@QAEPAVErrorHandler@2@XZ 12040370 f i XSAnnotation.obj
 0001:0003f380       ?getEntityHandler@XMLScanner@xercesc_3_1@@QAEPAVXMLEntityHandler@2@XZ 12040380 f i XMLValidator.obj
 0001:0003f380       ?getNonXSAttList@SchemaInfo@xercesc_3_1@@QBEPAV?$ValueVectorOf@PAVDOMNode@xercesc_3_1@@@2@XZ 12040380 f i IGXMLScanner.obj
 0001:0003f380       ?getEntityHandler@XMLScanner@xercesc_3_1@@QBEPBVXMLEntityHandler@2@XZ 12040380 f i XMLValidator.obj
 0001:0003f390       ?getErrorHandler@XMLScanner@xercesc_3_1@@QAEPAVErrorHandler@2@XZ 12040390 f i XMLValidator.obj
 0001:0003f390       ?getErrorHandler@XMLScanner@xercesc_3_1@@QBEPBVErrorHandler@2@XZ 12040390 f i XMLValidator.obj
 0001:0003f3a0       ?getExitOnFirstFatal@XMLScanner@xercesc_3_1@@QBE_NXZ 120403a0 f i XMLValidator.obj
 0001:0003f3b0       ?getExternalNoNamespaceSchemaLocation@XMLScanner@xercesc_3_1@@QBEPAGXZ 120403b0 f i XMLValidator.obj
 0001:0003f3c0       ?getExternalSchemaLocation@XMLScanner@xercesc_3_1@@QBEPAGXZ 120403c0 f i XMLValidator.obj
 0001:0003f3d0       ?getGenerateSyntheticAnnotations@XMLScanner@xercesc_3_1@@QBE_NXZ 120403d0 f i XMLValidator.obj
 0001:0003f3e0       ?getGrammarPoolMemoryManager@GrammarResolver@xercesc_3_1@@QBEPAVMemoryManager@2@XZ 120403e0 f i XMLValidator.obj
 0001:0003f3f0       ?getHasNoDTD@XMLScanner@xercesc_3_1@@QBE_NXZ 120403f0 f i XMLValidator.obj
 0001:0003f400       ?getIDRefList@XMLScanner@xercesc_3_1@@QBEPBV?$RefHashTableOf@VXMLRefInfo@xercesc_3_1@@UStringHasher@2@@2@XZ 12040400 f i XMLValidator.obj
 0001:0003f400       ?getIDRefList@XMLScanner@xercesc_3_1@@QAEPAV?$RefHashTableOf@VXMLRefInfo@xercesc_3_1@@UStringHasher@2@@2@XZ 12040400 f i XMLValidator.obj
 0001:0003f410       ?getIgnoreAnnotations@XMLScanner@xercesc_3_1@@QBE_NXZ 12040410 f i XMLValidator.obj
 0001:0003f420       ?getIgnoreCachedDTD@XMLScanner@xercesc_3_1@@QBE_NXZ 12040420 f i XMLValidator.obj
 0001:0003f420       ?getMaxOccursUnbounded@XSParticle@xercesc_3_1@@QBE_NXZ 12040420 f i XSComplexTypeDefinition.obj
 0001:0003f420       ?getIsSchemaSpecified@PSVIItem@xercesc_3_1@@QBE_NXZ 12040420 f i PSVIAttribute.obj
 0001:0003f430       ?getInException@XMLScanner@xercesc_3_1@@QBE_NXZ 12040430 f i XMLValidator.obj
 0001:0003f440       ?getLocator@XMLScanner@xercesc_3_1@@QBEPBVLocator@2@XZ 12040440 f i XMLValidator.obj
 0001:0003f440       ?getReaderMgr@XMLScanner@xercesc_3_1@@QBEPBVReaderMgr@2@XZ 12040440 f i XMLValidator.obj
 0001:0003f450       ?getLowWaterMark@XMLScanner@xercesc_3_1@@QBEABKXZ 12040450 f i XMLValidator.obj
 0001:0003f460       ?getMemoryManager@XMLScanner@xercesc_3_1@@QBEPAVMemoryManager@2@XZ 12040460 f i XMLValidator.obj
 0001:0003f470       ?getName@ReaderMgr@xercesc_3_1@@QAE_NAAVXMLBuffer@2@@Z 12040470 f i XMLValidator.obj
 0001:0003f490       ?getNameToken@ReaderMgr@xercesc_3_1@@QAE_NAAVXMLBuffer@2@@Z 12040490 f i XMLValidator.obj
 0001:0003f4b0       ?getNamespaceContext@XMLScanner@xercesc_3_1@@QBEPAV?$ValueVectorOf@PAUPrefMapElem@xercesc_3_1@@@2@XZ 120404b0 f i XMLValidator.obj
 0001:0003f4c0       ?getNextCharIfNot@ReaderMgr@xercesc_3_1@@QAE_NGAAG@Z 120404c0 f i XMLValidator.obj
 0001:0003f4d0       ?getPrefixColonPos@ElemStack@xercesc_3_1@@QBEHXZ 120404d0 f i XMLValidator.obj
 0001:0003f4e0       ?getPrefixForId@ElemStack@xercesc_3_1@@QBEPBGI@Z 120404e0 f i XMLValidator.obj
 0001:0003f4f0       ?getPrefixForId@XMLScanner@xercesc_3_1@@QBEPBGI@Z 120404f0 f i XMLValidator.obj
 0001:0003f500       ?getPrefixId@ElemStack@xercesc_3_1@@QBEIQBG@Z 12040500 f i XMLValidator.obj
 0001:0003f510       ?getPrefixId@XMLScanner@xercesc_3_1@@QBEIQBG@Z 12040510 f i XMLValidator.obj
 0001:0003f520       ?getQName@ReaderMgr@xercesc_3_1@@QAE_NAAVXMLBuffer@2@PAH@Z 12040520 f i XMLValidator.obj
 0001:0003f540       ?getReferenceEscaped@ElemStack@xercesc_3_1@@QBE_NXZ 12040540 f i XMLValidator.obj
 0001:0003f550       ?getRootGrammar@XMLScanner@xercesc_3_1@@QBEPAVGrammar@2@XZ 12040550 f i XMLValidator.obj
 0001:0003f560       ?getSecurityManager@XMLScanner@xercesc_3_1@@QBEPAVSecurityManager@2@XZ 12040560 f i XMLValidator.obj
 0001:0003f570       ?getSkipDTDValidation@XMLScanner@xercesc_3_1@@QBE_NXZ 12040570 f i XMLValidator.obj
 0001:0003f580       ?getSrcOffset@ReaderMgr@xercesc_3_1@@QBE_KXZ 12040580 f i XMLValidator.obj
 0001:0003f5b0       ?getSrcOffset@XMLScanner@xercesc_3_1@@QBE_KXZ 120405b0 f i XMLValidator.obj
 0001:0003f5e0       ?getStandalone@XMLScanner@xercesc_3_1@@QBE_NXZ 120405e0 f i XMLValidator.obj
 0001:0003f5f0       ?getURIStringPool@XMLScanner@xercesc_3_1@@QAEPAVXMLStringPool@2@XZ 120405f0 f i XMLValidator.obj
 0001:0003f5f0       ?getURIStringPool@XMLScanner@xercesc_3_1@@QBEPBVXMLStringPool@2@XZ 120405f0 f i XMLValidator.obj
 0001:0003f600       ?getValidateAnnotations@XMLScanner@xercesc_3_1@@QBE_NXZ 12040600 f i XMLValidator.obj
 0001:0003f610       ?getValidationContext@XMLScanner@xercesc_3_1@@QAEPAVValidationContext@2@XZ 12040610 f i XMLValidator.obj
 0001:0003f650       ?getValidationFlag@ElemStack@xercesc_3_1@@QAE_NXZ 12040650 f i XMLValidator.obj
 0001:0003f660       ?getValidationScheme@XMLScanner@xercesc_3_1@@QBE?AW4ValSchemes@12@XZ 12040660 f i XMLValidator.obj
 0001:0003f670       ?getValidator@XMLScanner@xercesc_3_1@@QAEPAVXMLValidator@2@XZ 12040670 f i XMLValidator.obj
 0001:0003f670       ?getValidator@XMLScanner@xercesc_3_1@@QBEPBVXMLValidator@2@XZ 12040670 f i XMLValidator.obj
 0001:0003f680       ?getXMLVersion@XMLScanner@xercesc_3_1@@QBE?AW4XMLVersion@XMLReader@2@XZ 12040680 f i XMLValidator.obj
 0001:0003f690       ?incrementErrorCount@XMLScanner@xercesc_3_1@@QAEXXZ 12040690 f i XMLValidator.obj
 0001:0003f6a0       ?initializeXMLValidator@XMLInitializer@xercesc_3_1@@CAXXZ 120406a0 f   XMLValidator.obj
 0001:0003f6c0       ?isEmpty@ElemStack@xercesc_3_1@@QBE_NXZ 120406c0 f i XMLValidator.obj
 0001:0003f6d0       ?isEmpty@NamespaceScope@xercesc_3_1@@QBE_NXZ 120406d0 f i XMLGrammarPoolImpl.obj
 0001:0003f6d0       ?isEmpty@WFElemStack@xercesc_3_1@@QBE_NXZ 120406d0 f i XMLValidator.obj
 0001:0003f6e0       ?lookingAtChar@ReaderMgr@xercesc_3_1@@QAE_NG@Z 120406e0 f i XMLValidator.obj
 0001:0003f700       ?lookingAtSpace@ReaderMgr@xercesc_3_1@@QAE_NXZ 12040700 f i XMLValidator.obj
 0001:0003f720       ?movePlainContentChars@ReaderMgr@xercesc_3_1@@QAEXAAVXMLBuffer@2@@Z 12040720 f i XMLValidator.obj
 0001:0003f730       ?peekString@ReaderMgr@xercesc_3_1@@QAE_NQBG@Z 12040730 f i XMLValidator.obj
 0001:0003f740       ?removeAll@?$RefHash2KeysTableOf@VXMLAttr@xercesc_3_1@@UStringHasher@2@@xercesc_3_1@@QAEXXZ 12040740 f i XMLValidator.obj
 0001:0003f7d0       ?resetValidationContext@XMLScanner@xercesc_3_1@@IAEXXZ 120407d0 f i XMLValidator.obj
 0001:0003f800       ?setAttrDupChkRegistry@XMLScanner@xercesc_3_1@@IAEXABKAA_N@Z 12040800 f i XMLValidator.obj
 0001:0003f8f0       ?setCalculateSrcOfs@XMLScanner@xercesc_3_1@@QAEX_N@Z 120408f0 f i XMLValidator.obj
 0001:0003f900       ?setCommentOrPISeen@ElemStack@xercesc_3_1@@QAEXXZ 12040900 f i XMLValidator.obj
 0001:0003f910       ?setCurrentGrammar@ElemStack@xercesc_3_1@@QAEXPAVGrammar@2@@Z 12040910 f i XMLValidator.obj
 0001:0003f930       ?setCurrentSchemaElemName@ElemStack@xercesc_3_1@@QAEXQBG@Z 12040930 f i XMLValidator.obj
 0001:0003f9d0       ?setCurrentScope@ElemStack@xercesc_3_1@@QAEXH@Z 120409d0 f i XMLValidator.obj
 0001:0003f9f0       ?setCurrentURI@ElemStack@xercesc_3_1@@QAEXI@Z 120409f0 f i XMLValidator.obj
 0001:0003fa10       ?setCurrentURI@WFElemStack@xercesc_3_1@@QAEXI@Z 12040a10 f i XMLValidator.obj
 0001:0003fa30       ?setDisableDefaultEntityResolution@XMLScanner@xercesc_3_1@@QAEX_N@Z 12040a30 f i XMLValidator.obj
 0001:0003fa40       ?setDoNamespaces@XMLScanner@xercesc_3_1@@QAEX_N@Z 12040a40 f i XMLValidator.obj
 0001:0003fa50       ?setDoSchema@XMLScanner@xercesc_3_1@@QAEX_N@Z 12040a50 f i XMLValidator.obj
 0001:0003fa60       ?setDocHandler@XMLScanner@xercesc_3_1@@QAEXQAVXMLDocumentHandler@2@@Z 12040a60 f i XMLValidator.obj
 0001:0003fa70       ?setDocTypeHandler@XMLScanner@xercesc_3_1@@QAEXQAVDocTypeHandler@2@@Z 12040a70 f i XMLValidator.obj
 0001:0003fa80       ?setEntityHandler@XMLScanner@xercesc_3_1@@QAEXQAVXMLEntityHandler@2@@Z 12040a80 f i XMLValidator.obj
 0001:0003faa0       ?setErrorHandler@XMLScanner@xercesc_3_1@@QAEXQAVErrorHandler@2@@Z 12040aa0 f i XMLValidator.obj
 0001:0003fab0       ?setErrorReporter@XMLScanner@xercesc_3_1@@QAEXQAVXMLErrorReporter@2@@Z 12040ab0 f i XMLValidator.obj
 0001:0003fac0       ?setType@XMLAttDef@xercesc_3_1@@QAEXW4AttTypes@12@@Z 12040ac0 f i XMLAttDef.obj
 0001:0003fac0       ?setErrorHandler@DOMConfigurationImpl@xercesc_3_1@@QAEXPAVDOMErrorHandler@2@@Z 12040ac0 f i DOMConfigurationImpl.obj
 0001:0003fac0       ?setScope@XercesGroupInfo@xercesc_3_1@@QAEXI@Z 12040ac0 f i XMLGrammarPoolImpl.obj
 0001:0003fac0       ?setErrorReporter@XSDErrorReporter@xercesc_3_1@@QAEXQAVXMLErrorReporter@2@@Z 12040ac0 f i IGXMLScanner.obj
 0001:0003fac0       ?setFinalDefault@SchemaInfo@xercesc_3_1@@QAEXH@Z 12040ac0 f i IGXMLScanner.obj
 0001:0003fac0       ?setNameSpaceId@XMLNotationDecl@xercesc_3_1@@QAEXI@Z 12040ac0 f i XMLDTDDescription.obj
 0001:0003fac0       ?setOpType@Op@xercesc_3_1@@QAEXW4opType@12@@Z 12040ac0 f i Op.obj
 0001:0003fac0       ?setLowWaterMark@XMLScanner@xercesc_3_1@@QAEXK@Z 12040ac0 f i XMLValidator.obj
 0001:0003fac0       ?setSeverity@DOMErrorImpl@xercesc_3_1@@QAEXW4ErrorSeverity@DOMError@2@@Z 12040ac0 f i DOMLSParserImpl.obj
 0001:0003fac0       ?setErrorReporter@XMLValidator@xercesc_3_1@@QAEXQAVXMLErrorReporter@2@@Z 12040ac0 f i XMLValidator.obj
 0001:0003fac0       ?setContextType@XMLSchemaDescriptionImpl@xercesc_3_1@@UAEXW4ContextType@XMLSchemaDescription@2@@Z 12040ac0 f i XMLSchemaDescriptionImpl.obj
 0001:0003fac0       ?setByteStream@DOMLSInputImpl@xercesc_3_1@@UAEXPAVInputSource@2@@Z 12040ac0 f i DOMLSInputImpl.obj
 0001:0003fad0       ?setExitOnFirstFatal@XMLScanner@xercesc_3_1@@QAEX_N@Z 12040ad0 f i XMLValidator.obj
 0001:0003fae0       ?setExternalNoNamespaceSchemaLocation@XMLScanner@xercesc_3_1@@QAEXQBD@Z 12040ae0 f i XMLValidator.obj
 0001:0003fb20       ?setExternalNoNamespaceSchemaLocation@XMLScanner@xercesc_3_1@@QAEXQBG@Z 12040b20 f i XMLValidator.obj
 0001:0003fba0       ?setExternalSchemaLocation@XMLScanner@xercesc_3_1@@QAEXQBD@Z 12040ba0 f i XMLValidator.obj
 0001:0003fbe0       ?setExternalSchemaLocation@XMLScanner@xercesc_3_1@@QAEXQBG@Z 12040be0 f i XMLValidator.obj
 0001:0003fc60       ?setGenerateSyntheticAnnotations@XMLScanner@xercesc_3_1@@QAEX_N@Z 12040c60 f i XMLValidator.obj
 0001:0003fc70       ?setIsExternal@XMLEntityDecl@xercesc_3_1@@QAEX_N@Z 12040c70 f i XMLDTDDescription.obj
 0001:0003fc70       ?setStandardUriConformant@ReaderMgr@xercesc_3_1@@QAEX_N@Z 12040c70 f i XMLValidator.obj
 0001:0003fc70       ?setHandleMultipleImports@XMLScanner@xercesc_3_1@@QAEX_N@Z 12040c70 f i XMLValidator.obj
 0001:0003fc80       ?setHasNoDTD@XMLScanner@xercesc_3_1@@QAEX_N@Z 12040c80 f i XMLValidator.obj
 0001:0003fc90       ?setIgnoreAnnotations@XMLScanner@xercesc_3_1@@QAEX_N@Z 12040c90 f i XMLValidator.obj
 0001:0003fca0       ?setInputBufferSize@XMLScanner@xercesc_3_1@@QAEXK@Z 12040ca0 f i XMLValidator.obj
 0001:0003fce0       ?setAdoptSecond@ContentSpecNode@xercesc_3_1@@QAEX_N@Z 12040ce0 f i XMLGrammarPoolImpl.obj
 0001:0003fce0       ?setNormalizeData@XMLScanner@xercesc_3_1@@QAEX_N@Z 12040ce0 f i XMLValidator.obj
 0001:0003fcf0       ?setPSVIHandler@XMLScanner@xercesc_3_1@@QAEXQAVPSVIHandler@2@@Z 12040cf0 f i XMLValidator.obj
 0001:0003fd00       ?setPrefixColonPos@ElemStack@xercesc_3_1@@QAEXH@Z 12040d00 f i XMLValidator.obj
 0001:0003fd20       ?setReferenceEscaped@ElemStack@xercesc_3_1@@QAEXXZ 12040d20 f i XMLValidator.obj
 0001:0003fd30       ?setRootElemName@XMLScanner@xercesc_3_1@@QAEXPAG@Z 12040d30 f i XMLValidator.obj
 0001:0003fdb0       ?setScannerInfo@XMLValidator@xercesc_3_1@@QAEXQAVXMLScanner@2@QAVReaderMgr@2@QAVXMLBufferMgr@2@@Z 12040db0 f i XMLValidator.obj
 0001:0003fdd0       ?setSecurityManager@XMLScanner@xercesc_3_1@@QAEXQAVSecurityManager@2@@Z 12040dd0 f i XMLValidator.obj
 0001:0003fe00       ?setSkipDTDValidation@XMLScanner@xercesc_3_1@@QAEX_N@Z 12040e00 f i XMLValidator.obj
 0001:0003fe10       ?setStandardUriConformant@XMLScanner@xercesc_3_1@@QAEX_N@Z 12040e10 f i XMLValidator.obj
 0001:0003fe30       ?setValidateAnnotations@XMLScanner@xercesc_3_1@@QAEX_N@Z 12040e30 f i XMLValidator.obj
 0001:0003fe40       ?setValidationFlag@ElemStack@xercesc_3_1@@QAEX_N@Z 12040e40 f i XMLValidator.obj
 0001:0003fe60       ?setParseInProgress@AbstractDOMParser@xercesc_3_1@@IAEX_N@Z 12040e60 f i XSAnnotation.obj
 0001:0003fe60       ?setValidationSchemaFullChecking@XMLScanner@xercesc_3_1@@QAEX_N@Z 12040e60 f i XMLValidator.obj
 0001:0003fe70       ?setValidationScheme@XMLScanner@xercesc_3_1@@QAEXW4ValSchemes@12@@Z 12040e70 f i XMLValidator.obj
 0001:0003fe90       ?setXMLVersion@ReaderMgr@xercesc_3_1@@QAEXW4XMLVersion@XMLReader@2@@Z 12040e90 f i XMLValidator.obj
 0001:0003fee0       ?skipPastChar@ReaderMgr@xercesc_3_1@@QAEXG@Z 12040ee0 f i XMLValidator.obj
 0001:0003fee0       ?skipToChar@ReaderMgr@xercesc_3_1@@QAEXG@Z 12040ee0 f i XMLValidator.obj
 0001:0003ff10       ?skippedString@ReaderMgr@xercesc_3_1@@QAE_NQBG@Z 12040f10 f i XMLValidator.obj
 0001:0003ff20       ?skippedStringLong@ReaderMgr@xercesc_3_1@@QAE_NQBG@Z 12040f20 f i XMLValidator.obj
 0001:0003ff30       ?terminateXMLValidator@XMLInitializer@xercesc_3_1@@CAXXZ 12040f30 f   XMLValidator.obj
 0001:0003ff50       ?useCachedGrammarInParse@XMLScanner@xercesc_3_1@@QAEX_N@Z 12040f50 f i XMLValidator.obj
 0001:0003ff60       ??0PSVIAttribute@xercesc_3_1@@QAE@QAVMemoryManager@1@@Z 12040f60 f   PSVIAttribute.obj
 0001:0003ffd0       ??1PSVIAttribute@xercesc_3_1@@UAE@XZ 12040fd0 f i PSVIAttribute.obj
 0001:00040030       ??1PSVIItem@xercesc_3_1@@UAE@XZ 12041030 f i PSVIAttribute.obj
 0001:00040040       ??_EPSVIAttribute@xercesc_3_1@@UAEPAXI@Z 12041040 f i PSVIAttribute.obj
 0001:00040100       ??_EPSVIItem@xercesc_3_1@@UAEPAXI@Z 12041100 f i PSVIAttribute.obj
 0001:00040160       ??_FPSVIAttribute@xercesc_3_1@@QAEXXZ 12041160 f i PSVIAttribute.obj
 0001:000401d0       ??_FPSVIItem@xercesc_3_1@@QAEXXZ 120411d0 f i PSVIAttribute.obj
 0001:000401e0       ?reset@PSVIAttribute@xercesc_3_1@@QAEXQBGW4VALIDITY_STATE@PSVIItem@2@W4ASSESSMENT_TYPE@42@PAVXSSimpleTypeDefinition@2@30_NPAVXSAttributeDeclaration@2@PAVDatatypeValidator@2@@Z 120411e0 f   PSVIAttribute.obj
 0001:00040240       ?setValue@PSVIAttribute@xercesc_3_1@@QAEXQBG@Z 12041240 f   PSVIAttribute.obj
 0001:00040270       ??0PSVIAttributeList@xercesc_3_1@@QAE@QAVMemoryManager@1@@Z 12041270 f   PSVIAttributeList.obj
 0001:00040390       ??0PSVIAttributeStorage@xercesc_3_1@@QAE@XZ 12041390 f i PSVIAttributeList.obj
 0001:000403b0       ??1?$BaseRefVectorOf@VPSVIAttributeStorage@xercesc_3_1@@@xercesc_3_1@@UAE@XZ 120413b0 f i PSVIAttributeList.obj
 0001:000403c0       ??1?$RefVectorOf@VPSVIAttributeStorage@xercesc_3_1@@@xercesc_3_1@@UAE@XZ 120413c0 f i PSVIAttributeList.obj
 0001:00040460       ??1PSVIAttributeList@xercesc_3_1@@QAE@XZ 12041460 f i PSVIAttributeList.obj
 0001:00040470       ??1PSVIAttributeStorage@xercesc_3_1@@QAE@XZ 12041470 f i PSVIAttributeList.obj
 0001:00040480       ??_FPSVIAttributeList@xercesc_3_1@@QAEXXZ 12041480 f i PSVIAttributeList.obj
 0001:00040490       ??_G?$BaseRefVectorOf@VPSVIAttributeStorage@xercesc_3_1@@@xercesc_3_1@@UAEPAXI@Z 12041490 f i PSVIAttributeList.obj
 0001:00040490       ??_E?$BaseRefVectorOf@VPSVIAttributeStorage@xercesc_3_1@@@xercesc_3_1@@UAEPAXI@Z 12041490 f i PSVIAttributeList.obj
 0001:000404c0       ??_G?$RefVectorOf@VPSVIAttributeStorage@xercesc_3_1@@@xercesc_3_1@@UAEPAXI@Z 120414c0 f i PSVIAttributeList.obj
 0001:000404c0       ??_E?$RefVectorOf@VPSVIAttributeStorage@xercesc_3_1@@@xercesc_3_1@@UAEPAXI@Z 120414c0 f i PSVIAttributeList.obj
 0001:000404f0       ?cleanup@?$BaseRefVectorOf@VPSVIAttributeStorage@xercesc_3_1@@@xercesc_3_1@@UAEXXZ 120414f0 f i PSVIAttributeList.obj
 0001:00040540       ?getAttributeNameAtIndex@PSVIAttributeList@xercesc_3_1@@QAEPBGK@Z 12041540 f   PSVIAttributeList.obj
 0001:00040570       ?getAttributeNamespaceAtIndex@PSVIAttributeList@xercesc_3_1@@QAEPBGK@Z 12041570 f   PSVIAttributeList.obj
 0001:000405a0       ?getAttributePSVIAtIndex@PSVIAttributeList@xercesc_3_1@@QAEPAVPSVIAttribute@2@K@Z 120415a0 f   PSVIAttributeList.obj
 0001:000405c0       ?getAttributePSVIByName@PSVIAttributeList@xercesc_3_1@@QAEPAVPSVIAttribute@2@PBG0@Z 120415c0 f   PSVIAttributeList.obj
 0001:00040700       ?getPSVIAttributeToFill@PSVIAttributeList@xercesc_3_1@@QAEPAVPSVIAttribute@2@PBG0@Z 12041700 f i PSVIAttributeList.obj
 0001:000407f0       ?removeAllElements@?$BaseRefVectorOf@VPSVIAttributeStorage@xercesc_3_1@@@xercesc_3_1@@UAEXXZ 120417f0 f i PSVIAttributeList.obj
 0001:00040850       ?removeElementAt@?$BaseRefVectorOf@VPSVIAttributeStorage@xercesc_3_1@@@xercesc_3_1@@UAEXK@Z 12041850 f i PSVIAttributeList.obj
 0001:00040940       ?removeLastElement@?$BaseRefVectorOf@VPSVIAttributeStorage@xercesc_3_1@@@xercesc_3_1@@UAEXXZ 12041940 f i PSVIAttributeList.obj
 0001:00040980       ?Reset@?$ValueVectorEnumerator@H@xercesc_3_1@@UAEXXZ 12041980 f i DOMDocumentImpl.obj
 0001:00040980       ?reset@PSVIAttributeList@xercesc_3_1@@QAEXXZ 12041980 f i PSVIAttributeList.obj
 0001:00040980       ?reset@CharBuffer@xercesc_3_1@@QAEXXZ 12041980 f i BinHTTPInputStreamCommon.obj
 0001:00040980       ?reset@DOMNodeVector@xercesc_3_1@@QAEXXZ 12041980 f i DOMNodeVector.obj
 0001:00040980       ?Reset@?$BaseRefVectorEnumerator@VSchemaInfo@xercesc_3_1@@@xercesc_3_1@@UAEXXZ 12041980 f i IGXMLScanner.obj
 0001:00040990       ?setElementAt@?$BaseRefVectorOf@VPSVIAttributeStorage@xercesc_3_1@@@xercesc_3_1@@UAEXQAVPSVIAttributeStorage@2@K@Z 12041990 f i PSVIAttributeList.obj
 0001:00040a50       ??0PSVIElement@xercesc_3_1@@QAE@QAVMemoryManager@1@@Z 12041a50 f   PSVIElement.obj
 0001:00040ac0       ??1PSVIElement@xercesc_3_1@@UAE@XZ 12041ac0 f   PSVIElement.obj
 0001:00040b20       ??_EPSVIElement@xercesc_3_1@@UAEPAXI@Z 12041b20 f i PSVIElement.obj
 0001:00040be0       ??_FPSVIElement@xercesc_3_1@@QAEXXZ 12041be0 f i PSVIElement.obj
 0001:00040c50       ?getSubstitutionGroupAffiliation@XSElementDeclaration@xercesc_3_1@@QBEPAV12@XZ 12041c50 f i PSVIElement.obj
 0001:00040c50       ?getCurrentNode@AbstractDOMParser@xercesc_3_1@@IAEPAVDOMNode@2@XZ 12041c50 f i XSAnnotation.obj
 0001:00040c50       ?getNamespaceURI@DOMAttrNSImpl@xercesc_3_1@@UBEPBGXZ 12041c50 f i DOMAttrNSImpl.obj
 0001:00040c50       ?getMemberTypeDefinition@PSVIAttribute@xercesc_3_1@@UAEPAVXSSimpleTypeDefinition@2@XZ 12041c50 f i PSVIAttribute.obj
 0001:00040c50       ?getAttributes@DOMElementImpl@xercesc_3_1@@UBEPAVDOMNamedNodeMap@2@XZ 12041c50 f i DOMElementImpl.obj
 0001:00040c50       ?getRelatedNode@DOMLocatorImpl@xercesc_3_1@@UBEPAVDOMNode@2@XZ 12041c50 f i DOMLSParserImpl.obj
 0001:00040c50       ?getErrorCount@XMLScanner@xercesc_3_1@@QAEHXZ 12041c50 f i XMLValidator.obj
 0001:00040c50       ?getMemoryManager@XMLEntityDecl@xercesc_3_1@@QBEPAVMemoryManager@2@XZ 12041c50 f i XMLDTDDescription.obj
 0001:00040c50       ?getName@DOMDocumentTypeImpl@xercesc_3_1@@UBEPBGXZ 12041c50 f i DOMDocumentTypeImpl.obj
 0001:00040c50       ?getCurrentDatatypeValidator@SchemaValidator@xercesc_3_1@@QBEPAVDatatypeValidator@2@XZ 12041c50 f i IGXMLScanner.obj
 0001:00040c50       ?getPSVIScope@SchemaAttDef@xercesc_3_1@@QBE?AW4PSVIScope@PSVIDefs@2@XZ 12041c50 f i XMLElementDecl.obj
 0001:00040c50       ?getPattern@DatatypeValidator@xercesc_3_1@@IBEPBGXZ 12041c50 f i XMLAttr.obj
 0001:00040c50       ?getNodeName@DOMDocumentTypeImpl@xercesc_3_1@@UBEPBGXZ 12041c50 f i DOMDocumentTypeImpl.obj
 0001:00040c50       ?getAttributeUses@XSComplexTypeDefinition@xercesc_3_1@@QAEPAV?$RefVectorOf@VXSAttributeUse@xercesc_3_1@@@2@XZ 12041c50 f i PSVIElement.obj
 0001:00040c50       ?getSystemId@DOMEntityImpl@xercesc_3_1@@UBEPBGXZ 12041c50 f i DOMEntityImpl.obj
 0001:00040c50       ?getField@FieldMatcher@xercesc_3_1@@QBEPAVIC_Field@2@XZ 12041c50 f i XMLElementDecl.obj
 0001:00040c50       ?getVariety@XSSimpleTypeDefinition@xercesc_3_1@@QBE?AW4VARIETY@12@XZ 12041c50 f i XMLAttr.obj
 0001:00040c50       ?getNodeName@DOMEntityReferenceImpl@xercesc_3_1@@UBEPBGXZ 12041c50 f i DOMEntityReferenceImpl.obj
 0001:00040c50       ?getFullName@DTDAttDef@xercesc_3_1@@UBEPBGXZ 12041c50 f i XMLElementDecl.obj
 0001:00040c50       ?getMemberTypeDefinition@PSVIElement@xercesc_3_1@@UAEPAVXSSimpleTypeDefinition@2@XZ 12041c50 f i PSVIElement.obj
 0001:00040c50       ?getBlockSet@SchemaElementDecl@xercesc_3_1@@QBEHXZ 12041c50 f i XMLElementDecl.obj
 0001:00040c50       ?getValidSubstitutionGroups@SchemaGrammar@xercesc_3_1@@QBEPAV?$RefHash2KeysTableOf@V?$ValueVectorOf@PAVSchemaElementDecl@xercesc_3_1@@@xercesc_3_1@@UStringHasher@2@@2@XZ 12041c50 f i XMLGrammarPoolImpl.obj
 0001:00040c60       ?getDisallowedSubstitutions@XSElementDeclaration@xercesc_3_1@@QBEFXZ 12041c60 f i PSVIElement.obj
 0001:00040c70       ?getProhibitedSubstitutions@XSComplexTypeDefinition@xercesc_3_1@@QBEFXZ 12041c70 f i PSVIElement.obj
 0001:00040c80       ?getSubstitutionGroupExclusions@XSElementDeclaration@xercesc_3_1@@QBEFXZ 12041c80 f i PSVIElement.obj
 0001:00040c90       ?reset@PSVIElement@xercesc_3_1@@QAEXW4VALIDITY_STATE@PSVIItem@2@W4ASSESSMENT_TYPE@42@QBG_NQAVXSElementDeclaration@2@QAVXSTypeDefinition@2@QAVXSSimpleTypeDefinition@2@QAVXSModel@2@22QAGQAVXSNotationDeclaration@2@@Z 12041c90 f   PSVIElement.obj
 0001:00040cf0       ??0PSVIItem@xercesc_3_1@@QAE@QAVMemoryManager@1@@Z 12041cf0 f   PSVIItem.obj
 0001:00040d50       ?getActualValue@PSVIItem@xercesc_3_1@@UBEPAVXSValue@2@XZ 12041d50 f   PSVIItem.obj
 0001:00040de0       ?reset@PSVIItem@xercesc_3_1@@QAEXQBG0W4VALIDITY_STATE@12@W4ASSESSMENT_TYPE@12@@Z 12041de0 f   PSVIItem.obj
 0001:00040e00       ?setScanner@ValidationContextImpl@xercesc_3_1@@UAEXPAVXMLScanner@2@@Z 12041e00 f   ValidationContextImpl.obj
 0001:00040e00       ?setBaseType@XSComplexTypeDefinition@xercesc_3_1@@AAEXQAVXSTypeDefinition@2@@Z 12041e00 f   PSVIElement.obj
 0001:00040e00       ?setDTDHandler@SAX2XMLFilterImpl@xercesc_3_1@@UAEXQAVDTDHandler@2@@Z 12041e00 f   SAX2XMLFilterImpl.obj
 0001:00040e00       ?setBaseGroup@XercesGroupInfo@xercesc_3_1@@QAEXQAV12@@Z 12041e00 f   XMLGrammarPoolImpl.obj
 0001:00040e00       ?setOrdered@DatatypeValidator@xercesc_3_1@@IAEXW4ORDERING@XSSimpleTypeDefinition@2@@Z 12041e00 f   XMLAttr.obj
 0001:00040e00       ?setPSVIScope@SchemaElementDecl@xercesc_3_1@@QAEXW4PSVIScope@PSVIDefs@2@@Z 12041e00 f   XMLElementDecl.obj
 0001:00040e00       ?setContentType@ComplexTypeInfo@xercesc_3_1@@QAEXH@Z 12041e00 f   XMLElementDecl.obj
 0001:00040e00       ?setAttributes@XMLSchemaDescriptionImpl@xercesc_3_1@@UAEXQAVXMLAttDef@2@@Z 12041e00 f   XMLSchemaDescriptionImpl.obj
 0001:00040e00       ?setGrammarResolver@SchemaValidator@xercesc_3_1@@QAEXPAVGrammarResolver@2@@Z 12041e00 f   IGXMLScanner.obj
 0001:00040e00       ?setValidationAttempted@PSVIItem@xercesc_3_1@@QAEXW4ASSESSMENT_TYPE@12@@Z 12041e00 f   PSVIItem.obj
 0001:00040e00       ?setComplexTypeRegistry@SchemaGrammar@xercesc_3_1@@QAEXQAV?$RefHashTableOf@VComplexTypeInfo@xercesc_3_1@@UStringHasher@2@@2@@Z 12041e00 f   XMLGrammarPoolImpl.obj
 0001:00040e10       ?createObject@XSAnnotation@xercesc_3_1@@SAPAVXSerializable@2@PAVMemoryManager@2@@Z 12041e10 f   XSAnnotation.obj
 0001:00040e90       ??0DOMDocument@xercesc_3_1@@IAE@XZ 12041e90 f i XSAnnotation.obj
 0001:00040f20       ??0DOMDocumentRange@xercesc_3_1@@IAE@XZ 12041f20 f i XSAnnotation.obj
 0001:00040f30       ??0DOMDocumentTraversal@xercesc_3_1@@IAE@XZ 12041f30 f i XSAnnotation.obj
 0001:00040f40       ??0DOMDocumentType@xercesc_3_1@@IAE@XZ 12041f40 f i XSAnnotation.obj
 0001:00040fa0       ??0DOMElement@xercesc_3_1@@IAE@ABV01@@Z 12041fa0 f i XSAnnotation.obj
 0001:00041000       ??0DOMElement@xercesc_3_1@@IAE@XZ 12042000 f i XSAnnotation.obj
 0001:00041060       ??0DOMNode@xercesc_3_1@@IAE@ABV01@@Z 12042060 f i XSAnnotation.obj
 0001:00041070       ??0DOMNode@xercesc_3_1@@IAE@XZ 12042070 f i XSAnnotation.obj
 0001:00041080       ??0DOMNodeFilter@xercesc_3_1@@IAE@XZ 12042080 f i XSAnnotation.obj
 0001:00041090       ??0DOMXPathEvaluator@xercesc_3_1@@IAE@XZ 12042090 f i XSAnnotation.obj
 0001:000410a0       ??0DOMXPathResult@xercesc_3_1@@IAE@XZ 120420a0 f i XSAnnotation.obj
 0001:000410b0       ??0DocTypeHandler@xercesc_3_1@@QAE@XZ 120420b0 f i XSAnnotation.obj
 0001:000410c0       ??0PSVIHandler@xercesc_3_1@@IAE@XZ 120420c0 f i XSAnnotation.obj
 0001:000410d0       ??0SAX2XMLReader@xercesc_3_1@@QAE@XZ 120420d0 f i XSAnnotation.obj
 0001:000410e0       ??0SAXException@xercesc_3_1@@QAE@ABV01@@Z 120420e0 f i XSAnnotation.obj
 0001:00041150       ??0SAXException@xercesc_3_1@@QAE@QAVMemoryManager@1@@Z 12042150 f i XSAnnotation.obj
 0001:000411b0       ??0SAXException@xercesc_3_1@@QAE@QBDQAVMemoryManager@1@@Z 120421b0 f i XSAnnotation.obj
 0001:000411e0       ??0SAXException@xercesc_3_1@@QAE@QBGQAVMemoryManager@1@@Z 120421e0 f i XSAnnotation.obj
 0001:00041250       ??0SAXNotRecognizedException@xercesc_3_1@@QAE@ABVSAXException@1@@Z 12042250 f i SAXException.obj
 0001:00041250       ??0SAXNotRecognizedException@xercesc_3_1@@QAE@ABV01@@Z 12042250 f i XSAnnotation.obj
 0001:000412b0       ??0XMLDocumentHandler@xercesc_3_1@@IAE@XZ 120422b0 f i XSAnnotation.obj
 0001:000412c0       ??0XMLEntityHandler@xercesc_3_1@@IAE@XZ 120422c0 f i XSAnnotation.obj
 0001:000412d0       ??0DOMChildNode@xercesc_3_1@@QAE@XZ 120422d0 f i DOMChildNode.obj
 0001:000412d0       ??0XMLPScanToken@xercesc_3_1@@QAE@XZ 120422d0 f i XSAnnotation.obj
 0001:000412e0       ??0XSAnnotation@xercesc_3_1@@QAE@QAVMemoryManager@1@@Z 120422e0 f   XSAnnotation.obj
 0001:00041390       ??0XSAnnotation@xercesc_3_1@@QAE@QBGQAVMemoryManager@1@@Z 12042390 f   XSAnnotation.obj
 0001:00041470       ??1DOMDocument@xercesc_3_1@@UAE@XZ 12042470 f i XSAnnotation.obj
 0001:00041500       ??1DOMDocumentRange@xercesc_3_1@@UAE@XZ 12042500 f i XSAnnotation.obj
 0001:00041510       ??1DOMDocumentTraversal@xercesc_3_1@@UAE@XZ 12042510 f i XSAnnotation.obj
 0001:00041520       ??1DOMDocumentType@xercesc_3_1@@UAE@XZ 12042520 f i XSAnnotation.obj
 0001:00041570       ??1DOMElement@xercesc_3_1@@UAE@XZ 12042570 f i XSAnnotation.obj
 0001:000415c0       ??1DOMNode@xercesc_3_1@@UAE@XZ 120425c0 f i XSAnnotation.obj
 0001:000415d0       ??1DOMNodeFilter@xercesc_3_1@@UAE@XZ 120425d0 f i XSAnnotation.obj
 0001:000415e0       ??1DOMXPathEvaluator@xercesc_3_1@@UAE@XZ 120425e0 f i XSAnnotation.obj
 0001:000415f0       ??1DOMXPathResult@xercesc_3_1@@UAE@XZ 120425f0 f i XSAnnotation.obj
 0001:00041600       ??1DocTypeHandler@xercesc_3_1@@UAE@XZ 12042600 f i XSAnnotation.obj
 0001:00041610       ??1PSVIHandler@xercesc_3_1@@UAE@XZ 12042610 f i XSAnnotation.obj
 0001:00041620       ??1SAX2XMLReader@xercesc_3_1@@UAE@XZ 12042620 f i XSAnnotation.obj
 0001:00041630       ??1SAXException@xercesc_3_1@@UAE@XZ 12042630 f i XSAnnotation.obj
 0001:00041650       ??1SAXNotRecognizedException@xercesc_3_1@@UAE@XZ 12042650 f i XSAnnotation.obj
 0001:00041650       ??1SAXNotSupportedException@xercesc_3_1@@UAE@XZ 12042650 f i XSAnnotation.obj
 0001:000416a0       ??1XMLDocumentHandler@xercesc_3_1@@UAE@XZ 120426a0 f i XSAnnotation.obj
 0001:000416b0       ??1XMLEntityHandler@xercesc_3_1@@UAE@XZ 120426b0 f i XSAnnotation.obj
 0001:000416c0       ??1XSAnnotation@xercesc_3_1@@UAE@XZ 120426c0 f   XSAnnotation.obj
 0001:00041750       ??4SAXNotSupportedException@xercesc_3_1@@QAEAAV01@ABV01@@Z 12042750 f i XSAnnotation.obj
 0001:00041750       ??4SAXException@xercesc_3_1@@QAEAAV01@ABV01@@Z 12042750 f i XSAnnotation.obj
 0001:00041750       ??4SAXNotRecognizedException@xercesc_3_1@@QAEAAV01@ABV01@@Z 12042750 f i XSAnnotation.obj
 0001:00041790       ??4XMLPScanToken@xercesc_3_1@@QAEAAV01@ABV01@@Z 12042790 f i XSAnnotation.obj
 0001:00041790       ??4FieldActivator@xercesc_3_1@@QAEAAV01@ABV01@@Z 12042790 f i FieldActivator.obj
 0001:000417b0       ??_EDOMDocument@xercesc_3_1@@UAEPAXI@Z 120427b0 f i XSAnnotation.obj
 0001:0004188a       ??_EDOMDocument@xercesc_3_1@@W3AEPAXI@Z 1204288a f i XSAnnotation.obj
 0001:00041892       ??_EDOMDocument@xercesc_3_1@@W7AEPAXI@Z 12042892 f i XSAnnotation.obj
 0001:0004189a       ??_EDOMDocument@xercesc_3_1@@WM@AEPAXI@Z 1204289a f i XSAnnotation.obj
 0001:000418b0       ??_EDOMDocumentRange@xercesc_3_1@@UAEPAXI@Z 120428b0 f i XSAnnotation.obj
 0001:00041910       ??_EDOMDocumentTraversal@xercesc_3_1@@UAEPAXI@Z 12042910 f i XSAnnotation.obj
 0001:00041970       ??_EDOMDocumentType@xercesc_3_1@@UAEPAXI@Z 12042970 f i XSAnnotation.obj
 0001:00041a20       ??_EDOMElement@xercesc_3_1@@UAEPAXI@Z 12042a20 f i XSAnnotation.obj
 0001:00041ad0       ??_EDOMNode@xercesc_3_1@@UAEPAXI@Z 12042ad0 f i XSAnnotation.obj
 0001:00041b30       ??_EDOMNodeFilter@xercesc_3_1@@UAEPAXI@Z 12042b30 f i XSAnnotation.obj
 0001:00041b90       ??_EDOMXPathEvaluator@xercesc_3_1@@UAEPAXI@Z 12042b90 f i XSAnnotation.obj
 0001:00041bf0       ??_EDOMXPathResult@xercesc_3_1@@UAEPAXI@Z 12042bf0 f i XSAnnotation.obj
 0001:00041c50       ??_EDocTypeHandler@xercesc_3_1@@UAEPAXI@Z 12042c50 f i XSAnnotation.obj
 0001:00041cb0       ??_EPSVIHandler@xercesc_3_1@@UAEPAXI@Z 12042cb0 f i XSAnnotation.obj
 0001:00041d10       ??_ESAX2XMLReader@xercesc_3_1@@UAEPAXI@Z 12042d10 f i XSAnnotation.obj
 0001:00041d70       ??_ESAXException@xercesc_3_1@@UAEPAXI@Z 12042d70 f i XSAnnotation.obj
 0001:00041de0       ??_ESAXNotSupportedException@xercesc_3_1@@UAEPAXI@Z 12042de0 f i XSAnnotation.obj
 0001:00041de0       ??_ESAXNotRecognizedException@xercesc_3_1@@UAEPAXI@Z 12042de0 f i XSAnnotation.obj
 0001:00041e90       ??_EXMLDocumentHandler@xercesc_3_1@@UAEPAXI@Z 12042e90 f i XSAnnotation.obj
 0001:00041ef0       ??_EXMLEntityHandler@xercesc_3_1@@UAEPAXI@Z 12042ef0 f i XSAnnotation.obj
 0001:00041f50       ??_EXSAnnotation@xercesc_3_1@@UAEPAXI@Z 12042f50 f i XSAnnotation.obj
 0001:00041fa5       ??_EXSAnnotation@xercesc_3_1@@W3AEPAXI@Z 12042fa5 f i XSAnnotation.obj
 0001:00041fb0       ??_FAbstractDOMParser@xercesc_3_1@@QAEXXZ 12042fb0 f i XSAnnotation.obj
 0001:00041fc0       ??_FSAXException@xercesc_3_1@@QAEXXZ 12042fc0 f i XSAnnotation.obj
 0001:00041fd0       ??_FSAXNotRecognizedException@xercesc_3_1@@QAEXXZ 12042fd0 f i XSAnnotation.obj
 0001:00041fe0       ??_FSAXNotSupportedException@xercesc_3_1@@QAEXXZ 12042fe0 f i XSAnnotation.obj
 0001:00041ff0       ??_FXercesDOMParser@xercesc_3_1@@QAEXXZ 12042ff0 f i XSAnnotation.obj
 0001:00042000       ?createDocumentType@DOMDocument@xercesc_3_1@@UAEPAVDOMDocumentType@2@PBG00@Z 12043000 f i XSAnnotation.obj
 0001:00042020       ?createXMLReader@XMLReaderFactory@xercesc_3_1@@SAPAVSAX2XMLReader@2@PBG@Z 12043020 f i XSAnnotation.obj
 0001:00042050       ?isUsingCachedGrammarInParse@XMLScanner@xercesc_3_1@@QBE_NXZ 12043050 f i XMLValidator.obj
 0001:00042050       ?getCreateSchemaInfo@AbstractDOMParser@xercesc_3_1@@QBE_NXZ 12043050 f i XSAnnotation.obj
 0001:00042060       ?getDoXInclude@AbstractDOMParser@xercesc_3_1@@QBE_NXZ 12043060 f i XSAnnotation.obj
 0001:00042060       ?getLoadExternalDTD@XMLScanner@xercesc_3_1@@QBE_NXZ 12043060 f i XMLValidator.obj
 0001:00042070       ?getPSVIHandler@SAX2XMLReaderImpl@xercesc_3_1@@UBEPAVPSVIHandler@2@XZ 12043070 f i SAX2XMLReaderImpl.obj
 0001:00042070       ?getLocator@ComplexTypeInfo@xercesc_3_1@@QBEPAVXSDLocator@2@XZ 12043070 f i XMLElementDecl.obj
 0001:00042070       ?getEntityResolver@XercesDOMParser@xercesc_3_1@@QBEPBVEntityResolver@2@XZ 12043070 f i XSAnnotation.obj
 0001:00042070       ?getEntityResolver@XercesDOMParser@xercesc_3_1@@QAEPAVEntityResolver@2@XZ 12043070 f i XSAnnotation.obj
 0001:00042070       ?getFractionDigits@DecimalDatatypeValidator@xercesc_3_1@@QBEIXZ 12043070 f i DatatypeValidator.obj
 0001:00042080       ?getValidationSchemaFullChecking@XMLScanner@xercesc_3_1@@QBE_NXZ 12043080 f i XMLValidator.obj
 0001:00042080       ?getParseInProgress@AbstractDOMParser@xercesc_3_1@@IBE_NXZ 12043080 f i XSAnnotation.obj
 0001:00042090       ?getProtoType@XSAnnotation@xercesc_3_1@@UBEPAVXProtoType@2@XZ 12043090 f   XSAnnotation.obj
 0001:000420a0       ?serialize@XSAnnotation@xercesc_3_1@@UAEXAAVXSerializeEngine@2@@Z 120430a0 f   XSAnnotation.obj
 0001:00042150       ?set@XMLPScanToken@xercesc_3_1@@IAEXII@Z 12043150 f i XSAnnotation.obj
 0001:00042170       ?setCreateCommentNodes@AbstractDOMParser@xercesc_3_1@@QAEX_N@Z 12043170 f i XSAnnotation.obj
 0001:00042170       ?setIdentityConstraintChecking@XMLScanner@xercesc_3_1@@QAEX_N@Z 12043170 f i XMLValidator.obj
 0001:00042180       ?setDoXInclude@AbstractDOMParser@xercesc_3_1@@QAEX_N@Z 12043180 f i XSAnnotation.obj
 0001:00042180       ?setLoadExternalDTD@XMLScanner@xercesc_3_1@@QAEX_N@Z 12043180 f i XMLValidator.obj
 0001:00042190       ?setIncludeIgnorableWhitespace@AbstractDOMParser@xercesc_3_1@@QAEX_N@Z 12043190 f i XSAnnotation.obj
 0001:000421a0       ?setNext@XSAnnotation@xercesc_3_1@@QAEXQAV12@@Z 120431a0 f   XSAnnotation.obj
 0001:000421d0       ?setSystemId@XSAnnotation@xercesc_3_1@@QAEXQBG@Z 120431d0 f   XSAnnotation.obj
 0001:00042210       ?installAdvDocHandler@SAX2XMLFilterImpl@xercesc_3_1@@UAEXQAVXMLDocumentHandler@2@@Z 12043210 f i SAX2XMLFilterImpl.obj
 0001:00042210       ?setSystemId@XMLDTDDescription@xercesc_3_1@@UAEXQBG@Z 12043210 f i XMLDTDDescription.obj
 0001:00042210       ?setDocumentLocator@HandlerBase@xercesc_3_1@@UAEXQBVLocator@2@@Z 12043210 f i Dummy.obj
 0001:00042210       ?setMin@Token@xercesc_3_1@@UAEXH@Z 12043210 f i ASCIIRangeFactory.obj
 0001:00042210       ?setElemStack@ValidationContext@xercesc_3_1@@UAEXPAVElemStack@2@@Z 12043210 f i XMLAttr.obj
 0001:00042210       ?endInputSource@SAXParser@xercesc_3_1@@UAEXABVInputSource@2@@Z 12043210 f i SAXParser.obj
 0001:00042210       ?startAttList@SAXParser@xercesc_3_1@@UAEXABVDTDElementDecl@2@@Z 12043210 f i SAXParser.obj
 0001:00042210       ?setContentSpec@SchemaElementDecl@xercesc_3_1@@UAEXPAVContentSpecNode@2@@Z 12043210 f i XMLElementDecl.obj
 0001:00042210       ?error@DefaultHandler@xercesc_3_1@@UAEXABVSAXParseException@2@@Z 12043210 f i sax2Dummy.obj
 0001:00042210       ?serialize@Grammar@xercesc_3_1@@UAEXAAVXSerializeEngine@2@@Z 12043210 f i Grammar.obj
 0001:00042210       ?setContentModel@SchemaElementDecl@xercesc_3_1@@UAEXQAVXMLContentModel@2@@Z 12043210 f i XMLElementDecl.obj
 0001:00042210       ?setNodeValue@DOMNodeImpl@xercesc_3_1@@QAEXPBG@Z 12043210 f i DOMNodeImpl.obj
 0001:00042210       ?setBaseURI@Wrapper4InputSource@xercesc_3_1@@UAEXQBG@Z 12043210 f i Wrapper4InputSource.obj
 0001:00042210       ?serialize@XMLAttDefList@xercesc_3_1@@UAEXAAVXSerializeEngine@2@@Z 12043210 f i XMLAttDefList.obj
 0001:00042210       ?checkAdditionalFacetConstraints@AbstractNumericFacetValidator@xercesc_3_1@@MBEXQAVMemoryManager@2@@Z 12043210 f i AbstractNumericFacetValidator.obj
 0001:00042210       ?setLexicalHandler@SAX2XMLFilterImpl@xercesc_3_1@@UAEXQAVLexicalHandler@2@@Z 12043210 f i SAX2XMLFilterImpl.obj
 0001:00042210       ?setMax@Token@xercesc_3_1@@UAEXH@Z 12043210 f i ASCIIRangeFactory.obj
 0001:00042210       ?setInputBufferSize@SAX2XMLReader@xercesc_3_1@@UAEXK@Z 12043210 f i XSAnnotation.obj
 0001:00042210       ?startInputSource@DOMLSParserImpl@xercesc_3_1@@UAEXABVInputSource@2@@Z 12043210 f i DOMLSParserImpl.obj
 0001:00042210       ?endEntity@DefaultHandler@xercesc_3_1@@UAEXQBG@Z 12043210 f i sax2Dummy.obj
 0001:00042210       ?endInputSource@XercesDOMParser@xercesc_3_1@@UAEXABVInputSource@2@@Z 12043210 f i XSAnnotation.obj
 0001:00042210       ?startInputSource@SAX2XMLReaderImpl@xercesc_3_1@@UAEXABVInputSource@2@@Z 12043210 f i SAX2XMLReaderImpl.obj
 0001:00042210       ?setDeclarationHandler@SAX2XMLFilterImpl@xercesc_3_1@@UAEXQAVDeclHandler@2@@Z 12043210 f i SAX2XMLFilterImpl.obj
 0001:00042210       ?endInputSource@DOMLSParserImpl@xercesc_3_1@@UAEXABVInputSource@2@@Z 12043210 f i DOMLSParserImpl.obj
 0001:00042210       ?setDocumentLocator@DefaultHandler@xercesc_3_1@@UAEXQBVLocator@2@@Z 12043210 f i sax2Dummy.obj
 0001:00042210       ?endEntityReference@XSDDOMParser@xercesc_3_1@@UAEXABVXMLEntityDecl@2@@Z 12043210 f i XSDDOMParser.obj
 0001:00042210       ?startInputSource@SAXParser@xercesc_3_1@@UAEXABVInputSource@2@@Z 12043210 f i SAXParser.obj
 0001:00042210       ?trace@XSerializeEngine@xercesc_3_1@@QBEXPAD@Z 12043210 f i XSerializeEngine.obj
 0001:00042210       ?startEntityReference@XSDDOMParser@xercesc_3_1@@UAEXABVXMLEntityDecl@2@@Z 12043210 f i XSDDOMParser.obj
 0001:00042210       ?endAttList@SAX2XMLReaderImpl@xercesc_3_1@@UAEXABVDTDElementDecl@2@@Z 12043210 f i SAX2XMLReaderImpl.obj
 0001:00042210       ?setNamespaceScope@ValidationContext@xercesc_3_1@@UAEXPAVNamespaceScope@2@@Z 12043210 f i XMLAttr.obj
 0001:00042210       ?validateElement@DTDValidator@xercesc_3_1@@UAEXPBVXMLElementDecl@2@@Z 12043210 f i DGXMLScanner.obj
 0001:00042210       ?startAttList@SAX2XMLReaderImpl@xercesc_3_1@@UAEXABVDTDElementDecl@2@@Z 12043210 f i SAX2XMLReaderImpl.obj
 0001:00042210       ?setStringData@Wrapper4InputSource@xercesc_3_1@@UAEXPBG@Z 12043210 f i Wrapper4InputSource.obj
 0001:00042210       ?serialize@XMLNumber@xercesc_3_1@@UAEXAAVXSerializeEngine@2@@Z 12043210 f i XMLNumber.obj
 0001:00042210       ?serialize@XMLGrammarDescription@xercesc_3_1@@UAEXAAVXSerializeEngine@2@@Z 12043210 f i XMLGrammarDescription.obj
 0001:00042210       ?doctypeComment@SAXParser@xercesc_3_1@@UAEXQBG@Z 12043210 f i SAXParser.obj
 0001:00042210       ?error@HandlerBase@xercesc_3_1@@UAEXABVSAXParseException@2@@Z 12043210 f i Dummy.obj
 0001:00042210       ?checkAdditionalFacetConstraintsBase@AbstractNumericFacetValidator@xercesc_3_1@@MBEXQAVMemoryManager@2@@Z 12043210 f i AbstractNumericFacetValidator.obj
 0001:00042210       ?checkAdditionalFacetConstraints@AbstractStringValidator@xercesc_3_1@@MBEXQAVMemoryManager@2@@Z 12043210 f i AbstractStringValidator.obj
 0001:00042210       ?startInputSource@XercesDOMParser@xercesc_3_1@@UAEXABVInputSource@2@@Z 12043210 f i XSAnnotation.obj
 0001:00042210       ?startEntity@DefaultHandler@xercesc_3_1@@UAEXQBG@Z 12043210 f i sax2Dummy.obj
 0001:00042210       ?setEnclosingCT@SchemaAttDef@xercesc_3_1@@QAEXPAVComplexTypeInfo@2@@Z 12043210 f i XMLElementDecl.obj
 0001:00042210       ?endElement@HandlerBase@xercesc_3_1@@UAEXQBG@Z 12043210 f i Dummy.obj
 0001:00042210       ?warning@DefaultHandler@xercesc_3_1@@UAEXABVSAXParseException@2@@Z 12043210 f i sax2Dummy.obj
 0001:00042210       ?skippedEntity@DefaultHandler@xercesc_3_1@@UAEXQBG@Z 12043210 f i sax2Dummy.obj
 0001:00042210       ?setByteStream@Wrapper4InputSource@xercesc_3_1@@UAEXPAVInputSource@2@@Z 12043210 f i Wrapper4InputSource.obj
 0001:00042210       ?setScanner@ValidationContext@xercesc_3_1@@UAEXPAVXMLScanner@2@@Z 12043210 f i XMLAttr.obj
 0001:00042210       ?endAttList@SAXParser@xercesc_3_1@@UAEXABVDTDElementDecl@2@@Z 12043210 f i SAXParser.obj
 0001:00042210       ?endPrefixMapping@DefaultHandler@xercesc_3_1@@UAEXQBG@Z 12043210 f i sax2Dummy.obj
 0001:00042210       ?serialize@XSerializable@xercesc_3_1@@UAEXAAVXSerializeEngine@2@@Z 12043210 f i KVStringPair.obj
 0001:00042210       ?warning@HandlerBase@xercesc_3_1@@UAEXABVSAXParseException@2@@Z 12043210 f i Dummy.obj
 0001:00042210       ?endInputSource@SAX2XMLReaderImpl@xercesc_3_1@@UAEXABVInputSource@2@@Z 12043210 f i SAX2XMLReaderImpl.obj
 0001:00042220       ?useImplementation@AbstractDOMParser@xercesc_3_1@@QAEXQBG@Z 12043220 f i XSAnnotation.obj
 0001:00042290       ?writeAnnotation@XSAnnotation@xercesc_3_1@@QAEXPAVContentHandler@2@@Z 12043290 f   XSAnnotation.obj
 0001:000423c0       ?writeAnnotation@XSAnnotation@xercesc_3_1@@QAEXPAVDOMNode@2@W4ANNOTATION_TARGET@12@@Z 120433c0 f   XSAnnotation.obj
 0001:00042560       ??0XSAttributeDeclaration@xercesc_3_1@@QAE@QAVSchemaAttDef@1@QAVXSSimpleTypeDefinition@1@QAVXSAnnotation@1@QAVXSModel@1@W4SCOPE@XSConstants@1@PAVXSComplexTypeDefinition@1@QAVMemoryManager@1@@Z 12043560 f   XSAttributeDeclaration.obj
 0001:000425e0       ??1XSAttributeDeclaration@xercesc_3_1@@UAE@XZ 120435e0 f   XSAttributeDeclaration.obj
 0001:00042630       ??_EXSAttributeDeclaration@xercesc_3_1@@UAEPAXI@Z 12043630 f i XSAttributeDeclaration.obj
 0001:000426e0       ?getConstraintType@XSAttributeDeclaration@xercesc_3_1@@QBE?AW4VALUE_CONSTRAINT@XSConstants@2@XZ 120436e0 f   XSAttributeDeclaration.obj
 0001:00042710       ?getConstraintValue@XSAttributeDeclaration@xercesc_3_1@@QAEPBGXZ 12043710 f   XSAttributeDeclaration.obj
 0001:00042720       ?getName@XSAttributeDeclaration@xercesc_3_1@@UBEPBGXZ 12043720 f   XSAttributeDeclaration.obj
 0001:00042730       ?getNamespace@XSAttributeDeclaration@xercesc_3_1@@UAEPBGXZ 12043730 f   XSAttributeDeclaration.obj
 0001:00042750       ?getRequired@XSAttributeDeclaration@xercesc_3_1@@QBE_NXZ 12043750 f   XSAttributeDeclaration.obj
 0001:00042770       ??0XSAttributeGroupDefinition@xercesc_3_1@@QAE@QAVXercesAttGroupInfo@1@QAV?$RefVectorOf@VXSAttributeUse@xercesc_3_1@@@1@QAVXSWildcard@1@QAVXSAnnotation@1@QAVXSModel@1@QAVMemoryManager@1@@Z 12043770 f   XSAttributeGroupDefinition.obj
 0001:000427f0       ??1XSAttributeGroupDefinition@xercesc_3_1@@UAE@XZ 120437f0 f   XSAttributeGroupDefinition.obj
 0001:00042860       ??_EXSAttributeGroupDefinition@xercesc_3_1@@UAEPAXI@Z 12043860 f i XSAttributeGroupDefinition.obj
 0001:00042920       ?getNamespace@XSNotationDeclaration@xercesc_3_1@@UAEPBGXZ 12043920 f   XSNotationDeclaration.obj
 0001:00042920       ?getName@XSAttributeGroupDefinition@xercesc_3_1@@UBEPBGXZ 12043920 f   XSAttributeGroupDefinition.obj
 0001:00042940       ?getNamespace@XSAttributeGroupDefinition@xercesc_3_1@@UAEPBGXZ 12043940 f   XSAttributeGroupDefinition.obj
 0001:00042940       ?getName@XSModelGroupDefinition@xercesc_3_1@@UBEPBGXZ 12043940 f   XSModelGroupDefinition.obj
 0001:00042960       ??0XSAttributeUse@xercesc_3_1@@QAE@QAVXSAttributeDeclaration@1@QAVXSModel@1@QAVMemoryManager@1@@Z 12043960 f   XSAttributeUse.obj
 0001:000429e0       ??1XSAttributeUse@xercesc_3_1@@UAE@XZ 120439e0 f   XSAttributeUse.obj
 0001:00042a30       ??_EXSAttributeUse@xercesc_3_1@@UAEPAXI@Z 12043a30 f i XSAttributeUse.obj
 0001:00042ae0       ?set@XSAttributeUse@xercesc_3_1@@AAEX_NW4VALUE_CONSTRAINT@XSConstants@2@QBG@Z 12043ae0 f   XSAttributeUse.obj
 0001:00042b00       ??0XSComplexTypeDefinition@xercesc_3_1@@QAE@QAVComplexTypeInfo@1@QAVXSWildcard@1@QAVXSSimpleTypeDefinition@1@QAV?$RefVectorOf@VXSAttributeUse@xercesc_3_1@@@1@QAVXSTypeDefinition@1@QAVXSParticle@1@QAVXSAnnotation@1@QAVXSModel@1@QAVMemoryManager@1@@Z 12043b00 f   XSComplexTypeDefinition.obj
 0001:00042c70       ??1?$BaseRefVectorOf@VXSAnnotation@xercesc_3_1@@@xercesc_3_1@@UAE@XZ 12043c70 f i XSComplexTypeDefinition.obj
 0001:00042c80       ??1?$RefVectorOf@VXSAnnotation@xercesc_3_1@@@xercesc_3_1@@UAE@XZ 12043c80 f i XSComplexTypeDefinition.obj
 0001:00042d10       ??1XSComplexTypeDefinition@xercesc_3_1@@UAE@XZ 12043d10 f   XSComplexTypeDefinition.obj
 0001:00042d90       ??_EXSComplexTypeDefinition@xercesc_3_1@@UAEPAXI@Z 12043d90 f i XSComplexTypeDefinition.obj
 0001:00042e60       ??_FSchemaAttDefList@xercesc_3_1@@QAEXXZ 12043e60 f i XSComplexTypeDefinition.obj
 0001:00042e70       ??_E?$BaseRefVectorOf@VXSAnnotation@xercesc_3_1@@@xercesc_3_1@@UAEPAXI@Z 12043e70 f i XSComplexTypeDefinition.obj
 0001:00042e70       ??_G?$BaseRefVectorOf@VXSAnnotation@xercesc_3_1@@@xercesc_3_1@@UAEPAXI@Z 12043e70 f i XSComplexTypeDefinition.obj
 0001:00042ea0       ??_G?$RefVectorOf@VXSAnnotation@xercesc_3_1@@@xercesc_3_1@@UAEPAXI@Z 12043ea0 f i XSComplexTypeDefinition.obj
 0001:00042ea0       ??_E?$RefVectorOf@VXSAnnotation@xercesc_3_1@@@xercesc_3_1@@UAEPAXI@Z 12043ea0 f i XSComplexTypeDefinition.obj
 0001:00042ed0       ?addAttDef@SchemaAttDefList@xercesc_3_1@@AAEXPAVSchemaAttDef@2@@Z 12043ed0 f i XSComplexTypeDefinition.obj
 0001:00042ed0       ?addAttDef@DTDAttDefList@xercesc_3_1@@AAEXPAVDTDAttDef@2@@Z 12043ed0 f i DTDAttDefList.obj
 0001:00042f30       ?derivedFromType@XSComplexTypeDefinition@xercesc_3_1@@UAE_NQBVXSTypeDefinition@2@@Z 12043f30 f   XSComplexTypeDefinition.obj
 0001:00042f90       ?findAttDefLocalPart@SchemaAttDefList@xercesc_3_1@@QAEPAVXMLAttDef@2@IQBG@Z 12043f90 f i XSComplexTypeDefinition.obj
 0001:00042f90       ?findAttDefLocalPart@SchemaAttDefList@xercesc_3_1@@QBEPBVXMLAttDef@2@IQBG@Z 12043f90 f i XSComplexTypeDefinition.obj
 0001:00042fc0       ?getAbstract@XSComplexTypeDefinition@xercesc_3_1@@QBE_NXZ 12043fc0 f   XSComplexTypeDefinition.obj
 0001:00042fd0       ?getAnonymous@XSComplexTypeDefinition@xercesc_3_1@@UBE_NXZ 12043fd0 f   XSComplexTypeDefinition.obj
 0001:00042fe0       ?getContentType@XSComplexTypeDefinition@xercesc_3_1@@QBE?AW4CONTENT_TYPE@12@XZ 12043fe0 f   XSComplexTypeDefinition.obj
 0001:00043030       ?getDerivationMethod@XSComplexTypeDefinition@xercesc_3_1@@QBE?AW4DERIVATION_TYPE@XSConstants@2@XZ 12044030 f   XSComplexTypeDefinition.obj
 0001:00043040       ?getName@XSComplexTypeDefinition@xercesc_3_1@@UBEPBGXZ 12044040 f   XSComplexTypeDefinition.obj
 0001:00043050       ?getNamespace@XSComplexTypeDefinition@xercesc_3_1@@UAEPBGXZ 12044050 f   XSComplexTypeDefinition.obj
 0001:00043060       ?isProhibitedSubstitution@XSComplexTypeDefinition@xercesc_3_1@@QAE_NW4DERIVATION_TYPE@XSConstants@2@@Z 12044060 f   XSComplexTypeDefinition.obj
 0001:00043080       ??0XSElementDeclaration@xercesc_3_1@@QAE@QAVSchemaElementDecl@1@QAVXSTypeDefinition@1@QAV01@QAVXSAnnotation@1@QAV?$XSNamedMap@VXSIDCDefinition@xercesc_3_1@@@1@QAVXSModel@1@W4SCOPE@XSConstants@1@QAVXSComplexTypeDefinition@1@QAVMemoryManager@1@@Z 12044080 f   XSElementDeclaration.obj
 0001:00043150       ??1XSElementDeclaration@xercesc_3_1@@UAE@XZ 12044150 f   XSElementDeclaration.obj
 0001:000431f0       ??_EXSElementDeclaration@xercesc_3_1@@UAEPAXI@Z 120441f0 f i XSElementDeclaration.obj
 0001:00043250       ?getAbstract@XSElementDeclaration@xercesc_3_1@@QBE_NXZ 12044250 f   XSElementDeclaration.obj
 0001:00043260       ?getConstraintType@XSElementDeclaration@xercesc_3_1@@QBE?AW4VALUE_CONSTRAINT@XSConstants@2@XZ 12044260 f   XSElementDeclaration.obj
 0001:00043280       ?getConstraintValue@XSElementDeclaration@xercesc_3_1@@QAEPBGXZ 12044280 f   XSElementDeclaration.obj
 0001:00043290       ?getName@XSElementDeclaration@xercesc_3_1@@UBEPBGXZ 12044290 f   XSElementDeclaration.obj
 0001:000432a0       ?getNamespace@XSElementDeclaration@xercesc_3_1@@UAEPBGXZ 120442a0 f   XSElementDeclaration.obj
 0001:000432c0       ?getNillable@XSElementDeclaration@xercesc_3_1@@QBE_NXZ 120442c0 f   XSElementDeclaration.obj
 0001:000432d0       ?isDisallowedSubstitution@XSElementDeclaration@xercesc_3_1@@QAE_NW4DERIVATION_TYPE@XSConstants@2@@Z 120442d0 f   XSElementDeclaration.obj
 0001:000432f0       ?isSubstitutionGroupExclusion@XSElementDeclaration@xercesc_3_1@@QAE_NW4DERIVATION_TYPE@XSConstants@2@@Z 120442f0 f   XSElementDeclaration.obj
 0001:00043310       ??0XSFacet@xercesc_3_1@@QAE@W4FACET@XSSimpleTypeDefinition@1@QBG_NQAVXSAnnotation@1@QAVXSModel@1@QAVMemoryManager@1@@Z 12044310 f   XSFacet.obj
 0001:00043390       ??1XSFacet@xercesc_3_1@@UAE@XZ 12044390 f   XSFacet.obj
 0001:000433e0       ??_EXSFacet@xercesc_3_1@@UAEPAXI@Z 120443e0 f i XSFacet.obj
 0001:00043490       ?isFixed@XSMultiValueFacet@xercesc_3_1@@QBE_NXZ 12044490 f i XSMultiValueFacet.obj
 0001:00043490       ?isFixed@XSFacet@xercesc_3_1@@QBE_NXZ 12044490 f i XSFacet.obj
 0001:00043490       ?getIdentityConstraintChecking@XMLScanner@xercesc_3_1@@QBE_NXZ 12044490 f i XMLValidator.obj
 0001:00043490       ?getCreateCommentNodes@AbstractDOMParser@xercesc_3_1@@QBE_NXZ 12044490 f i XSAnnotation.obj
 0001:000434a0       ??0XSIDCDefinition@xercesc_3_1@@QAE@QAVIdentityConstraint@1@QAV01@QAVXSAnnotation@1@QAV?$RefArrayVectorOf@G@1@QAVXSModel@1@QAVMemoryManager@1@@Z 120444a0 f   XSIDCDefinition.obj
 0001:000435c0       ??1SelectorMatcher@xercesc_3_1@@UAE@XZ 120445c0 f i XSIDCDefinition.obj
 0001:00043610       ??1XSIDCDefinition@xercesc_3_1@@UAE@XZ 12044610 f   XSIDCDefinition.obj
 0001:00043680       ??_ESelectorMatcher@xercesc_3_1@@UAEPAXI@Z 12044680 f i XSIDCDefinition.obj
 0001:00043730       ??_EXSIDCDefinition@xercesc_3_1@@UAEPAXI@Z 12044730 f i XSIDCDefinition.obj
 0001:00043800       ??_FIC_KeyRef@xercesc_3_1@@QAEXXZ 12044800 f i XSIDCDefinition.obj
 0001:00043810       ??_FIC_Selector@xercesc_3_1@@QAEXXZ 12044810 f i XSIDCDefinition.obj
 0001:00043820       ?getCategory@XSIDCDefinition@xercesc_3_1@@QBE?AW4IC_CATEGORY@12@XZ 12044820 f   XSIDCDefinition.obj
 0001:00043850       ?getAttributeWildcard@XSComplexTypeDefinition@xercesc_3_1@@QBEPAVXSWildcard@2@XZ 12044850 f i PSVIElement.obj
 0001:00043850       ?getPublicId@DOMEntityImpl@xercesc_3_1@@UBEPBGXZ 12044850 f i DOMEntityImpl.obj
 0001:00043850       ?getErrorHandler@SAX2XMLFilterImpl@xercesc_3_1@@UBEPAVErrorHandler@2@XZ 12044850 f i SAX2XMLFilterImpl.obj
 0001:00043850       ?getSystemId@SAXParseException@xercesc_3_1@@QBEPBGXZ 12044850 f i SAXParseException.obj
 0001:00043850       ?getTypeDefinition@PSVIElement@xercesc_3_1@@UAEPAVXSTypeDefinition@2@XZ 12044850 f i PSVIElement.obj
 0001:00043850       ?getAttGroupInfoRegistry@SchemaGrammar@xercesc_3_1@@QBEPAV?$RefHashTableOf@VXercesAttGroupInfo@xercesc_3_1@@UStringHasher@2@@2@XZ 12044850 f i XMLGrammarPoolImpl.obj
 0001:00043850       ?getContentSpec@DTDElementDecl@xercesc_3_1@@UAEPAVContentSpecNode@2@XZ 12044850 f i XMLElementDecl.obj
 0001:00043850       ?getElemId@SchemaAttDef@xercesc_3_1@@QBEKXZ 12044850 f i XMLElementDecl.obj
 0001:00043850       ?getFacets@DatatypeValidator@xercesc_3_1@@QBEPAV?$RefHashTableOf@VKVStringPair@xercesc_3_1@@UStringHasher@2@@2@XZ 12044850 f i XMLAttr.obj
 0001:00043850       ?getMemoryManager@XMLAbstractDoubleFloat@xercesc_3_1@@QBEPAVMemoryManager@2@XZ 12044850 f i XMLAbstractDoubleFloat.obj
 0001:00043850       ?getInitialDepth@SelectorMatcher@xercesc_3_1@@UBEHXZ 12044850 f i XSIDCDefinition.obj
 0001:00043850       ?getValueStore@FieldMatcher@xercesc_3_1@@QBEPAVValueStore@2@XZ 12044850 f i XMLElementDecl.obj
 0001:00043850       ?getFinalSet@SchemaElementDecl@xercesc_3_1@@QBEHXZ 12044850 f i XMLElementDecl.obj
 0001:00043850       ?getEnclosingCTDefinition@XSAttributeDeclaration@xercesc_3_1@@QAEPAVXSComplexTypeDefinition@2@XZ 12044850 f i PSVIAttributeList.obj
 0001:00043850       ?getFixedFacets@XSSimpleTypeDefinition@xercesc_3_1@@QBEHXZ 12044850 f i XMLAttr.obj
 0001:00043850       ?getContentSpec@DTDElementDecl@xercesc_3_1@@UBEPBVContentSpecNode@2@XZ 12044850 f i XMLElementDecl.obj
 0001:00043850       ?getMaxOccurs@ContentSpecNode@xercesc_3_1@@QBEHXZ 12044850 f i XMLGrammarPoolImpl.obj
 0001:00043850       ?getEnclosingCTDefinition@XSElementDeclaration@xercesc_3_1@@QBEPAVXSComplexTypeDefinition@2@XZ 12044850 f i PSVIElement.obj
 0001:00043850       ?getTypeDefinition@PSVIAttribute@xercesc_3_1@@UAEPAVXSTypeDefinition@2@XZ 12044850 f i PSVIAttribute.obj
 0001:00043850       ?getElemId@DTDAttDef@xercesc_3_1@@QBEKXZ 12044850 f i XMLElementDecl.obj
 0001:00043850       ?getUser@XMLURL@xercesc_3_1@@QBEPBGXZ 12044850 f i PlatformUtils.obj
 0001:00043850       ?getGrammarsToAddToXSModel@GrammarResolver@xercesc_3_1@@QAEPAV?$ValueVectorOf@PAVSchemaGrammar@xercesc_3_1@@@2@XZ 12044850 f i XMLValidator.obj
 0001:00043850       ?getCharData@RegxParser@xercesc_3_1@@QBEHXZ 12044850 f i ParserForXMLSchema.obj
 0001:00043860       ?getName@XSIDCDefinition@xercesc_3_1@@UBEPBGXZ 12044860 f   XSIDCDefinition.obj
 0001:00043870       ?getNamespace@XSIDCDefinition@xercesc_3_1@@UAEPBGXZ 12044870 f   XSIDCDefinition.obj
 0001:00043890       ?getNamespaceItem@XSIDCDefinition@xercesc_3_1@@UAEPAVXSNamespaceItem@2@XZ 12044890 f   XSIDCDefinition.obj
 0001:00043890       ?getNamespaceItem@XSElementDeclaration@xercesc_3_1@@UAEPAVXSNamespaceItem@2@XZ 12044890 f   XSElementDeclaration.obj
 0001:00043890       ?getNamespaceItem@XSAttributeGroupDefinition@xercesc_3_1@@UAEPAVXSNamespaceItem@2@XZ 12044890 f   XSAttributeGroupDefinition.obj
 0001:00043890       ?getNamespaceItem@XSComplexTypeDefinition@xercesc_3_1@@UAEPAVXSNamespaceItem@2@XZ 12044890 f   XSComplexTypeDefinition.obj
 0001:00043890       ?getNamespaceItem@XSSimpleTypeDefinition@xercesc_3_1@@UAEPAVXSNamespaceItem@2@XZ 12044890 f   XSSimpleTypeDefinition.obj
 0001:00043890       ?getNamespaceItem@XSModelGroupDefinition@xercesc_3_1@@UAEPAVXSNamespaceItem@2@XZ 12044890 f   XSModelGroupDefinition.obj
 0001:00043890       ?getNamespaceItem@XSAttributeDeclaration@xercesc_3_1@@UAEPAVXSNamespaceItem@2@XZ 12044890 f   XSAttributeDeclaration.obj
 0001:00043890       ?getNamespaceItem@XSNotationDeclaration@xercesc_3_1@@UAEPAVXSNamespaceItem@2@XZ 12044890 f   XSNotationDeclaration.obj
 0001:000438b0       ?getSelectorStr@XSIDCDefinition@xercesc_3_1@@QAEPBGXZ 120448b0 f   XSIDCDefinition.obj
 0001:000438c0       ??0?$RefHashTableOfEnumerator@VComplexTypeInfo@xercesc_3_1@@UStringHasher@2@@xercesc_3_1@@QAE@QAV?$RefHashTableOf@VComplexTypeInfo@xercesc_3_1@@UStringHasher@2@@1@_NQAVMemoryManager@1@@Z 120448c0 f i XSModel.obj
 0001:00043980       ??0?$RefHashTableOfEnumerator@VDatatypeValidator@xercesc_3_1@@UStringHasher@2@@xercesc_3_1@@QAE@QAV?$RefHashTableOf@VDatatypeValidator@xercesc_3_1@@UStringHasher@2@@1@_NQAVMemoryManager@1@@Z 12044980 f i XSModel.obj
 0001:00043a40       ??0?$RefHashTableOfEnumerator@VXMLAttDef@xercesc_3_1@@UStringHasher@2@@xercesc_3_1@@QAE@QAV?$RefHashTableOf@VXMLAttDef@xercesc_3_1@@UStringHasher@2@@1@_NQAVMemoryManager@1@@Z 12044a40 f i XSModel.obj
 0001:00043b00       ??0?$RefHashTableOfEnumerator@VXercesAttGroupInfo@xercesc_3_1@@UStringHasher@2@@xercesc_3_1@@QAE@QAV?$RefHashTableOf@VXercesAttGroupInfo@xercesc_3_1@@UStringHasher@2@@1@_NQAVMemoryManager@1@@Z 12044b00 f i XSModel.obj
 0001:00043bc0       ??0?$RefHashTableOfEnumerator@VXercesGroupInfo@xercesc_3_1@@UStringHasher@2@@xercesc_3_1@@QAE@QAV?$RefHashTableOf@VXercesGroupInfo@xercesc_3_1@@UStringHasher@2@@1@_NQAVMemoryManager@1@@Z 12044bc0 f i XSModel.obj
 0001:00043c80       ??0?$XSNamedMap@VXSObject@xercesc_3_1@@@xercesc_3_1@@QAE@KKPAVXMLStringPool@1@_NQAVMemoryManager@1@@Z 12044c80 f i XSModel.obj
 0001:00043da0       ??0XSModel@xercesc_3_1@@QAE@PAV01@PAVGrammarResolver@1@QAVMemoryManager@1@@Z 12044da0 f   XSModel.obj
 0001:00044e10       ??0XSModel@xercesc_3_1@@QAE@PAVXMLGrammarPool@1@QAVMemoryManager@1@@Z 12045e10 f   XSModel.obj
 0001:00045730       ??1?$BaseRefVectorOf@VXSNamespaceItem@xercesc_3_1@@@xercesc_3_1@@UAE@XZ 12046730 f i XSModel.obj
 0001:00045740       ??1?$BaseRefVectorOf@VXSObject@xercesc_3_1@@@xercesc_3_1@@UAE@XZ 12046740 f i XSModel.obj
 0001:00045750       ??1?$RefHashTableOfEnumerator@VComplexTypeInfo@xercesc_3_1@@UStringHasher@2@@xercesc_3_1@@UAE@XZ 12046750 f i XSModel.obj
 0001:000457e0       ??1?$RefHashTableOfEnumerator@VDatatypeValidator@xercesc_3_1@@UStringHasher@2@@xercesc_3_1@@UAE@XZ 120467e0 f i XSModel.obj
 0001:00045870       ??1?$RefHashTableOfEnumerator@VXMLAttDef@xercesc_3_1@@UStringHasher@2@@xercesc_3_1@@UAE@XZ 12046870 f i XSModel.obj
 0001:00045900       ??1?$RefHashTableOfEnumerator@VXercesAttGroupInfo@xercesc_3_1@@UStringHasher@2@@xercesc_3_1@@UAE@XZ 12046900 f i XSModel.obj
 0001:00045990       ??1?$RefHashTableOfEnumerator@VXercesGroupInfo@xercesc_3_1@@UStringHasher@2@@xercesc_3_1@@UAE@XZ 12046990 f i XSModel.obj
 0001:00045a20       ??1?$RefVectorOf@VXSNamespaceItem@xercesc_3_1@@@xercesc_3_1@@UAE@XZ 12046a20 f i XSModel.obj
 0001:00045ab0       ??1?$RefVectorOf@VXSObject@xercesc_3_1@@@xercesc_3_1@@UAE@XZ 12046ab0 f i XSModel.obj
 0001:00045b40       ??1?$XMLEnumerator@VComplexTypeInfo@xercesc_3_1@@@xercesc_3_1@@UAE@XZ 12046b40 f i XSModel.obj
 0001:00045b50       ??1?$XMLEnumerator@VDatatypeValidator@xercesc_3_1@@@xercesc_3_1@@UAE@XZ 12046b50 f i XSModel.obj
 0001:00045b60       ??1?$XMLEnumerator@VXMLAttDef@xercesc_3_1@@@xercesc_3_1@@UAE@XZ 12046b60 f i XSModel.obj
 0001:00045b70       ??1?$XMLEnumerator@VXercesAttGroupInfo@xercesc_3_1@@@xercesc_3_1@@UAE@XZ 12046b70 f i XSModel.obj
 0001:00045b80       ??1?$XMLEnumerator@VXercesGroupInfo@xercesc_3_1@@@xercesc_3_1@@UAE@XZ 12046b80 f i XSModel.obj
 0001:00045b90       ??1XSModel@xercesc_3_1@@QAE@XZ 12046b90 f   XSModel.obj
 0001:00045cf0       ??_FXSObjectFactory@xercesc_3_1@@QAEXXZ 12046cf0 f i XSModel.obj
 0001:00045d00       ??_G?$BaseRefVectorOf@VXSNamespaceItem@xercesc_3_1@@@xercesc_3_1@@UAEPAXI@Z 12046d00 f i XSModel.obj
 0001:00045d00       ??_E?$BaseRefVectorOf@VXSNamespaceItem@xercesc_3_1@@@xercesc_3_1@@UAEPAXI@Z 12046d00 f i XSModel.obj
 0001:00045d30       ??_G?$BaseRefVectorOf@VXSObject@xercesc_3_1@@@xercesc_3_1@@UAEPAXI@Z 12046d30 f i XSModel.obj
 0001:00045d30       ??_E?$BaseRefVectorOf@VXSObject@xercesc_3_1@@@xercesc_3_1@@UAEPAXI@Z 12046d30 f i XSModel.obj
 0001:00045d60       ??_E?$RefHashTableOfEnumerator@VComplexTypeInfo@xercesc_3_1@@UStringHasher@2@@xercesc_3_1@@UAEPAXI@Z 12046d60 f i XSModel.obj
 0001:00045d60       ??_G?$RefHashTableOfEnumerator@VComplexTypeInfo@xercesc_3_1@@UStringHasher@2@@xercesc_3_1@@UAEPAXI@Z 12046d60 f i XSModel.obj
 0001:00045e00       ??_E?$RefHashTableOfEnumerator@VDatatypeValidator@xercesc_3_1@@UStringHasher@2@@xercesc_3_1@@UAEPAXI@Z 12046e00 f i XSModel.obj
 0001:00045e00       ??_G?$RefHashTableOfEnumerator@VDatatypeValidator@xercesc_3_1@@UStringHasher@2@@xercesc_3_1@@UAEPAXI@Z 12046e00 f i XSModel.obj
 0001:00045ea0       ??_G?$RefHashTableOfEnumerator@VXMLAttDef@xercesc_3_1@@UStringHasher@2@@xercesc_3_1@@UAEPAXI@Z 12046ea0 f i XSModel.obj
 0001:00045ea0       ??_E?$RefHashTableOfEnumerator@VXMLAttDef@xercesc_3_1@@UStringHasher@2@@xercesc_3_1@@UAEPAXI@Z 12046ea0 f i XSModel.obj
 0001:00045f40       ??_E?$RefHashTableOfEnumerator@VXercesAttGroupInfo@xercesc_3_1@@UStringHasher@2@@xercesc_3_1@@UAEPAXI@Z 12046f40 f i XSModel.obj
 0001:00045f40       ??_G?$RefHashTableOfEnumerator@VXercesAttGroupInfo@xercesc_3_1@@UStringHasher@2@@xercesc_3_1@@UAEPAXI@Z 12046f40 f i XSModel.obj
 0001:00045fe0       ??_G?$RefHashTableOfEnumerator@VXercesGroupInfo@xercesc_3_1@@UStringHasher@2@@xercesc_3_1@@UAEPAXI@Z 12046fe0 f i XSModel.obj
 0001:00045fe0       ??_E?$RefHashTableOfEnumerator@VXercesGroupInfo@xercesc_3_1@@UStringHasher@2@@xercesc_3_1@@UAEPAXI@Z 12046fe0 f i XSModel.obj
 0001:00046080       ??_G?$RefVectorOf@VXSNamespaceItem@xercesc_3_1@@@xercesc_3_1@@UAEPAXI@Z 12047080 f i XSModel.obj
 0001:00046080       ??_E?$RefVectorOf@VXSNamespaceItem@xercesc_3_1@@@xercesc_3_1@@UAEPAXI@Z 12047080 f i XSModel.obj
 0001:000460b0       ??_G?$RefVectorOf@VXSObject@xercesc_3_1@@@xercesc_3_1@@UAEPAXI@Z 120470b0 f i XSModel.obj
 0001:000460b0       ??_E?$RefVectorOf@VXSObject@xercesc_3_1@@@xercesc_3_1@@UAEPAXI@Z 120470b0 f i XSModel.obj
 0001:000460e0       ??_E?$XMLEnumerator@VComplexTypeInfo@xercesc_3_1@@@xercesc_3_1@@UAEPAXI@Z 120470e0 f i XSModel.obj
 0001:000460e0       ??_G?$XMLEnumerator@VComplexTypeInfo@xercesc_3_1@@@xercesc_3_1@@UAEPAXI@Z 120470e0 f i XSModel.obj
 0001:00046110       ??_G?$XMLEnumerator@VDatatypeValidator@xercesc_3_1@@@xercesc_3_1@@UAEPAXI@Z 12047110 f i XSModel.obj
 0001:00046110       ??_E?$XMLEnumerator@VDatatypeValidator@xercesc_3_1@@@xercesc_3_1@@UAEPAXI@Z 12047110 f i XSModel.obj
 0001:00046140       ??_E?$XMLEnumerator@VXMLAttDef@xercesc_3_1@@@xercesc_3_1@@UAEPAXI@Z 12047140 f i XSModel.obj
 0001:00046140       ??_G?$XMLEnumerator@VXMLAttDef@xercesc_3_1@@@xercesc_3_1@@UAEPAXI@Z 12047140 f i XSModel.obj
 0001:00046170       ??_G?$XMLEnumerator@VXercesAttGroupInfo@xercesc_3_1@@@xercesc_3_1@@UAEPAXI@Z 12047170 f i XSModel.obj
 0001:00046170       ??_E?$XMLEnumerator@VXercesAttGroupInfo@xercesc_3_1@@@xercesc_3_1@@UAEPAXI@Z 12047170 f i XSModel.obj
 0001:000461a0       ??_E?$XMLEnumerator@VXercesGroupInfo@xercesc_3_1@@@xercesc_3_1@@UAEPAXI@Z 120471a0 f i XSModel.obj
 0001:000461a0       ??_G?$XMLEnumerator@VXercesGroupInfo@xercesc_3_1@@@xercesc_3_1@@UAEPAXI@Z 120471a0 f i XSModel.obj
 0001:000461d0       ?addComponentToIdVector@XSModel@xercesc_3_1@@AAEXQAVXSObject@2@K@Z 120471d0 f   XSModel.obj
 0001:00046210       ?addComponentToNamespace@XSModel@xercesc_3_1@@AAEXQAVXSNamespaceItem@2@QAVXSObject@2@K_N@Z 12047210 f   XSModel.obj
 0001:000462f0       ?addGrammarToXSModel@XSModel@xercesc_3_1@@AAEXPAVXSNamespaceItem@2@@Z 120472f0 f   XSModel.obj
 0001:00046ae0       ?addS4SToXSModel@XSModel@xercesc_3_1@@AAEXQAVXSNamespaceItem@2@QAV?$RefHashTableOf@VDatatypeValidator@xercesc_3_1@@UStringHasher@2@@2@@Z 12047ae0 f   XSModel.obj
 0001:00046ce0       ?cleanup@?$BaseRefVectorOf@VXSNamespaceItem@xercesc_3_1@@@xercesc_3_1@@UAEXXZ 12047ce0 f i XSModel.obj
 0001:00046d30       ?findNext@?$RefHashTableOfEnumerator@VComplexTypeInfo@xercesc_3_1@@UStringHasher@2@@xercesc_3_1@@AAEXXZ 12047d30 f i XSModel.obj
 0001:00046d30       ?findNext@?$RefHashTableOfEnumerator@VDTDAttDef@xercesc_3_1@@UStringHasher@2@@xercesc_3_1@@AAEXXZ 12047d30 f i XTemplateSerializer.obj
 0001:00046d30       ?findNext@?$RefHashTableOfEnumerator@VXercesGroupInfo@xercesc_3_1@@UStringHasher@2@@xercesc_3_1@@AAEXXZ 12047d30 f i XSModel.obj
 0001:00046d30       ?findNext@?$RefHashTableOfEnumerator@VDatatypeValidator@xercesc_3_1@@UStringHasher@2@@xercesc_3_1@@AAEXXZ 12047d30 f i XSModel.obj
 0001:00046d30       ?findNext@?$RefHashTableOfEnumerator@GUStringHasher@xercesc_3_1@@@xercesc_3_1@@AAEXXZ 12047d30 f i DOMNormalizer.obj
 0001:00046d30       ?findNext@?$RefHashTableOfEnumerator@VKVStringPair@xercesc_3_1@@UStringHasher@2@@xercesc_3_1@@AAEXXZ 12047d30 f i XSObjectFactory.obj
 0001:00046d30       ?findNext@?$RefHashTableOfEnumerator@VXSAnnotation@xercesc_3_1@@UPtrHasher@2@@xercesc_3_1@@AAEXXZ 12047d30 f i XTemplateSerializer.obj
 0001:00046d30       ?findNext@?$RefHashTableOfEnumerator@VXercesAttGroupInfo@xercesc_3_1@@UStringHasher@2@@xercesc_3_1@@AAEXXZ 12047d30 f i XSModel.obj
 0001:00046d30       ?findNext@?$RefHashTableOfEnumerator@VFieldValueMap@xercesc_3_1@@UICValueHasher@2@@xercesc_3_1@@AAEXXZ 12047d30 f i ValueStore.obj
 0001:00046d30       ?findNext@?$RefHashTableOfEnumerator@VValueStore@xercesc_3_1@@UPtrHasher@2@@xercesc_3_1@@AAEXXZ 12047d30 f i ValueStoreCache.obj
 0001:00046d30       ?findNext@?$RefHashTableOfEnumerator@VXMLAttDef@xercesc_3_1@@UStringHasher@2@@xercesc_3_1@@AAEXXZ 12047d30 f i XSModel.obj
 0001:00046d30       ?findNext@?$RefHashTableOfEnumerator@VXMLRefInfo@xercesc_3_1@@UStringHasher@2@@xercesc_3_1@@AAEXXZ 12047d30 f i XMLScanner.obj
 0001:00046d30       ?findNext@?$RefHashTableOfEnumerator@VGrammar@xercesc_3_1@@UStringHasher@2@@xercesc_3_1@@AAEXXZ 12047d30 f i XMLGrammarPoolImpl.obj
 0001:00046d80       ?getSchemaNamespace@XSNamespaceItem@xercesc_3_1@@QBEPBGXZ 12047d80 f   XSAttributeDeclaration.obj
 0001:00046d80       ?getDoctype@DOMDocumentImpl@xercesc_3_1@@UBEPAVDOMDocumentType@2@XZ 12047d80 f   DOMDocumentImpl.obj
 0001:00046d80       ?getAnnotations@XSModel@xercesc_3_1@@QAEPAV?$RefVectorOf@VXSAnnotation@xercesc_3_1@@@2@XZ 12047d80 f   XSModel.obj
 0001:00046d90       ?getAttributeDeclaration@XSModel@xercesc_3_1@@QAEPAVXSAttributeDeclaration@2@PBG0@Z 12047d90 f   XSModel.obj
 0001:00046dc0       ?getAttributeGroup@XSModel@xercesc_3_1@@QAEPAVXSAttributeGroupDefinition@2@PBG0@Z 12047dc0 f   XSModel.obj
 0001:00046df0       ?getComponents@XSModel@xercesc_3_1@@QAEPAV?$XSNamedMap@VXSObject@xercesc_3_1@@@2@W4COMPONENT_TYPE@XSConstants@2@@Z 12047df0 f   XSModel.obj
 0001:00046e00       ?getComponentsByNamespace@XSModel@xercesc_3_1@@QAEPAV?$XSNamedMap@VXSObject@xercesc_3_1@@@2@W4COMPONENT_TYPE@XSConstants@2@PBG@Z 12047e00 f   XSModel.obj
 0001:00046e30       ?getElementDeclaration@XSModel@xercesc_3_1@@QAEPAVXSElementDeclaration@2@PBG0@Z 12047e30 f   XSModel.obj
 0001:00046e60       ?getModelGroupDefinition@XSModel@xercesc_3_1@@QAEPAVXSModelGroupDefinition@2@PBG0@Z 12047e60 f   XSModel.obj
 0001:00046e90       ?getNamespaceItem@XSModel@xercesc_3_1@@QAEPAVXSNamespaceItem@2@QBG@Z 12047e90 f   XSModel.obj
 0001:00046ed0       ?getNotationDeclaration@XSModel@xercesc_3_1@@QAEPAVXSNotationDeclaration@2@PBG0@Z 12047ed0 f   XSModel.obj
 0001:00046f00       ?getObjectFromMap@XSObjectFactory@xercesc_3_1@@AAEPAVXSObject@2@PAX@Z 12047f00 f i XSModel.obj
 0001:00046f00       ?getGlobalValueStoreFor@ValueStoreCache@xercesc_3_1@@QAEPAVValueStore@2@QBVIdentityConstraint@2@@Z 12047f00 f i IGXMLScanner.obj
 0001:00046f40       ?getTypeDefinition@XSModel@xercesc_3_1@@QAEPAVXSTypeDefinition@2@PBG0@Z 12047f40 f   XSModel.obj
 0001:00046f70       ?getXSObject@XSModel@xercesc_3_1@@QAEPAVXSObject@2@PAX@Z 12047f70 f   XSModel.obj
 0001:00046fd0       ?getXSObjectById@XSModel@xercesc_3_1@@QAEPAVXSObject@2@KW4COMPONENT_TYPE@XSConstants@2@@Z 12047fd0 f   XSModel.obj
 0001:00047000       ?put@?$RefHashTableOf@VXSNamespaceItem@xercesc_3_1@@UStringHasher@2@@xercesc_3_1@@QAEXPAXQAVXSNamespaceItem@2@@Z 12048000 f i XSModel.obj
 0001:000470f0       ?removeAll@?$RefHashTableOf@VXSNamespaceItem@xercesc_3_1@@UStringHasher@2@@xercesc_3_1@@QAEXXZ 120480f0 f i XSModel.obj
 0001:00047180       ?removeAllElements@?$BaseRefVectorOf@VXSNamespaceItem@xercesc_3_1@@@xercesc_3_1@@UAEXXZ 12048180 f i XSModel.obj
 0001:000471e0       ?removeElementAt@?$BaseRefVectorOf@VXSNamespaceItem@xercesc_3_1@@@xercesc_3_1@@UAEXK@Z 120481e0 f i XSModel.obj
 0001:000472d0       ?removeLastElement@?$BaseRefVectorOf@VXSNamespaceItem@xercesc_3_1@@@xercesc_3_1@@UAEXXZ 120482d0 f i XSModel.obj
 0001:00047300       ?setElementAt@?$BaseRefVectorOf@VXSNamespaceItem@xercesc_3_1@@@xercesc_3_1@@UAEXQAVXSNamespaceItem@2@K@Z 12048300 f i XSModel.obj
 0001:000473b0       ??0XSModelGroup@xercesc_3_1@@QAE@W4COMPOSITOR_TYPE@01@QAV?$RefVectorOf@VXSParticle@xercesc_3_1@@@1@QAVXSAnnotation@1@QAVXSModel@1@QAVMemoryManager@1@@Z 120483b0 f   XSModelGroup.obj
 0001:00047420       ??1XSModelGroup@xercesc_3_1@@UAE@XZ 12048420 f   XSModelGroup.obj
 0001:00047490       ??_EXSModelGroup@xercesc_3_1@@UAEPAXI@Z 12048490 f i XSModelGroup.obj
 0001:00047550       ??0XSModelGroupDefinition@xercesc_3_1@@QAE@QAVXercesGroupInfo@1@QAVXSParticle@1@QAVXSAnnotation@1@QAVXSModel@1@QAVMemoryManager@1@@Z 12048550 f   XSModelGroupDefinition.obj
 0001:000475c0       ??1XSModelGroupDefinition@xercesc_3_1@@UAE@XZ 120485c0 f   XSModelGroupDefinition.obj
 0001:00047630       ??_EXSModelGroupDefinition@xercesc_3_1@@UAEPAXI@Z 12048630 f i XSModelGroupDefinition.obj
 0001:000476f0       ?getModelGroup@XSModelGroupDefinition@xercesc_3_1@@QAEPAVXSModelGroup@2@XZ 120486f0 f   XSModelGroupDefinition.obj
 0001:00047700       ?getNamespace@XSModelGroupDefinition@xercesc_3_1@@UAEPBGXZ 12048700 f   XSModelGroupDefinition.obj
 0001:00047720       ??0XSMultiValueFacet@xercesc_3_1@@QAE@W4FACET@XSSimpleTypeDefinition@1@PAV?$RefArrayVectorOf@G@1@_NQAVXSAnnotation@1@QAVXSModel@1@QAVMemoryManager@1@@Z 12048720 f   XSMultiValueFacet.obj
 0001:00047840       ??1XSMultiValueFacet@xercesc_3_1@@UAE@XZ 12048840 f   XSMultiValueFacet.obj
 0001:000478b0       ??_EXSMultiValueFacet@xercesc_3_1@@UAEPAXI@Z 120488b0 f i XSMultiValueFacet.obj
 0001:00047970       ??0XSNamespaceItem@xercesc_3_1@@QAE@QAVXSModel@1@QAVSchemaGrammar@1@QAVMemoryManager@1@@Z 12048970 f   XSNamespaceItem.obj
 0001:00047b80       ??0XSNamespaceItem@xercesc_3_1@@QAE@QAVXSModel@1@QBGQAVMemoryManager@1@@Z 12048b80 f   XSNamespaceItem.obj
 0001:00047d90       ??1XSNamespaceItem@xercesc_3_1@@QAE@XZ 12048d90 f   XSNamespaceItem.obj
 0001:00047e70       ?getAttributeDeclaration@XSNamespaceItem@xercesc_3_1@@QAEPAVXSAttributeDeclaration@2@PBG@Z 12048e70 f   XSNamespaceItem.obj
 0001:00047ea0       ?getAttributeGroup@XSNamespaceItem@xercesc_3_1@@QAEPAVXSAttributeGroupDefinition@2@PBG@Z 12048ea0 f   XSNamespaceItem.obj
 0001:00047ed0       ?getComponents@XSNamespaceItem@xercesc_3_1@@QAEPAV?$XSNamedMap@VXSObject@xercesc_3_1@@@2@W4COMPONENT_TYPE@XSConstants@2@@Z 12048ed0 f   XSNamespaceItem.obj
 0001:00047ee0       ?getDocumentLocations@XSNamespaceItem@xercesc_3_1@@QAEPBV?$RefArrayVectorOf@G@2@XZ 12048ee0 f   XSNamespaceItem.obj
 0001:00047f00       ?getElementDeclaration@XSNamespaceItem@xercesc_3_1@@QAEPAVXSElementDeclaration@2@PBG@Z 12048f00 f   XSNamespaceItem.obj
 0001:00047f30       ?getModelGroupDefinition@XSNamespaceItem@xercesc_3_1@@QAEPAVXSModelGroupDefinition@2@PBG@Z 12048f30 f   XSNamespaceItem.obj
 0001:00047f60       ?getNotationDeclaration@XSNamespaceItem@xercesc_3_1@@QAEPAVXSNotationDeclaration@2@PBG@Z 12048f60 f   XSNamespaceItem.obj
 0001:00047f90       ?getTypeDefinition@XSNamespaceItem@xercesc_3_1@@QAEPAVXSTypeDefinition@2@PBG@Z 12048f90 f   XSNamespaceItem.obj
 0001:00047fc0       ?removeAll@?$RefHashTableOf@VDTDAttDef@xercesc_3_1@@UStringHasher@2@@xercesc_3_1@@QAEXXZ 12048fc0 f i XTemplateSerializer.obj
 0001:00047fc0       ?removeAll@?$RefHashTableOf@VXMLRefInfo@xercesc_3_1@@UStringHasher@2@@xercesc_3_1@@QAEXXZ 12048fc0 f i ValidationContextImpl.obj
 0001:00047fc0       ?removeAll@?$RefHashTableOf@VXercesGroupInfo@xercesc_3_1@@UStringHasher@2@@xercesc_3_1@@QAEXXZ 12048fc0 f i XSModel.obj
 0001:00047fc0       ?removeAll@?$RefHashTableOf@VXSAnnotation@xercesc_3_1@@UPtrHasher@2@@xercesc_3_1@@QAEXXZ 12048fc0 f i XTemplateSerializer.obj
 0001:00047fc0       ?removeAll@?$RefHashTableOf@VXSObject@xercesc_3_1@@UStringHasher@2@@xercesc_3_1@@QAEXXZ 12048fc0 f i XSNamespaceItem.obj
 0001:00047fc0       ?removeAll@?$RefHashTableOf@VXMLAttDef@xercesc_3_1@@UStringHasher@2@@xercesc_3_1@@QAEXXZ 12048fc0 f i XSModel.obj
 0001:00047fc0       ?removeAll@?$RefHashTableOf@VGrammar@xercesc_3_1@@UStringHasher@2@@xercesc_3_1@@QAEXXZ 12048fc0 f i XMLGrammarPoolImpl.obj
 0001:00047fc0       ?removeAll@?$RefHashTableOf@VRangeFactory@xercesc_3_1@@UStringHasher@2@@xercesc_3_1@@QAEXXZ 12048fc0 f i RangeTokenMap.obj
 0001:00047fc0       ?removeAll@?$RefHashTableOf@VXMLNotationDecl@xercesc_3_1@@UStringHasher@2@@xercesc_3_1@@QAEXXZ 12048fc0 f i XTemplateSerializer.obj
 0001:00047fc0       ?removeAll@?$RefHashTableOf@VXMLElementDecl@xercesc_3_1@@UStringHasher@2@@xercesc_3_1@@QAEXXZ 12048fc0 f i WFXMLScanner.obj
 0001:00047fc0       ?removeAll@?$RefHashTableOf@VXSObject@xercesc_3_1@@UPtrHasher@2@@xercesc_3_1@@QAEXXZ 12048fc0 f i XSObjectFactory.obj
 0001:00047fc0       ?removeAll@?$RefHashTableOf@VDOMElement@xercesc_3_1@@UStringHasher@2@@xercesc_3_1@@QAEXXZ 12048fc0 f i IGXMLScanner.obj
 0001:00047fc0       ?removeAll@?$RefHashTableOf@VDatatypeValidator@xercesc_3_1@@UStringHasher@2@@xercesc_3_1@@QAEXXZ 12048fc0 f i XMLGrammarPoolImpl.obj
 0001:00047fc0       ?removeAll@?$RefHashTableOf@VKVStringPair@xercesc_3_1@@UStringHasher@2@@xercesc_3_1@@QAEXXZ 12048fc0 f i XSObjectFactory.obj
 0001:00047fc0       ?removeAll@?$RefHashTableOf@VXercesAttGroupInfo@xercesc_3_1@@UStringHasher@2@@xercesc_3_1@@QAEXXZ 12048fc0 f i XSModel.obj
 0001:00047fc0       ?removeAll@?$RefHashTableOf@VENameMap@xercesc_3_1@@UStringHasher@2@@xercesc_3_1@@QAEXXZ 12048fc0 f i TransService.obj
 0001:00047fc0       ?removeAll@?$RefHashTableOf@VDTDEntityDecl@xercesc_3_1@@UStringHasher@2@@xercesc_3_1@@QAEXXZ 12048fc0 f i XTemplateSerializer.obj
 0001:00047fc0       ?removeAll@?$RefHashTableOf@VComplexTypeInfo@xercesc_3_1@@UStringHasher@2@@xercesc_3_1@@QAEXXZ 12048fc0 f i XSModel.obj
 0001:00047fc0       ?removeAll@?$RefHashTableOf@VDTDElementDecl@xercesc_3_1@@UStringHasher@2@@xercesc_3_1@@QAEXXZ 12048fc0 f i XMLGrammarPoolImpl.obj
 0001:00048040       ??0XSNotationDeclaration@xercesc_3_1@@QAE@QAVXMLNotationDecl@1@QAVXSAnnotation@1@QAVXSModel@1@QAVMemoryManager@1@@Z 12049040 f   XSNotationDeclaration.obj
 0001:000480b0       ??1XSNotationDeclaration@xercesc_3_1@@UAE@XZ 120490b0 f   XSNotationDeclaration.obj
 0001:00048100       ??_EXSNotationDeclaration@xercesc_3_1@@UAEPAXI@Z 12049100 f i XSNotationDeclaration.obj
 0001:000481b0       ?getName@XSNotationDeclaration@xercesc_3_1@@UBEPBGXZ 120491b0 f   XSNotationDeclaration.obj
 0001:000481c0       ?getPublicId@XSNotationDeclaration@xercesc_3_1@@QAEPBGXZ 120491c0 f   XSNotationDeclaration.obj
 0001:000481d0       ?getSystemId@XSNotationDeclaration@xercesc_3_1@@QAEPBGXZ 120491d0 f   XSNotationDeclaration.obj
 0001:000481e0       ??0XSObject@xercesc_3_1@@QAE@W4COMPONENT_TYPE@XSConstants@1@QAVXSModel@1@QAVMemoryManager@1@@Z 120491e0 f   XSObject.obj
 0001:00048220       ??1XSObject@xercesc_3_1@@UAE@XZ 12049220 f   XSObject.obj
 0001:00048230       ??_EXSObject@xercesc_3_1@@UAEPAXI@Z 12049230 f i XSObject.obj
 0001:00048290       ??0XSParticle@xercesc_3_1@@QAE@W4TERM_TYPE@01@QAVXSModel@1@QAVXSObject@1@KK_NQAVMemoryManager@1@@Z 12049290 f   XSParticle.obj
 0001:00048310       ??1XSParticle@xercesc_3_1@@UAE@XZ 12049310 f   XSParticle.obj
 0001:00048380       ??_EXSParticle@xercesc_3_1@@UAEPAXI@Z 12049380 f i XSParticle.obj
 0001:00048440       ?getElementTerm@XSParticle@xercesc_3_1@@QAEPAVXSElementDeclaration@2@XZ 12049440 f   XSParticle.obj
 0001:00048450       ?getModelGroupTerm@XSParticle@xercesc_3_1@@QAEPAVXSModelGroup@2@XZ 12049450 f   XSParticle.obj
 0001:00048460       ?getWildcardTerm@XSParticle@xercesc_3_1@@QAEPAVXSWildcard@2@XZ 12049460 f   XSParticle.obj
 0001:00048470       ??0XSSimpleTypeDefinition@xercesc_3_1@@QAE@QAVDatatypeValidator@1@W4VARIETY@01@QAVXSTypeDefinition@1@QAV01@QAV?$RefVectorOf@VXSSimpleTypeDefinition@xercesc_3_1@@@1@PAVXSAnnotation@1@QAVXSModel@1@QAVMemoryManager@1@@Z 12049470 f   XSSimpleTypeDefinition.obj
 0001:00048600       ??1XSSimpleTypeDefinition@xercesc_3_1@@UAE@XZ 12049600 f   XSSimpleTypeDefinition.obj
 0001:000486a0       ??_EXSSimpleTypeDefinition@xercesc_3_1@@UAEPAXI@Z 120496a0 f i XSSimpleTypeDefinition.obj
 0001:00048700       ?derivedFromType@XSSimpleTypeDefinition@xercesc_3_1@@UAE_NQBVXSTypeDefinition@2@@Z 12049700 f   XSSimpleTypeDefinition.obj
 0001:00048760       ?getAnonymous@XSSimpleTypeDefinition@xercesc_3_1@@UBE_NXZ 12049760 f   XSSimpleTypeDefinition.obj
 0001:00048770       ?getBounded@XSSimpleTypeDefinition@xercesc_3_1@@QBE_NXZ 12049770 f   XSSimpleTypeDefinition.obj
 0001:00048780       ?getFinite@XSSimpleTypeDefinition@xercesc_3_1@@QBE_NXZ 12049780 f   XSSimpleTypeDefinition.obj
 0001:00048790       ?getLexicalEnumeration@XSSimpleTypeDefinition@xercesc_3_1@@QAEPAV?$RefArrayVectorOf@G@2@XZ 12049790 f   XSSimpleTypeDefinition.obj
 0001:000487a0       ?getLexicalFacetValue@XSSimpleTypeDefinition@xercesc_3_1@@QAEPBGW4FACET@12@@Z 120497a0 f   XSSimpleTypeDefinition.obj
 0001:000488a0       ?getName@XSSimpleTypeDefinition@xercesc_3_1@@UBEPBGXZ 120498a0 f   XSSimpleTypeDefinition.obj
 0001:000488b0       ?getNamespace@XSSimpleTypeDefinition@xercesc_3_1@@UAEPBGXZ 120498b0 f   XSSimpleTypeDefinition.obj
 0001:000488c0       ?getNumeric@XSSimpleTypeDefinition@xercesc_3_1@@QBE_NXZ 120498c0 f   XSSimpleTypeDefinition.obj
 0001:000488d0       ?getOrdered@XSSimpleTypeDefinition@xercesc_3_1@@QBE?AW4ORDERING@12@XZ 120498d0 f   XSSimpleTypeDefinition.obj
 0001:000488e0       ?isDefinedFacet@XSSimpleTypeDefinition@xercesc_3_1@@QAE_NW4FACET@12@@Z 120498e0 f   XSSimpleTypeDefinition.obj
 0001:000488f0       ?isFixedFacet@XSSimpleTypeDefinition@xercesc_3_1@@QAE_NW4FACET@12@@Z 120498f0 f   XSSimpleTypeDefinition.obj
 0001:00048900       ?setFacetInfo@XSSimpleTypeDefinition@xercesc_3_1@@AAEXHHQAV?$RefVectorOf@VXSFacet@xercesc_3_1@@@2@QAV?$RefVectorOf@VXSMultiValueFacet@xercesc_3_1@@@2@QAV?$RefArrayVectorOf@G@2@@Z 12049900 f   XSSimpleTypeDefinition.obj
 0001:00048930       ??0XSTypeDefinition@xercesc_3_1@@QAE@W4TYPE_CATEGORY@01@QAV01@QAVXSModel@1@QAVMemoryManager@1@@Z 12049930 f   XSTypeDefinition.obj
 0001:000489a0       ??1XSTypeDefinition@xercesc_3_1@@UAE@XZ 120499a0 f   XSTypeDefinition.obj
 0001:000489f0       ??_EXSTypeDefinition@xercesc_3_1@@UAEPAXI@Z 120499f0 f i XSTypeDefinition.obj
 0001:00048aa0       ?derivedFrom@XSTypeDefinition@xercesc_3_1@@QAE_NPBG0@Z 12049aa0 f   XSTypeDefinition.obj
 0001:00048ae0       ?isFinal@XSTypeDefinition@xercesc_3_1@@QAE_NF@Z 12049ae0 f   XSTypeDefinition.obj
 0001:00048b00       ??0XSValue@xercesc_3_1@@AAE@W4DataType@01@QAVMemoryManager@1@@Z 12049b00 f   XSValue.obj
 0001:00048b20       ??1XSValue@xercesc_3_1@@QAE@XZ 12049b20 f   XSValue.obj
 0001:00048b40       ??_GXSValue@xercesc_3_1@@QAEPAXI@Z 12049b40 f i XSValue.obj
 0001:00048bc0       ?findBucketElem@?$ValueHashTableOf@W4DataType@XSValue@xercesc_3_1@@UStringHasher@3@@xercesc_3_1@@AAEPAU?$ValueHashTableBucketElem@W4DataType@XSValue@xercesc_3_1@@@2@QBXAAK@Z 12049bc0 f i XSValue.obj
 0001:00048bc0       ?findBucketElem@?$ValueHashTableOf@GUStringHasher@xercesc_3_1@@@xercesc_3_1@@AAEPAU?$ValueHashTableBucketElem@G@2@QBXAAK@Z 12049bc0 f i IGXMLScanner2.obj
 0001:00048bc0       ?findBucketElem@?$ValueHashTableOf@_NUStringHasher@xercesc_3_1@@@xercesc_3_1@@ABEPBU?$ValueHashTableBucketElem@_N@2@QBXAAK@Z 12049bc0 f i EncodingValidator.obj
 0001:00048bc0       ?findBucketElem@?$ValueHashTableOf@W4DataType@XSValue@xercesc_3_1@@UStringHasher@3@@xercesc_3_1@@ABEPBU?$ValueHashTableBucketElem@W4DataType@XSValue@xercesc_3_1@@@2@QBXAAK@Z 12049bc0 f i XSValue.obj
 0001:00048bc0       ?findBucketElem@?$ValueHashTableOf@_NUStringHasher@xercesc_3_1@@@xercesc_3_1@@AAEPAU?$ValueHashTableBucketElem@_N@2@QBXAAK@Z 12049bc0 f i EncodingValidator.obj
 0001:00048bc0       ?findBucketElem@?$ValueHashTableOf@IUStringHasher@xercesc_3_1@@@xercesc_3_1@@ABEPBU?$ValueHashTableBucketElem@I@2@QBXAAK@Z 12049bc0 f i DOMLSParserImpl.obj
 0001:00048bc0       ?findBucketElem@?$ValueHashTableOf@GUStringHasher@xercesc_3_1@@@xercesc_3_1@@ABEPBU?$ValueHashTableBucketElem@G@2@QBXAAK@Z 12049bc0 f i SGXMLScanner.obj
 0001:00048bc0       ?findBucketElem@?$ValueHashTableOf@IUStringHasher@xercesc_3_1@@@xercesc_3_1@@AAEPAU?$ValueHashTableBucketElem@I@2@QBXAAK@Z 12049bc0 f i DOMLSParserImpl.obj
 0001:00048c50       ?get@?$ValueHashTableOf@W4DataType@XSValue@xercesc_3_1@@UStringHasher@3@@xercesc_3_1@@QAEAAW4DataType@XSValue@2@QBXQAVMemoryManager@2@@Z 12049c50 f i XSValue.obj
 0001:00048c50       ?get@?$ValueHashTableOf@GUStringHasher@xercesc_3_1@@@xercesc_3_1@@QAEAAGQBXQAVMemoryManager@2@@Z 12049c50 f i IGXMLScanner2.obj
 0001:00048ce0       ?getActValDateTimes@XSValue@xercesc_3_1@@CAPAV12@QBGW4DataType@12@AAW4Status@12@QAVMemoryManager@2@@Z 12049ce0 f   XSValue.obj
 0001:00048f80       ?getActValNumerics@XSValue@xercesc_3_1@@CAPAV12@QBGW4DataType@12@AAW4Status@12@_NQAVMemoryManager@2@@Z 12049f80 f   XSValue.obj
 0001:00049440       ?getActValStrings@XSValue@xercesc_3_1@@CAPAV12@QBGW4DataType@12@AAW4Status@12@W4XMLVersion@12@_NQAVMemoryManager@2@@Z 1204a440 f   XSValue.obj
 0001:00049740       ?getActualNumericValue@XSValue@xercesc_3_1@@CA_NQBGAAW4Status@12@AATt_value@12@QAVMemoryManager@2@W4DataType@12@@Z 1204a740 f   XSValue.obj
 0001:00049970       ?getActualValue@XSValue@xercesc_3_1@@SAPAV12@QBGW4DataType@12@AAW4Status@12@W4XMLVersion@12@_NQAVMemoryManager@2@@Z 1204a970 f   XSValue.obj
 0001:00049a50       ?getCanRepDateTimes@XSValue@xercesc_3_1@@CAPAGQBGW4DataType@12@AAW4Status@12@_NQAVMemoryManager@2@@Z 1204aa50 f   XSValue.obj
 0001:00049c30       ?getCanRepNumerics@XSValue@xercesc_3_1@@CAPAGQBGW4DataType@12@AAW4Status@12@_NQAVMemoryManager@2@@Z 1204ac30 f   XSValue.obj
 0001:00049e20       ?getCanRepStrings@XSValue@xercesc_3_1@@CAPAGQBGW4DataType@12@AAW4Status@12@W4XMLVersion@12@_NQAVMemoryManager@2@@Z 1204ae20 f   XSValue.obj
 0001:0004a010       ?getCanonicalRepresentation@XSValue@xercesc_3_1@@SAPAGQBGW4DataType@12@AAW4Status@12@W4XMLVersion@12@_NQAVMemoryManager@2@@Z 1204b010 f   XSValue.obj
 0001:0004a0f0       ?getDataType@XSValue@xercesc_3_1@@SA?AW4DataType@12@QBG@Z 1204b0f0 f   XSValue.obj
 0001:0004a130       ?initializeRegistry@XSValue@xercesc_3_1@@CAXXZ 1204b130 f   XSValue.obj
 0001:0004a690       ?initializeXSValue@XMLInitializer@xercesc_3_1@@CAXXZ 1204b690 f   XSValue.obj
 0001:0004a710       ?terminateXSValue@XMLInitializer@xercesc_3_1@@CAXXZ 1204b710 f   XSValue.obj
 0001:0004a760       ?validate@XSValue@xercesc_3_1@@SA_NQBGW4DataType@12@AAW4Status@12@W4XMLVersion@12@QAVMemoryManager@2@@Z 1204b760 f   XSValue.obj
 0001:0004a880       ?validateDateTimes@XSValue@xercesc_3_1@@CA_NQBGW4DataType@12@AAW4Status@12@QAVMemoryManager@2@@Z 1204b880 f   XSValue.obj
 0001:0004aa60       ?validateNumerics@XSValue@xercesc_3_1@@CA_NQBGW4DataType@12@AAW4Status@12@QAVMemoryManager@2@@Z 1204ba60 f   XSValue.obj
 0001:0004adc0       ?validateStrings@XSValue@xercesc_3_1@@CA_NQBGW4DataType@12@AAW4Status@12@W4XMLVersion@12@QAVMemoryManager@2@@Z 1204bdc0 f   XSValue.obj
 0001:0004b570       ??0XSWildcard@xercesc_3_1@@QAE@QAVSchemaAttDef@1@QAVXSAnnotation@1@QAVXSModel@1@QAVMemoryManager@1@@Z 1204c570 f   XSWildcard.obj
 0001:0004b780       ??0XSWildcard@xercesc_3_1@@QAE@QBVContentSpecNode@1@QAVXSAnnotation@1@QAVXSModel@1@QAVMemoryManager@1@@Z 1204c780 f   XSWildcard.obj
 0001:0004ba20       ??1XSWildcard@xercesc_3_1@@UAE@XZ 1204ca20 f   XSWildcard.obj
 0001:0004ba90       ??_EXSWildcard@xercesc_3_1@@UAEPAXI@Z 1204ca90 f i XSWildcard.obj
 0001:0004bb50       ?buildNamespaceList@XSWildcard@xercesc_3_1@@AAEXQBVContentSpecNode@2@@Z 1204cb50 f   XSWildcard.obj
 0001:0004bbc0       ??0BinFileOutputStream@xercesc_3_1@@QAE@QBDQAVMemoryManager@1@@Z 1204cbc0 f   BinFileOutputStream.obj
 0001:0004bc30       ??0BinFileOutputStream@xercesc_3_1@@QAE@QBGQAVMemoryManager@1@@Z 1204cc30 f   BinFileOutputStream.obj
 0001:0004bca0       ??1BinFileOutputStream@xercesc_3_1@@UAE@XZ 1204cca0 f   BinFileOutputStream.obj
 0001:0004bd10       ??_EBinFileOutputStream@xercesc_3_1@@UAEPAXI@Z 1204cd10 f i BinFileOutputStream.obj
 0001:0004bdd0       ?getIsOpen@BinFileOutputStream@xercesc_3_1@@QBE_NXZ 1204cdd0 f i BinFileOutputStream.obj
 0001:0004bdd0       ?getIsOpen@BinFileInputStream@xercesc_3_1@@QBE_NXZ 1204cdd0 f i BinFileInputStream.obj
 0001:0004bde0       ?getSize@BinFileOutputStream@xercesc_3_1@@QBE_KXZ 1204cde0 f   BinFileOutputStream.obj
 0001:0004bde0       ?getSize@BinFileInputStream@xercesc_3_1@@QBE_KXZ 1204cde0 f   BinFileInputStream.obj
 0001:0004bdf0       ?writeBytes@BinFileOutputStream@xercesc_3_1@@UAEXQBEK@Z 1204cdf0 f   BinFileOutputStream.obj
 0001:0004be10       ??0BinMemOutputStream@xercesc_3_1@@QAE@KQAVMemoryManager@1@@Z 1204ce10 f   BinMemOutputStream.obj
 0001:0004be90       ??1BinMemOutputStream@xercesc_3_1@@UAE@XZ 1204ce90 f   BinMemOutputStream.obj
 0001:0004bef0       ??_EBinMemOutputStream@xercesc_3_1@@UAEPAXI@Z 1204cef0 f i BinMemOutputStream.obj
 0001:0004bfb0       ??_FBinMemOutputStream@xercesc_3_1@@QAEXXZ 1204cfb0 f i BinMemOutputStream.obj
 0001:0004c040       ?curPos@BinMemOutputStream@xercesc_3_1@@UBE_KXZ 1204d040 f   BinMemOutputStream.obj
 0001:0004c050       ?ensureCapacity@BinMemOutputStream@xercesc_3_1@@AAEXK@Z 1204d050 f   BinMemOutputStream.obj
 0001:0004c0b0       ?reset@BinMemOutputStream@xercesc_3_1@@QAEXXZ 1204d0b0 f   BinMemOutputStream.obj
 0001:0004c0f0       ?writeBytes@BinMemOutputStream@xercesc_3_1@@UAEXQBEK@Z 1204d0f0 f   BinMemOutputStream.obj
 0001:0004c170       ??0BinOutputStream@xercesc_3_1@@IAE@XZ 1204d170 f   BinOutputStream.obj
 0001:0004c180       ??1BinOutputStream@xercesc_3_1@@UAE@XZ 1204d180 f   BinOutputStream.obj
 0001:0004c190       ??_EBinOutputStream@xercesc_3_1@@UAEPAXI@Z 1204d190 f i BinOutputStream.obj
 0001:0004c1f0       ??0DGXMLScanner@xercesc_3_1@@QAE@QAVXMLDocumentHandler@1@QAVDocTypeHandler@1@QAVXMLEntityHandler@1@QAVXMLErrorReporter@1@QAVXMLValidator@1@QAVGrammarResolver@1@QAVMemoryManager@1@@Z 1204d1f0 f   DGXMLScanner.obj
 0001:0004c300       ??0DGXMLScanner@xercesc_3_1@@QAE@QAVXMLValidator@1@QAVGrammarResolver@1@QAVMemoryManager@1@@Z 1204d300 f   DGXMLScanner.obj
 0001:0004c400       ??0EndOfEntityException@xercesc_3_1@@QAE@ABV01@@Z 1204d400 f i DGXMLScanner.obj
 0001:0004c400       ??4XProtoType@xercesc_3_1@@QAEAAV01@ABV01@@Z 1204d400 f i KVStringPair.obj
 0001:0004c400       ??4DOMNodeImpl@xercesc_3_1@@QAEAAV01@ABV01@@Z 1204d400 f i AbstractDOMParser.obj
 0001:0004c400       ??0XMLPScanToken@xercesc_3_1@@QAE@ABV01@@Z 1204d400 f i XSAnnotation.obj
 0001:0004c420       ??0XMLResourceIdentifier@xercesc_3_1@@QAE@W4ResourceIdentifierType@01@QBG111PBVLocator@1@@Z 1204d420 f i DGXMLScanner.obj
 0001:0004c450       ??1?$Hash2KeysSetOf@UStringHasher@xercesc_3_1@@@xercesc_3_1@@QAE@XZ 1204d450 f i DGXMLScanner.obj
 0001:0004c4d0       ??1DGXMLScanner@xercesc_3_1@@UAE@XZ 1204d4d0 f   DGXMLScanner.obj
 0001:0004c530       ??1XMLBufBid@xercesc_3_1@@QAE@XZ 1204d530 f i DGXMLScanner.obj
 0001:0004c540       ??_EDGXMLScanner@xercesc_3_1@@UAEPAXI@Z 1204d540 f i DGXMLScanner.obj
 0001:0004c600       ??_FDTDValidator@xercesc_3_1@@QAEXXZ 1204d600 f i DGXMLScanner.obj
 0001:0004c610       ?buildAttList@DGXMLScanner@xercesc_3_1@@AAEKKPAVXMLElementDecl@2@AAV?$RefVectorOf@VXMLAttr@xercesc_3_1@@@2@@Z 1204d610 f   DGXMLScanner.obj
 0001:0004c8f0       ?cleanUp@DGXMLScanner@xercesc_3_1@@AAEXXZ 1204d8f0 f   DGXMLScanner.obj
 0001:0004c9f0       ?commonInit@DGXMLScanner@xercesc_3_1@@AAEXXZ 1204d9f0 f   DGXMLScanner.obj
 0001:0004cc80       ?findBucketElem@?$Hash2KeysSetOf@UStringHasher@xercesc_3_1@@@xercesc_3_1@@AAEPAUHash2KeysSetBucketElem@2@QBXHAAK@Z 1204dc80 f i DGXMLScanner.obj
 0001:0004cd20       ?getEntityDeclPool@DGXMLScanner@xercesc_3_1@@UBEPBV?$NameIdPool@VDTDEntityDecl@xercesc_3_1@@@2@XZ 1204dd20 f   DGXMLScanner.obj
 0001:0004cd20       ?getEntityDeclPool@DGXMLScanner@xercesc_3_1@@UAEPAV?$NameIdPool@VDTDEntityDecl@xercesc_3_1@@@2@XZ 1204dd20 f   DGXMLScanner.obj
 0001:0004cd30       ?getName@DGXMLScanner@xercesc_3_1@@UBEPBGXZ 1204dd30 f i DGXMLScanner.obj
 0001:0004cd40       ?isReadingExternalEntity@DTDScanner@xercesc_3_1@@AAE_NXZ 1204dd40 f i DGXMLScanner.obj
 0001:0004cd60       ?loadDTDGrammar@DGXMLScanner@xercesc_3_1@@AAEPAVGrammar@2@ABVInputSource@2@_N@Z 1204dd60 f   DGXMLScanner.obj
 0001:0004d180       ?loadGrammar@DGXMLScanner@xercesc_3_1@@UAEPAVGrammar@2@ABVInputSource@2@F_N@Z 1204e180 f   DGXMLScanner.obj
 0001:0004d300       ?put@?$RefHash2KeysTableOf@VXMLAttr@xercesc_3_1@@UStringHasher@2@@xercesc_3_1@@QAEXPAXHQAVXMLAttr@2@@Z 1204e300 f i DGXMLScanner.obj
 0001:0004d3f0       ?put@?$RefHashTableOf@IUPtrHasher@xercesc_3_1@@@xercesc_3_1@@QAEXPAXQAI@Z 1204e3f0 f i DGXMLScanner.obj
 0001:0004d4e0       ?putIfNotPresent@?$Hash2KeysSetOf@UStringHasher@xercesc_3_1@@@xercesc_3_1@@QAE_NPBXH@Z 1204e4e0 f i DGXMLScanner.obj
 0001:0004d560       ?rehash@?$Hash2KeysSetOf@UStringHasher@xercesc_3_1@@@xercesc_3_1@@AAEXXZ 1204e560 f i DGXMLScanner.obj
 0001:0004d690       ?removeAll@?$Hash2KeysSetOf@UStringHasher@xercesc_3_1@@@xercesc_3_1@@QAEXXZ 1204e690 f i DGXMLScanner.obj
 0001:0004d6e0       ?reset@?$Janitor@VInputSource@xercesc_3_1@@@xercesc_3_1@@QAEXPAVInputSource@2@@Z 1204e6e0 f i DGXMLScanner.obj
 0001:0004d700       ?resolveSystemId@DGXMLScanner@xercesc_3_1@@EAEPAVInputSource@2@QBG0@Z 1204e700 f   DGXMLScanner.obj
 0001:0004da80       ?scanAttValue@DGXMLScanner@xercesc_3_1@@AAE_NQBVXMLAttDef@2@QBGAAVXMLBuffer@2@@Z 1204ea80 f   DGXMLScanner.obj
 0001:0004de40       ?scanAttrListforNameSpaces@DGXMLScanner@xercesc_3_1@@AAEXPAV?$RefVectorOf@VXMLAttr@xercesc_3_1@@@2@KPAVXMLElementDecl@2@@Z 1204ee40 f   DGXMLScanner.obj
 0001:0004e0e0       ?scanCDSection@DGXMLScanner@xercesc_3_1@@EAEXXZ 1204f0e0 f   DGXMLScanner.obj
 0001:0004e3b0       ?scanCharData@DGXMLScanner@xercesc_3_1@@EAEXAAVXMLBuffer@2@@Z 1204f3b0 f   DGXMLScanner.obj
 0001:0004e770       ?scanContent@DGXMLScanner@xercesc_3_1@@AAE_NXZ 1204f770 f   DGXMLScanner.obj
 0001:0004e950       ?scanDocTypeDecl@DGXMLScanner@xercesc_3_1@@EAEXXZ 1204f950 f   DGXMLScanner.obj
 0001:0004f1a0       ?scanDocument@DGXMLScanner@xercesc_3_1@@UAEXABVInputSource@2@@Z 120501a0 f   DGXMLScanner.obj
 0001:0004f330       ?scanEndTag@DGXMLScanner@xercesc_3_1@@AAEXAA_N@Z 12050330 f   DGXMLScanner.obj
 0001:0004f5e0       ?scanEntityRef@DGXMLScanner@xercesc_3_1@@EAE?AW4EntityExpRes@XMLScanner@2@_NAAG1AA_N@Z 120505e0 f   DGXMLScanner.obj
 0001:0004fb00       ?scanNext@DGXMLScanner@xercesc_3_1@@UAE_NAAVXMLPScanToken@2@@Z 12050b00 f   DGXMLScanner.obj
 0001:0004fe00       ?scanReset@DGXMLScanner@xercesc_3_1@@EAEXABVInputSource@2@@Z 12050e00 f   DGXMLScanner.obj
 0001:000500c0       ?scanStartTag@DGXMLScanner@xercesc_3_1@@AAE_NAA_N@Z 120510c0 f   DGXMLScanner.obj
 0001:00050870       ?scanStartTagNS@DGXMLScanner@xercesc_3_1@@AAE_NAA_N@Z 12051870 f   DGXMLScanner.obj
 0001:000510a0       ?sendCharData@DGXMLScanner@xercesc_3_1@@EAEXAAVXMLBuffer@2@@Z 120520a0 f   DGXMLScanner.obj
 0001:000511a0       ?updateNSMap@DGXMLScanner@xercesc_3_1@@AAEXQBG00@Z 120521a0 f   DGXMLScanner.obj
 0001:000512a0       ??0ElemStack@xercesc_3_1@@QAE@QAVMemoryManager@1@@Z 120522a0 f   ElemStack.obj
 0001:000513d0       ??0WFElemStack@xercesc_3_1@@QAE@QAVMemoryManager@1@@Z 120523d0 f   ElemStack.obj
 0001:000514b0       ??1ElemStack@xercesc_3_1@@QAE@XZ 120524b0 f   ElemStack.obj
 0001:000515a0       ??1WFElemStack@xercesc_3_1@@QAE@XZ 120525a0 f   ElemStack.obj
 0001:00051640       ?addChild@ElemStack@xercesc_3_1@@QAEKQAVQName@2@_N@Z 12052640 f   ElemStack.obj
 0001:000517b0       ?addGlobalPrefix@ElemStack@xercesc_3_1@@QAEXQBGI@Z 120527b0 f   ElemStack.obj
 0001:00051910       ?addLevel@ElemStack@xercesc_3_1@@QAEKQAVXMLElementDecl@2@K@Z 12052910 f   ElemStack.obj
 0001:00051a90       ?addLevel@ElemStack@xercesc_3_1@@QAEKXZ 12052a90 f   ElemStack.obj
 0001:00051c10       ?addLevel@WFElemStack@xercesc_3_1@@QAEKQBGII@Z 12052c10 f   ElemStack.obj
 0001:00051d60       ?addLevel@WFElemStack@xercesc_3_1@@QAEKXZ 12052d60 f   ElemStack.obj
 0001:00051e50       ?addPrefix@ElemStack@xercesc_3_1@@QAEXQBGI@Z 12052e50 f   ElemStack.obj
 0001:00051f30       ?addPrefix@WFElemStack@xercesc_3_1@@QAEXQBGI@Z 12052f30 f   ElemStack.obj
 0001:00052010       ?expandMap@ElemStack@xercesc_3_1@@AAEXQAUStackElem@12@@Z 12053010 f   ElemStack.obj
 0001:000520a0       ?expandMap@WFElemStack@xercesc_3_1@@AAEXXZ 120530a0 f   ElemStack.obj
 0001:00052120       ?expandStack@ElemStack@xercesc_3_1@@AAEXXZ 12053120 f   ElemStack.obj
 0001:000521a0       ?expandStack@WFElemStack@xercesc_3_1@@AAEXXZ 120531a0 f   ElemStack.obj
 0001:00052220       ?getNamespaceMap@ElemStack@xercesc_3_1@@QBEPAV?$ValueVectorOf@PAUPrefMapElem@xercesc_3_1@@@2@XZ 12053220 f   ElemStack.obj
 0001:000523d0       ?mapPrefixToURI@ElemStack@xercesc_3_1@@QBEIQBGAA_N@Z 120533d0 f   ElemStack.obj
 0001:000524e0       ?mapPrefixToURI@WFElemStack@xercesc_3_1@@QBEIQBGAA_N@Z 120534e0 f   ElemStack.obj
 0001:00052580       ?popTop@ElemStack@xercesc_3_1@@QAEPBUStackElem@12@XZ 12053580 f   ElemStack.obj
 0001:00052610       ?popTop@WFElemStack@xercesc_3_1@@QAEPBUStackElem@12@XZ 12053610 f   ElemStack.obj
 0001:000526a0       ?reset@ElemStack@xercesc_3_1@@QAEXIIII@Z 120536a0 f   ElemStack.obj
 0001:00052730       ?reset@WFElemStack@xercesc_3_1@@QAEXIIII@Z 12053730 f   ElemStack.obj
 0001:000527a0       ?setElement@ElemStack@xercesc_3_1@@QAEXQAVXMLElementDecl@2@K@Z 120537a0 f   ElemStack.obj
 0001:00052840       ?setElement@WFElemStack@xercesc_3_1@@QAEXQBGII@Z 12053840 f   ElemStack.obj
 0001:00052940       ?topElement@ElemStack@xercesc_3_1@@QBEPBUStackElem@12@XZ 12053940 f   ElemStack.obj
 0001:000529d0       ?topElement@WFElemStack@xercesc_3_1@@QBEPBUStackElem@12@XZ 120539d0 f   ElemStack.obj
 0001:00052a60       ??0IGXMLScanner@xercesc_3_1@@QAE@QAVXMLDocumentHandler@1@QAVDocTypeHandler@1@QAVXMLEntityHandler@1@QAVXMLErrorReporter@1@QAVXMLValidator@1@QAVGrammarResolver@1@QAVMemoryManager@1@@Z 12053a60 f   IGXMLScanner.obj
 0001:00052c20       ??0IGXMLScanner@xercesc_3_1@@QAE@QAVXMLValidator@1@QAVGrammarResolver@1@QAVMemoryManager@1@@Z 12053c20 f   IGXMLScanner.obj
 0001:00052dd0       ??1?$BaseRefVectorEnumerator@VSchemaInfo@xercesc_3_1@@@xercesc_3_1@@UAE@XZ 12053dd0 f i IGXMLScanner.obj
 0001:00052e40       ??1?$BaseRefVectorOf@VKVStringPair@xercesc_3_1@@@xercesc_3_1@@UAE@XZ 12053e40 f i IGXMLScanner.obj
 0001:00052e50       ??1?$BaseRefVectorOf@VSchemaInfo@xercesc_3_1@@@xercesc_3_1@@UAE@XZ 12053e50 f i IGXMLScanner.obj
 0001:00052e60       ??1?$RefVectorOf@VKVStringPair@xercesc_3_1@@@xercesc_3_1@@UAE@XZ 12053e60 f i IGXMLScanner.obj
 0001:00052ef0       ??1?$RefVectorOf@VSchemaInfo@xercesc_3_1@@@xercesc_3_1@@UAE@XZ 12053ef0 f i IGXMLScanner.obj
 0001:00052f80       ??1?$XMLEnumerator@VSchemaInfo@xercesc_3_1@@@xercesc_3_1@@UAE@XZ 12053f80 f i IGXMLScanner.obj
 0001:00052f90       ??1IGXMLScanner@xercesc_3_1@@UAE@XZ 12053f90 f   IGXMLScanner.obj
 0001:00053000       ??1XSDErrorReporter@xercesc_3_1@@UAE@XZ 12054000 f i IGXMLScanner.obj
 0001:00053010       ??_EIGXMLScanner@xercesc_3_1@@UAEPAXI@Z 12054010 f i IGXMLScanner.obj
 0001:000530e0       ??_EXSDErrorReporter@xercesc_3_1@@UAEPAXI@Z 120540e0 f i IGXMLScanner.obj
 0001:00053140       ??_FSchemaValidator@xercesc_3_1@@QAEXXZ 12054140 f i IGXMLScanner.obj
 0001:00053150       ??_FValueStoreCache@xercesc_3_1@@QAEXXZ 12054150 f i IGXMLScanner.obj
 0001:00053160       ??_FXPathMatcherStack@xercesc_3_1@@QAEXXZ 12054160 f i IGXMLScanner.obj
 0001:00053170       ??_FXSDErrorReporter@xercesc_3_1@@QAEXXZ 12054170 f i IGXMLScanner.obj
 0001:00053180       ??_E?$BaseRefVectorEnumerator@VSchemaInfo@xercesc_3_1@@@xercesc_3_1@@UAEPAXI@Z 12054180 f i IGXMLScanner.obj
 0001:00053180       ??_G?$BaseRefVectorEnumerator@VSchemaInfo@xercesc_3_1@@@xercesc_3_1@@UAEPAXI@Z 12054180 f i IGXMLScanner.obj
 0001:00053200       ??_G?$BaseRefVectorOf@VKVStringPair@xercesc_3_1@@@xercesc_3_1@@UAEPAXI@Z 12054200 f i IGXMLScanner.obj
 0001:00053200       ??_E?$BaseRefVectorOf@VKVStringPair@xercesc_3_1@@@xercesc_3_1@@UAEPAXI@Z 12054200 f i IGXMLScanner.obj
 0001:00053230       ??_E?$BaseRefVectorOf@VSchemaInfo@xercesc_3_1@@@xercesc_3_1@@UAEPAXI@Z 12054230 f i IGXMLScanner.obj
 0001:00053230       ??_G?$BaseRefVectorOf@VSchemaInfo@xercesc_3_1@@@xercesc_3_1@@UAEPAXI@Z 12054230 f i IGXMLScanner.obj
 0001:00053260       ??_E?$RefVectorOf@VKVStringPair@xercesc_3_1@@@xercesc_3_1@@UAEPAXI@Z 12054260 f i IGXMLScanner.obj
 0001:00053260       ??_G?$RefVectorOf@VKVStringPair@xercesc_3_1@@@xercesc_3_1@@UAEPAXI@Z 12054260 f i IGXMLScanner.obj
 0001:00053290       ??_G?$RefVectorOf@VSchemaInfo@xercesc_3_1@@@xercesc_3_1@@UAEPAXI@Z 12054290 f i IGXMLScanner.obj
 0001:00053290       ??_E?$RefVectorOf@VSchemaInfo@xercesc_3_1@@@xercesc_3_1@@UAEPAXI@Z 12054290 f i IGXMLScanner.obj
 0001:000532c0       ??_G?$XMLEnumerator@VSchemaInfo@xercesc_3_1@@@xercesc_3_1@@UAEPAXI@Z 120542c0 f i IGXMLScanner.obj
 0001:000532c0       ??_E?$XMLEnumerator@VSchemaInfo@xercesc_3_1@@@xercesc_3_1@@UAEPAXI@Z 120542c0 f i IGXMLScanner.obj
 0001:000532f0       ?addFailedRedefine@SchemaInfo@xercesc_3_1@@QAEXQBVDOMElement@2@@Z 120542f0 f i IGXMLScanner.obj
 0001:000533c0       ?addMatcher@XPathMatcherStack@xercesc_3_1@@QAEXQAVXPathMatcher@2@@Z 120543c0 f i IGXMLScanner.obj
 0001:00053410       ?addRecursingType@SchemaInfo@xercesc_3_1@@QAEXQBVDOMElement@2@QBG@Z 12054410 f i IGXMLScanner.obj
 0001:00053560       ?addSchemaInfo@SchemaInfo@xercesc_3_1@@QAEXQAV12@W4ListType@12@@Z 12054560 f i IGXMLScanner.obj
 0001:000538a0       ?circularImportExist@SchemaInfo@xercesc_3_1@@QAE_NI@Z 120548a0 f i IGXMLScanner.obj
 0001:00053970       ?cleanUp@IGXMLScanner@xercesc_3_1@@AAEXXZ 12054970 f   IGXMLScanner.obj
 0001:00053bc0       ?cleanup@?$BaseRefVectorOf@VSchemaInfo@xercesc_3_1@@@xercesc_3_1@@UAEXXZ 12054bc0 f i IGXMLScanner.obj
 0001:00053c10       ?clearDatatypeBuffer@SchemaValidator@xercesc_3_1@@QAEXXZ 12054c10 f i IGXMLScanner.obj
 0001:00053c20       ?clearTopLevelComponents@SchemaInfo@xercesc_3_1@@AAEXXZ 12054c20 f i IGXMLScanner.obj
 0001:00053c70       ?commonInit@IGXMLScanner@xercesc_3_1@@AAEXXZ 12054c70 f   IGXMLScanner.obj
 0001:000541c0       ?containsInfo@SchemaInfo@xercesc_3_1@@QBE_NQBV12@W4ListType@12@@Z 120551c0 f i IGXMLScanner.obj
 0001:00054230       ?elementAt@?$ValueVectorOf@PAVComplexTypeInfo@xercesc_3_1@@@xercesc_3_1@@QBEABQAVComplexTypeInfo@2@K@Z 12055230 f i IGXMLScanner.obj
 0001:000542c0       ?elementAt@?$ValueVectorOf@_N@xercesc_3_1@@QAEAA_NK@Z 120552c0 f i IGXMLScanner.obj
 0001:00054350       ?endElementPSVI@IGXMLScanner@xercesc_3_1@@AAEXQAVSchemaElementDecl@2@QAVDatatypeValidator@2@@Z 12055350 f   IGXMLScanner.obj
 0001:00054510       ?ensureExtraCapacity@?$ValueVectorOf@_N@xercesc_3_1@@QAEXK@Z 12055510 f i IGXMLScanner.obj
 0001:00054590       ?getCurrentGrammarType@IGXMLScanner@xercesc_3_1@@UBE?AW4GrammarType@Grammar@2@XZ 12055590 f i IGXMLScanner.obj
 0001:00054590       ?getCurrentGrammarType@SGXMLScanner@xercesc_3_1@@UBE?AW4GrammarType@Grammar@2@XZ 12055590 f i SGXMLScanner.obj
 0001:000545a0       ?getCurrentTypeInfo@SchemaValidator@xercesc_3_1@@QBEPAVComplexTypeInfo@2@XZ 120555a0 f i IGXMLScanner.obj
 0001:000545c0       ?getElemAttrDefaultQualified@SchemaInfo@xercesc_3_1@@QBEGXZ 120555c0 f i IGXMLScanner.obj
 0001:000545d0       ?getEntityDeclPool@IGXMLScanner@xercesc_3_1@@UAEPAV?$NameIdPool@VDTDEntityDecl@xercesc_3_1@@@2@XZ 120555d0 f   IGXMLScanner.obj
 0001:000545d0       ?getEntityDeclPool@IGXMLScanner@xercesc_3_1@@UBEPBV?$NameIdPool@VDTDEntityDecl@xercesc_3_1@@@2@XZ 120555d0 f   IGXMLScanner.obj
 0001:000545e0       ?getErrorOccurred@SchemaValidator@xercesc_3_1@@QBE_NXZ 120555e0 f i IGXMLScanner.obj
 0001:000545f0       ?getImportInfo@SchemaInfo@xercesc_3_1@@QBEPAV12@I@Z 120555f0 f i IGXMLScanner.obj
 0001:000546b0       ?getImportingListEnumerator@SchemaInfo@xercesc_3_1@@QBE?AV?$BaseRefVectorEnumerator@VSchemaInfo@xercesc_3_1@@@2@XZ 120556b0 f i IGXMLScanner.obj
 0001:00054720       ?getIsElemSpecified@SchemaValidator@xercesc_3_1@@QBE_NXZ 12055720 f i IGXMLScanner.obj
 0001:00054730       ?getIsXsiTypeSet@SchemaValidator@xercesc_3_1@@QBE_NXZ 12055730 f i IGXMLScanner.obj
 0001:00054740       ?getMatcherAt@XPathMatcherStack@xercesc_3_1@@QBEPAVXPathMatcher@2@K@Z 12055740 f i IGXMLScanner.obj
 0001:00054750       ?getMatcherCount@IdentityConstraintHandler@xercesc_3_1@@QBEKXZ 12055750 f i IGXMLScanner.obj
 0001:00054760       ?getName@IGXMLScanner@xercesc_3_1@@UBEPBGXZ 12055760 f i IGXMLScanner.obj
 0001:00054770       ?getNormalizedValue@SchemaValidator@xercesc_3_1@@QBEPBGXZ 12055770 f i IGXMLScanner.obj
 0001:00054790       ?getProcessed@SchemaInfo@xercesc_3_1@@QBE_NXZ 12055790 f i IGXMLScanner.obj
 0001:000547a0       ?getErrorReporter@XMLScanner@xercesc_3_1@@QBEPBVXMLErrorReporter@2@XZ 120557a0 f i XMLValidator.obj
 0001:000547a0       ?getMemoryAllocationBlockSize@DOMDocumentImpl@xercesc_3_1@@UBEKXZ 120557a0 f i DOMDocumentImpl.obj
 0001:000547a0       ?getValidationContext@SchemaInfo@xercesc_3_1@@QBEPAVValidationContext@2@XZ 120557a0 f i IGXMLScanner.obj
 0001:000547a0       ?getErrorReporter@XMLScanner@xercesc_3_1@@QAEPAVXMLErrorReporter@2@XZ 120557a0 f i XMLValidator.obj
 0001:000547b0       ?getValueStoreFor@ValueStoreCache@xercesc_3_1@@QAEPAVValueStore@2@QBVIC_Field@2@H@Z 120557b0 f i IGXMLScanner.obj
 0001:000547f0       ?getValueStoreFor@ValueStoreCache@xercesc_3_1@@QAEPAVValueStore@2@QBVIdentityConstraint@2@H@Z 120557f0 f i IGXMLScanner.obj
 0001:00054830       ?hasMoreElements@?$BaseRefVectorEnumerator@VSchemaInfo@xercesc_3_1@@@xercesc_3_1@@UBE_NXZ 12055830 f i IGXMLScanner.obj
 0001:00054840       ?isFailedRedefine@SchemaInfo@xercesc_3_1@@QAE_NQBVDOMElement@2@@Z 12055840 f i IGXMLScanner.obj
 0001:00054880       ?isOccurrenceRangeOK@SchemaValidator@xercesc_3_1@@AAE_NHHHH@Z 12055880 f i IGXMLScanner.obj
 0001:000548b0       ?loadDTDGrammar@IGXMLScanner@xercesc_3_1@@AAEPAVGrammar@2@ABVInputSource@2@_N@Z 120558b0 f   IGXMLScanner.obj
 0001:00054d70       ?loadGrammar@IGXMLScanner@xercesc_3_1@@UAEPAVGrammar@2@ABVInputSource@2@F_N@Z 12055d70 f   IGXMLScanner.obj
 0001:00054f20       ?nextElement@?$BaseRefVectorEnumerator@VSchemaInfo@xercesc_3_1@@@xercesc_3_1@@UAEAAVSchemaInfo@2@XZ 12055f20 f i IGXMLScanner.obj
 0001:00054f40       ?peek@?$ValueStackOf@PAVComplexTypeInfo@xercesc_3_1@@@xercesc_3_1@@QBEABQAVComplexTypeInfo@2@XZ 12055f40 f i IGXMLScanner.obj
 0001:00054fd0       ?pop@?$ValueStackOf@_N@xercesc_3_1@@QAE_NXZ 12055fd0 f i IGXMLScanner.obj
 0001:00055070       ?popContext@XPathMatcherStack@xercesc_3_1@@QAEXXZ 12056070 f i IGXMLScanner.obj
 0001:00055080       ?processSchemaLocation@IGXMLScanner@xercesc_3_1@@AAEXQAG@Z 12056080 f   IGXMLScanner.obj
 0001:000551d0       ?pushContext@XPathMatcherStack@xercesc_3_1@@QAEXXZ 120561d0 f i IGXMLScanner.obj
 0001:000551f0       ?rawAttrScan@IGXMLScanner@xercesc_3_1@@AAEKQBGAAV?$RefVectorOf@VKVStringPair@xercesc_3_1@@@2@AA_N@Z 120561f0 f   IGXMLScanner.obj
 0001:000555f0       ?removeAll@?$RefHash2KeysTableOf@VSchemaInfo@xercesc_3_1@@UStringHasher@2@@xercesc_3_1@@QAEXXZ 120565f0 f i IGXMLScanner.obj
 0001:00055680       ?removeAllElements@?$BaseRefVectorOf@VSchemaInfo@xercesc_3_1@@@xercesc_3_1@@UAEXXZ 12056680 f i IGXMLScanner.obj
 0001:000556e0       ?removeElementAt@?$BaseRefVectorOf@VSchemaInfo@xercesc_3_1@@@xercesc_3_1@@UAEXK@Z 120566e0 f i IGXMLScanner.obj
 0001:000557d0       ?removeElementAt@?$ValueVectorOf@_N@xercesc_3_1@@QAEXK@Z 120567d0 f i IGXMLScanner.obj
 0001:00055880       ?removeLastElement@?$BaseRefVectorOf@VSchemaInfo@xercesc_3_1@@@xercesc_3_1@@UAEXXZ 12056880 f i IGXMLScanner.obj
 0001:000558b0       ?resetCachedGrammar@IGXMLScanner@xercesc_3_1@@UAEXXZ 120568b0 f   IGXMLScanner.obj
 0001:000558c0       ?resetNillable@SchemaValidator@xercesc_3_1@@QAEXXZ 120568c0 f i IGXMLScanner.obj
 0001:000558d0       ?resetPSVIElemContext@IGXMLScanner@xercesc_3_1@@AAEXXZ 120568d0 f   IGXMLScanner.obj
 0001:00055920       ?resetRoot@SchemaInfo@xercesc_3_1@@QAEXXZ 12056920 f i IGXMLScanner.obj
 0001:00055930       ?resizeElemState@SGXMLScanner@xercesc_3_1@@IAEXXZ 12056930 f   SGXMLScanner.obj
 0001:00055930       ?resizeElemState@IGXMLScanner@xercesc_3_1@@AAEXXZ 12056930 f   IGXMLScanner.obj
 0001:00055aa0       ?resizeRawAttrColonList@IGXMLScanner@xercesc_3_1@@AAEXXZ 12056aa0 f   IGXMLScanner.obj
 0001:00055b10       ?scanContent@IGXMLScanner@xercesc_3_1@@AAE_NXZ 12056b10 f   IGXMLScanner.obj
 0001:00055cf0       ?scanDocTypeDecl@IGXMLScanner@xercesc_3_1@@EAEXXZ 12056cf0 f   IGXMLScanner.obj
 0001:00056550       ?scanDocument@IGXMLScanner@xercesc_3_1@@UAEXABVInputSource@2@@Z 12057550 f   IGXMLScanner.obj
 0001:000566e0       ?scanEndTag@IGXMLScanner@xercesc_3_1@@AAEXAA_N@Z 120576e0 f   IGXMLScanner.obj
 0001:00056cd0       ?scanNext@IGXMLScanner@xercesc_3_1@@UAE_NAAVXMLPScanToken@2@@Z 12057cd0 f   IGXMLScanner.obj
 0001:00056fd0       ?scanStartTag@IGXMLScanner@xercesc_3_1@@AAE_NAA_N@Z 12057fd0 f   IGXMLScanner.obj
 0001:00057970       ?scanStartTagNS@IGXMLScanner@xercesc_3_1@@AAE_NAA_N@Z 12058970 f   IGXMLScanner.obj
 0001:00058930       ?setDatatypeBuffer@SchemaValidator@xercesc_3_1@@QAEXQBG@Z 12059930 f i IGXMLScanner.obj
 0001:00058980       ?setElemAttrDefaultQualified@SchemaInfo@xercesc_3_1@@QAEXG@Z 12059980 f i IGXMLScanner.obj
 0001:00058990       ?setElementAt@?$BaseRefVectorOf@VSchemaInfo@xercesc_3_1@@@xercesc_3_1@@UAEXQAVSchemaInfo@2@K@Z 12059990 f i IGXMLScanner.obj
 0001:00058a40       ?setErrorReporter@SchemaValidator@xercesc_3_1@@QAEXQAVXMLErrorReporter@2@@Z 12059a40 f i IGXMLScanner.obj
 0001:00058a50       ?setExitOnFirstFatal@SchemaValidator@xercesc_3_1@@QAEX_N@Z 12059a50 f i IGXMLScanner.obj
 0001:00058a60       ?setDeclared@XMLRefInfo@xercesc_3_1@@QAEX_N@Z 12059a60 f i XMLGrammarPoolImpl.obj
 0001:00058a60       ?setAdoptLocation@DOMErrorImpl@xercesc_3_1@@QAEX_N@Z 12059a60 f i DOMLSParserImpl.obj
 0001:00058a60       ?setTypeWithId@XercesAttGroupInfo@xercesc_3_1@@QAEX_N@Z 12059a60 f i XMLGrammarPoolImpl.obj
 0001:00058a60       ?setExitOnFirstFatal@XSDErrorReporter@xercesc_3_1@@QAEX_N@Z 12059a60 f i IGXMLScanner.obj
 0001:00058a60       ?setCheckElementConsistency@XercesGroupInfo@xercesc_3_1@@QAEX_N@Z 12059a60 f i XMLGrammarPoolImpl.obj
 0001:00058a70       ?setNillable@SchemaValidator@xercesc_3_1@@QAEX_N@Z 12059a70 f i IGXMLScanner.obj
 0001:00058a90       ?useCachedGrammarInParse@GrammarResolver@xercesc_3_1@@QAEX_N@Z 12059a90 f i XMLValidator.obj
 0001:00058a90       ?setProcessed@SchemaInfo@xercesc_3_1@@QAEX_N@Z 12059a90 f i IGXMLScanner.obj
 0001:00058aa0       ?setXsiType@SchemaValidator@xercesc_3_1@@QAEXQBG0I@Z 12059aa0 f i IGXMLScanner.obj
 0001:00058b50       ?size@XPathMatcherStack@xercesc_3_1@@QBEKXZ 12059b50 f i IGXMLScanner.obj
 0001:00058b60       ?toCheckIdentityConstraint@IGXMLScanner@xercesc_3_1@@ABE_NXZ 12059b60 f i IGXMLScanner.obj
 0001:00058b60       ?toCheckIdentityConstraint@SGXMLScanner@xercesc_3_1@@ABE_NXZ 12059b60 f i SGXMLScanner.obj
 0001:00058b80       ??0?$RefHash2KeysTableOfEnumerator@VSchemaInfo@xercesc_3_1@@UStringHasher@2@@xercesc_3_1@@QAE@QAV?$RefHash2KeysTableOf@VSchemaInfo@xercesc_3_1@@UStringHasher@2@@1@_NQAVMemoryManager@1@@Z 12059b80 f i IGXMLScanner2.obj
 0001:00058c50       ??0DOMAttr@xercesc_3_1@@IAE@ABV01@@Z 12059c50 f i IGXMLScanner2.obj
 0001:00058cb0       ??0DOMAttr@xercesc_3_1@@IAE@XZ 12059cb0 f i IGXMLScanner2.obj
 0001:00058d10       ??0SubstitutionGroupComparator@xercesc_3_1@@QAE@QAVGrammarResolver@1@QAVXMLStringPool@1@@Z 12059d10 f i IGXMLScanner2.obj
 0001:00058d10       ??0EndOfEntityException@xercesc_3_1@@QAE@PAVXMLEntityDecl@1@K@Z 12059d10 f i DGXMLScanner.obj
 0001:00058d30       ??1?$RefHash2KeysTableOfEnumerator@VSchemaInfo@xercesc_3_1@@UStringHasher@2@@xercesc_3_1@@UAE@XZ 12059d30 f i IGXMLScanner2.obj
 0001:00058dc0       ??1DOMAttr@xercesc_3_1@@UAE@XZ 12059dc0 f i IGXMLScanner2.obj
 0001:00058e10       ??1XSDLocator@xercesc_3_1@@UAE@XZ 12059e10 f i IGXMLScanner2.obj
 0001:00058e60       ??_EDOMAttr@xercesc_3_1@@UAEPAXI@Z 12059e60 f i IGXMLScanner2.obj
 0001:00058f10       ??_EXSDLocator@xercesc_3_1@@UAEPAXI@Z 12059f10 f i IGXMLScanner2.obj
 0001:00058fc0       ??_FContentLeafNameTypeVector@xercesc_3_1@@QAEXXZ 12059fc0 f i IGXMLScanner2.obj
 0001:00058fd0       ??_FFieldValueMap@xercesc_3_1@@QAEXXZ 12059fd0 f i IGXMLScanner2.obj
 0001:00058fe0       ??_FGeneralAttributeCheck@xercesc_3_1@@QAEXXZ 12059fe0 f i IGXMLScanner2.obj
 0001:00058ff0       ??_FXSDDOMParser@xercesc_3_1@@QAEXXZ 12059ff0 f i IGXMLScanner2.obj
 0001:00059000       ??_G?$RefHash2KeysTableOfEnumerator@VSchemaInfo@xercesc_3_1@@UStringHasher@2@@xercesc_3_1@@UAEPAXI@Z 1205a000 f i IGXMLScanner2.obj
 0001:00059000       ??_E?$RefHash2KeysTableOfEnumerator@VSchemaInfo@xercesc_3_1@@UStringHasher@2@@xercesc_3_1@@UAEPAXI@Z 1205a000 f i IGXMLScanner2.obj
 0001:000590a0       ?addImportedNS@TraverseSchema@xercesc_3_1@@AAEXH@Z 1205a0a0 f i IGXMLScanner2.obj
 0001:00059190       ?anyAttributeValidation@IGXMLScanner@xercesc_3_1@@AAE_NPAVSchemaAttDef@2@IAA_N1@Z 1205a190 f   IGXMLScanner2.obj
 0001:00059190       ?anyAttributeValidation@SGXMLScanner@xercesc_3_1@@AAE_NPAVSchemaAttDef@2@IAA_N1@Z 1205a190 f   SGXMLScanner.obj
 0001:00059250       ?basicAttrValueScan@IGXMLScanner@xercesc_3_1@@AAE_NQBGAAVXMLBuffer@2@@Z 1205a250 f   IGXMLScanner2.obj
 0001:000594a0       ?buildAttList@IGXMLScanner@xercesc_3_1@@AAEKABV?$RefVectorOf@VKVStringPair@xercesc_3_1@@@2@KPAVXMLElementDecl@2@AAV?$RefVectorOf@VXMLAttr@xercesc_3_1@@@2@@Z 1205a4a0 f   IGXMLScanner2.obj
 0001:0005a8e0       ?checkForEmptyTargetNamespace@TraverseSchema@xercesc_3_1@@AAEXQBVDOMElement@2@@Z 1205b8e0 f i IGXMLScanner2.obj
 0001:0005a920       ?copyWildCardData@TraverseSchema@xercesc_3_1@@AAEXQBVSchemaAttDef@2@QAV32@@Z 1205b920 f i IGXMLScanner2.obj
 0001:0005a950       ?ensureExtraCapacity@?$ValueVectorOf@PAVQName@xercesc_3_1@@@xercesc_3_1@@QAEXK@Z 1205b950 f i AllContentModel.obj
 0001:0005a950       ?ensureExtraCapacity@?$ValueVectorOf@PAVSchemaElementDecl@xercesc_3_1@@@xercesc_3_1@@QAEXK@Z 1205b950 f i XTemplateSerializer.obj
 0001:0005a950       ?ensureExtraCapacity@?$ValueVectorOf@W4NodeTypes@ContentSpecNode@xercesc_3_1@@@xercesc_3_1@@QAEXK@Z 1205b950 f i MixedContentModel.obj
 0001:0005a950       ?ensureExtraCapacity@?$ValueVectorOf@I@xercesc_3_1@@QAEXK@Z 1205b950 f i XTemplateSerializer.obj
 0001:0005a950       ?ensureExtraCapacity@?$ValueVectorOf@PAVSchemaGrammar@xercesc_3_1@@@xercesc_3_1@@QAEXK@Z 1205b950 f i GrammarResolver.obj
 0001:0005a950       ?ensureExtraCapacity@?$ValueVectorOf@PAVXMLAttr@xercesc_3_1@@@xercesc_3_1@@QAEXK@Z 1205b950 f i DGXMLScanner.obj
 0001:0005a950       ?ensureExtraCapacity@?$ValueVectorOf@PAVContentSpecNode@xercesc_3_1@@@xercesc_3_1@@QAEXK@Z 1205b950 f i SchemaValidator.obj
 0001:0005a950       ?ensureExtraCapacity@?$ValueVectorOf@H@xercesc_3_1@@QAEXK@Z 1205b950 f i XMLGrammarPoolImpl.obj
 0001:0005a950       ?ensureExtraCapacity@?$ValueVectorOf@PAVIC_Field@xercesc_3_1@@@xercesc_3_1@@QAEXK@Z 1205b950 f i IGXMLScanner2.obj
 0001:0005a950       ?ensureExtraCapacity@?$ValueVectorOf@PAVComplexTypeInfo@xercesc_3_1@@@xercesc_3_1@@QAEXK@Z 1205b950 f i SchemaValidator.obj
 0001:0005a950       ?ensureExtraCapacity@?$ValueVectorOf@PBG@xercesc_3_1@@QAEXK@Z 1205b950 f i IGXMLScanner.obj
 0001:0005a950       ?ensureExtraCapacity@?$ValueVectorOf@PBVDOMElement@xercesc_3_1@@@xercesc_3_1@@QAEXK@Z 1205b950 f i IGXMLScanner.obj
 0001:0005a950       ?ensureExtraCapacity@?$ValueVectorOf@PAVXercesAttGroupInfo@xercesc_3_1@@@xercesc_3_1@@QAEXK@Z 1205b950 f i TraverseSchema.obj
 0001:0005a950       ?ensureExtraCapacity@?$ValueVectorOf@PAVDatatypeValidator@xercesc_3_1@@@xercesc_3_1@@QAEXK@Z 1205b950 f i IGXMLScanner2.obj
 0001:0005a950       ?ensureExtraCapacity@?$ValueVectorOf@PAVDOMElement@xercesc_3_1@@@xercesc_3_1@@QAEXK@Z 1205b950 f i TraverseSchema.obj
 0001:0005a950       ?ensureExtraCapacity@?$ValueVectorOf@PAVDOMNode@xercesc_3_1@@@xercesc_3_1@@QAEXK@Z 1205b950 f i GeneralAttributeCheck.obj
 0001:0005a950       ?ensureExtraCapacity@?$ValueVectorOf@K@xercesc_3_1@@QAEXK@Z 1205b950 f i WFXMLScanner.obj
 0001:0005a950       ?ensureExtraCapacity@?$ValueVectorOf@PAX@xercesc_3_1@@QAEXK@Z 1205b950 f i XSerializeEngine.obj
 0001:0005a9d0       ?genAnonTypeName@TraverseSchema@xercesc_3_1@@AAEPBGQBG@Z 1205b9d0 f i IGXMLScanner2.obj
 0001:0005aaa0       ?get@?$RefHash2KeysTableOf@V?$ValueVectorOf@PAVSchemaElementDecl@xercesc_3_1@@@xercesc_3_1@@UStringHasher@2@@xercesc_3_1@@QAEPAV?$ValueVectorOf@PAVSchemaElementDecl@xercesc_3_1@@@2@QBXH@Z 1205baa0 f i XTemplateSerializer.obj
 0001:0005aaa0       ?get@?$RefHash2KeysTableOf@GUStringHasher@xercesc_3_1@@@xercesc_3_1@@QAEPAGQBXH@Z 1205baa0 f i TraverseSchema.obj
 0001:0005aaa0       ?get@?$RefHash2KeysTableOf@VSchemaInfo@xercesc_3_1@@UStringHasher@2@@xercesc_3_1@@QAEPAVSchemaInfo@2@QBXH@Z 1205baa0 f i IGXMLScanner2.obj
 0001:0005aad0       ?getDatatypeValidatorAt@FieldValueMap@xercesc_3_1@@QBEPAVDatatypeValidator@2@K@Z 1205bad0 f i IGXMLScanner2.obj
 0001:0005aaf0       ?getDatatypeValidatorFor@FieldValueMap@xercesc_3_1@@QBEPAVDatatypeValidator@2@QBVIC_Field@2@@Z 1205baf0 f i IGXMLScanner2.obj
 0001:0005ab30       ?getFacetId@GeneralAttributeCheck@xercesc_3_1@@QAEGQBGQAVMemoryManager@2@@Z 1205bb30 f i IGXMLScanner2.obj
 0001:0005ab50       ?getLineNumber@DOMLocatorImpl@xercesc_3_1@@UBE_KXZ 1205bb50 f i DOMLSParserImpl.obj
 0001:0005ab50       ?getLineNumber@XSDLocator@xercesc_3_1@@UBE_KXZ 1205bb50 f i IGXMLScanner2.obj
 0001:0005ab60       ?getLocalPart@TraverseSchema@xercesc_3_1@@AAEPBGQBG@Z 1205bb60 f i IGXMLScanner2.obj
 0001:0005abf0       ?getPrefix@TraverseSchema@xercesc_3_1@@AAEPBGQBG@Z 1205bbf0 f i IGXMLScanner2.obj
 0001:0005ac50       ?getRedefineNewTypeName@TraverseSchema@xercesc_3_1@@AAEXQBGHAAVXMLBuffer@2@@Z 1205bc50 f i IGXMLScanner2.obj
 0001:0005ace0       ?getSawFatal@XSDDOMParser@xercesc_3_1@@QBE_NXZ 1205bce0 f i IGXMLScanner2.obj
 0001:0005acf0       ?getValueAt@FieldValueMap@xercesc_3_1@@QBEPAGK@Z 1205bcf0 f i IGXMLScanner2.obj
 0001:0005ad10       ?getValueFor@FieldValueMap@xercesc_3_1@@QBEPAGQBVIC_Field@2@@Z 1205bd10 f i IGXMLScanner2.obj
 0001:0005ad50       ?init@ContentLeafNameTypeVector@xercesc_3_1@@AAEXK@Z 1205bd50 f i IGXMLScanner2.obj
 0001:0005ad90       ?isAttrOrAttrGroup@TraverseSchema@xercesc_3_1@@AAE_NQBVDOMElement@2@@Z 1205bd90 f i IGXMLScanner2.obj
 0001:0005ade0       ?isBaseFromAnotherSchema@TraverseSchema@xercesc_3_1@@AAE_NQBG@Z 1205bde0 f i IGXMLScanner2.obj
 0001:0005ae30       ?isImportingNS@TraverseSchema@xercesc_3_1@@AAE_NH@Z 1205be30 f i IGXMLScanner2.obj
 0001:0005ae70       ?keyAt@FieldValueMap@xercesc_3_1@@QBEPAVIC_Field@2@K@Z 1205be70 f i IGXMLScanner2.obj
 0001:0005ae90       ?laxElementValidation@IGXMLScanner@xercesc_3_1@@AAE_NPAVQName@2@PAVContentLeafNameTypeVector@2@QBVXMLContentModel@2@K@Z 1205be90 f   IGXMLScanner2.obj
 0001:0005b0a0       ?loadXMLSchemaGrammar@IGXMLScanner@xercesc_3_1@@AAEPAVGrammar@2@ABVInputSource@2@_N@Z 1205c0a0 f   IGXMLScanner2.obj
 0001:0005b480       ?normalizeAttRawValue@SGXMLScanner@xercesc_3_1@@AAE_NQBG0AAVXMLBuffer@2@@Z 1205c480 f   SGXMLScanner.obj
 0001:0005b480       ?normalizeAttRawValue@IGXMLScanner@xercesc_3_1@@AAE_NQBG0AAVXMLBuffer@2@@Z 1205c480 f   IGXMLScanner2.obj
 0001:0005b550       ?normalizeAttValue@IGXMLScanner@xercesc_3_1@@AAE_NQBVXMLAttDef@2@QBG1AAVXMLBuffer@2@@Z 1205c550 f   IGXMLScanner2.obj
 0001:0005b7b0       ?parseSchemaLocation@IGXMLScanner@xercesc_3_1@@AAEXQBG_N@Z 1205c7b0 f   IGXMLScanner2.obj
 0001:0005b9f0       ?popCurrentTypeNameStack@TraverseSchema@xercesc_3_1@@AAEXXZ 1205c9f0 f i IGXMLScanner2.obj
 0001:0005ba10       ?put@FieldValueMap@xercesc_3_1@@QAEXQAVIC_Field@2@QAVDatatypeValidator@2@QBG@Z 1205ca10 f i IGXMLScanner2.obj
 0001:0005bc60       ?resolveSchemaGrammar@IGXMLScanner@xercesc_3_1@@AAEXQBG0_N@Z 1205cc60 f   IGXMLScanner2.obj
 0001:0005c590       ?resolveSystemId@IGXMLScanner@xercesc_3_1@@EAEPAVInputSource@2@QBG0@Z 1205d590 f   IGXMLScanner2.obj
 0001:0005c910       ?scanAttValue@IGXMLScanner@xercesc_3_1@@AAE_NQBVXMLAttDef@2@QBGAAVXMLBuffer@2@@Z 1205d910 f   IGXMLScanner2.obj
 0001:0005ccd0       ?scanCDSection@IGXMLScanner@xercesc_3_1@@EAEXXZ 1205dcd0 f   IGXMLScanner2.obj
 0001:0005d100       ?scanCharData@IGXMLScanner@xercesc_3_1@@EAEXAAVXMLBuffer@2@@Z 1205e100 f   IGXMLScanner2.obj
 0001:0005d500       ?scanEntityRef@IGXMLScanner@xercesc_3_1@@EAE?AW4EntityExpRes@XMLScanner@2@_NAAG1AA_N@Z 1205e500 f   IGXMLScanner2.obj
 0001:0005da20       ?scanRawAttrListforNameSpaces@IGXMLScanner@xercesc_3_1@@AAEXK@Z 1205ea20 f   IGXMLScanner2.obj
 0001:0005e000       ?scanReset@IGXMLScanner@xercesc_3_1@@EAEXABVInputSource@2@@Z 1205f000 f   IGXMLScanner2.obj
 0001:0005e510       ?sendCharData@IGXMLScanner@xercesc_3_1@@EAEXAAVXMLBuffer@2@@Z 1205f510 f   IGXMLScanner2.obj
 0001:0005e7c0       ?setElementAt@?$ValueVectorOf@PAVDatatypeValidator@xercesc_3_1@@@xercesc_3_1@@QAEXABQAVDatatypeValidator@2@K@Z 1205f7c0 f i IGXMLScanner2.obj
 0001:0005e7c0       ?setElementAt@?$ValueVectorOf@K@xercesc_3_1@@QAEXABKK@Z 1205f7c0 f i WFXMLScanner.obj
 0001:0005e850       ?size@FieldValueMap@xercesc_3_1@@QBEKXZ 1205f850 f i IGXMLScanner2.obj
 0001:0005e860       ?switchGrammar@IGXMLScanner@xercesc_3_1@@AAE_NQBG@Z 1205f860 f   IGXMLScanner2.obj
 0001:0005e9d0       ?updateNSMap@IGXMLScanner@xercesc_3_1@@AAEXQBG0@Z 1205f9d0 f   IGXMLScanner2.obj
 0001:0005e9d0       ?updateNSMap@SGXMLScanner@xercesc_3_1@@IAEXQBG0@Z 1205f9d0 f   SGXMLScanner.obj
 0001:0005ea00       ?updateNSMap@SGXMLScanner@xercesc_3_1@@IAEXQBG0H@Z 1205fa00 f   SGXMLScanner.obj
 0001:0005ea00       ?updateNSMap@IGXMLScanner@xercesc_3_1@@AAEXQBG0H@Z 1205fa00 f   IGXMLScanner2.obj
 0001:0005eb80       ?allocate@MemoryManagerImpl@xercesc_3_1@@UAEPAXK@Z 1205fb80 f   MemoryManagerImpl.obj
 0001:0005ec00       ?deallocate@MemoryManagerImpl@xercesc_3_1@@UAEXPAX@Z 1205fc00 f   MemoryManagerImpl.obj
 0001:0005ec20       ??0ReaderMgr@xercesc_3_1@@QAE@QAVMemoryManager@1@@Z 1205fc20 f   ReaderMgr.obj
 0001:0005ecc0       ??1?$BaseRefVectorOf@VXMLEntityDecl@xercesc_3_1@@@xercesc_3_1@@UAE@XZ 1205fcc0 f i ReaderMgr.obj
 0001:0005ecd0       ??1?$BaseRefVectorOf@VXMLReader@xercesc_3_1@@@xercesc_3_1@@UAE@XZ 1205fcd0 f i ReaderMgr.obj
 0001:0005ece0       ??1?$RefVectorOf@VXMLEntityDecl@xercesc_3_1@@@xercesc_3_1@@UAE@XZ 1205fce0 f i ReaderMgr.obj
 0001:0005ed70       ??1?$RefVectorOf@VXMLReader@xercesc_3_1@@@xercesc_3_1@@UAE@XZ 1205fd70 f i ReaderMgr.obj
 0001:0005ee00       ??1ReaderMgr@xercesc_3_1@@UAE@XZ 1205fe00 f   ReaderMgr.obj
 0001:0005eeb0       ??_EReaderMgr@xercesc_3_1@@UAEPAXI@Z 1205feb0 f i ReaderMgr.obj
 0001:0005ef10       ??_G?$BaseRefVectorOf@VXMLEntityDecl@xercesc_3_1@@@xercesc_3_1@@UAEPAXI@Z 1205ff10 f i ReaderMgr.obj
 0001:0005ef10       ??_E?$BaseRefVectorOf@VXMLEntityDecl@xercesc_3_1@@@xercesc_3_1@@UAEPAXI@Z 1205ff10 f i ReaderMgr.obj
 0001:0005ef40       ??_G?$BaseRefVectorOf@VXMLReader@xercesc_3_1@@@xercesc_3_1@@UAEPAXI@Z 1205ff40 f i ReaderMgr.obj
 0001:0005ef40       ??_E?$BaseRefVectorOf@VXMLReader@xercesc_3_1@@@xercesc_3_1@@UAEPAXI@Z 1205ff40 f i ReaderMgr.obj
 0001:0005ef70       ??_G?$RefVectorOf@VXMLEntityDecl@xercesc_3_1@@@xercesc_3_1@@UAEPAXI@Z 1205ff70 f i ReaderMgr.obj
 0001:0005ef70       ??_E?$RefVectorOf@VXMLEntityDecl@xercesc_3_1@@@xercesc_3_1@@UAEPAXI@Z 1205ff70 f i ReaderMgr.obj
 0001:0005efa0       ??_E?$RefVectorOf@VXMLReader@xercesc_3_1@@@xercesc_3_1@@UAEPAXI@Z 1205ffa0 f i ReaderMgr.obj
 0001:0005efa0       ??_G?$RefVectorOf@VXMLReader@xercesc_3_1@@@xercesc_3_1@@UAEPAXI@Z 1205ffa0 f i ReaderMgr.obj
 0001:0005efd0       ?atEOF@ReaderMgr@xercesc_3_1@@QBE_NXZ 1205ffd0 f   ReaderMgr.obj
 0001:0005eff0       ?cleanStackBackTo@ReaderMgr@xercesc_3_1@@QAEXK@Z 1205fff0 f   ReaderMgr.obj
 0001:0005f170       ?cleanup@?$BaseRefVectorOf@VXMLReader@xercesc_3_1@@@xercesc_3_1@@UAEXXZ 12060170 f i ReaderMgr.obj
 0001:0005f1c0       ?createIntEntReader@ReaderMgr@xercesc_3_1@@QAEPAVXMLReader@2@QBGW4RefFrom@32@W4Types@32@0K_N3K@Z 120601c0 f   ReaderMgr.obj
 0001:0005f2d0       ?createReader@ReaderMgr@xercesc_3_1@@QAEPAVXMLReader@2@ABVInputSource@2@_NW4RefFrom@32@W4Types@32@W4Sources@32@1K@Z 120602d0 f   ReaderMgr.obj
 0001:0005f440       ?createReader@ReaderMgr@xercesc_3_1@@QAEPAVXMLReader@2@QBG00_NW4RefFrom@32@W4Types@32@W4Sources@32@AAPAVInputSource@2@1K1@Z 12060440 f   ReaderMgr.obj
 0001:0005f810       ?createReader@ReaderMgr@xercesc_3_1@@QAEPAVXMLReader@2@QBG0_NW4RefFrom@32@W4Types@32@W4Sources@32@AAPAVInputSource@2@1K1@Z 12060810 f   ReaderMgr.obj
 0001:0005fbe0       ?elementAt@?$RefStackOf@VXMLReader@xercesc_3_1@@@xercesc_3_1@@QBEPBVXMLReader@2@K@Z 12060be0 f i ReaderMgr.obj
 0001:0005fbe0       ?elementAt@?$RefStackOf@VXMLEntityDecl@xercesc_3_1@@@xercesc_3_1@@QBEPBVXMLEntityDecl@2@K@Z 12060be0 f i ReaderMgr.obj
 0001:0005fbe0       ?elementAt@?$RefStackOf@VDOMBuffer@xercesc_3_1@@@xercesc_3_1@@QBEPBVDOMBuffer@2@K@Z 12060be0 f i DOMDocumentImpl.obj
 0001:0005fc70       ?getColumnNumber@ReaderMgr@xercesc_3_1@@UBE_KXZ 12060c70 f   ReaderMgr.obj
 0001:0005fcb0       ?getCurrentEncodingStr@ReaderMgr@xercesc_3_1@@QBEPBGXZ 12060cb0 f   ReaderMgr.obj
 0001:0005fcd0       ?getLastExtEntity@ReaderMgr@xercesc_3_1@@ABEPBVXMLReader@2@AAPBVXMLEntityDecl@2@@Z 12060cd0 f   ReaderMgr.obj
 0001:0005fd40       ?getLastExtEntityInfo@ReaderMgr@xercesc_3_1@@QBEXAAULastExtEntityInfo@12@@Z 12060d40 f   ReaderMgr.obj
 0001:0005fdd0       ?getLineNumber@ReaderMgr@xercesc_3_1@@UBE_KXZ 12060dd0 f   ReaderMgr.obj
 0001:0005fe10       ?getNextChar@ReaderMgr@xercesc_3_1@@QAEGXZ 12060e10 f   ReaderMgr.obj
 0001:0005fe50       ?getPublicId@ReaderMgr@xercesc_3_1@@UBEPBGXZ 12060e50 f   ReaderMgr.obj
 0001:0005fe80       ?getReaderDepth@ReaderMgr@xercesc_3_1@@QBEKXZ 12060e80 f   ReaderMgr.obj
 0001:0005fea0       ?getSpaces@ReaderMgr@xercesc_3_1@@QAEXAAVXMLBuffer@2@@Z 12060ea0 f   ReaderMgr.obj
 0001:00060140       ?getSystemId@ReaderMgr@xercesc_3_1@@UBEPBGXZ 12061140 f   ReaderMgr.obj
 0001:00060170       ?getUpToCharOrWS@ReaderMgr@xercesc_3_1@@QAEXAAVXMLBuffer@2@G@Z 12061170 f   ReaderMgr.obj
 0001:00060410       ?isEmpty@ReaderMgr@xercesc_3_1@@QBE_NXZ 12061410 f   ReaderMgr.obj
 0001:00060420       ?isScanningPERefOutOfLiteral@ReaderMgr@xercesc_3_1@@QBE_NXZ 12061420 f   ReaderMgr.obj
 0001:00060450       ?peekNextChar@ReaderMgr@xercesc_3_1@@QAEGXZ 12061450 f   ReaderMgr.obj
 0001:00060490       ?popReader@ReaderMgr@xercesc_3_1@@AAE_NXZ 12061490 f   ReaderMgr.obj
 0001:00060660       ?pushReader@ReaderMgr@xercesc_3_1@@QAE_NQAVXMLReader@2@QAVXMLEntityDecl@2@@Z 12061660 f   ReaderMgr.obj
 0001:00060880       ?removeAllElements@?$BaseRefVectorOf@VXMLReader@xercesc_3_1@@@xercesc_3_1@@UAEXXZ 12061880 f i ReaderMgr.obj
 0001:000608e0       ?removeElementAt@?$BaseRefVectorOf@VXMLReader@xercesc_3_1@@@xercesc_3_1@@UAEXK@Z 120618e0 f i ReaderMgr.obj
 0001:000609d0       ?removeLastElement@?$BaseRefVectorOf@VXMLReader@xercesc_3_1@@@xercesc_3_1@@UAEXXZ 120619d0 f i ReaderMgr.obj
 0001:00060a00       ?reset@ReaderMgr@xercesc_3_1@@QAEXXZ 12061a00 f   ReaderMgr.obj
 0001:00060a50       ?setElementAt@?$BaseRefVectorOf@VXMLReader@xercesc_3_1@@@xercesc_3_1@@UAEXQAVXMLReader@2@K@Z 12061a50 f i ReaderMgr.obj
 0001:00060b00       ?skipIfQuote@ReaderMgr@xercesc_3_1@@QAE_NAAG@Z 12061b00 f   ReaderMgr.obj
 0001:00060dc0       ?skipPastSpaces@ReaderMgr@xercesc_3_1@@QAEXAA_N_N@Z 12061dc0 f   ReaderMgr.obj
 0001:00061060       ?skipPastSpaces@ReaderMgr@xercesc_3_1@@QAEXXZ 12062060 f   ReaderMgr.obj
 0001:000612f0       ?skipQuotedString@ReaderMgr@xercesc_3_1@@QAEXG@Z 120622f0 f   ReaderMgr.obj
 0001:000613a0       ?skipUntilIn@ReaderMgr@xercesc_3_1@@QAEGQBG@Z 120623a0 f   ReaderMgr.obj
 0001:00061540       ?skipUntilInOrWS@ReaderMgr@xercesc_3_1@@QAEGQBG@Z 12062540 f   ReaderMgr.obj
 0001:000616f0       ?skippedChar@ReaderMgr@xercesc_3_1@@QAE_NG@Z 120626f0 f   ReaderMgr.obj
 0001:000619b0       ?skippedSpace@ReaderMgr@xercesc_3_1@@QAE_NXZ 120629b0 f   ReaderMgr.obj
 0001:00061c60       ??0SGXMLScanner@xercesc_3_1@@QAE@QAVXMLDocumentHandler@1@QAVDocTypeHandler@1@QAVXMLEntityHandler@1@QAVXMLErrorReporter@1@QAVXMLValidator@1@QAVGrammarResolver@1@QAVMemoryManager@1@@Z 12062c60 f   SGXMLScanner.obj
 0001:00061e10       ??0SGXMLScanner@xercesc_3_1@@QAE@QAVXMLValidator@1@QAVGrammarResolver@1@QAVMemoryManager@1@@Z 12062e10 f   SGXMLScanner.obj
 0001:00061fc0       ??1SGXMLScanner@xercesc_3_1@@UAE@XZ 12062fc0 f   SGXMLScanner.obj
 0001:00062030       ??_ESGXMLScanner@xercesc_3_1@@UAEPAXI@Z 12063030 f i SGXMLScanner.obj
 0001:00062100       ?basicAttrValueScan@SGXMLScanner@xercesc_3_1@@AAE_NQBGAAVXMLBuffer@2@@Z 12063100 f   SGXMLScanner.obj
 0001:00062350       ?buildAttList@SGXMLScanner@xercesc_3_1@@IAEKABV?$RefVectorOf@VKVStringPair@xercesc_3_1@@@2@KPAVXMLElementDecl@2@AAV?$RefVectorOf@VXMLAttr@xercesc_3_1@@@2@@Z 12063350 f   SGXMLScanner.obj
 0001:00063530       ?cleanUp@SGXMLScanner@xercesc_3_1@@AAEXXZ 12064530 f   SGXMLScanner.obj
 0001:00063730       ?commonInit@SGXMLScanner@xercesc_3_1@@AAEXXZ 12064730 f   SGXMLScanner.obj
 0001:00063cd0       ?endElementPSVI@SGXMLScanner@xercesc_3_1@@AAEXQAVSchemaElementDecl@2@QAVDatatypeValidator@2@@Z 12064cd0 f   SGXMLScanner.obj
 0001:00063e90       ?getName@SGXMLScanner@xercesc_3_1@@UBEPBGXZ 12064e90 f i SGXMLScanner.obj
 0001:00063ea0       ?laxElementValidation@SGXMLScanner@xercesc_3_1@@IAE_NPAVQName@2@PAVContentLeafNameTypeVector@2@QBVXMLContentModel@2@K@Z 12064ea0 f   SGXMLScanner.obj
 0001:00064090       ?loadGrammar@SGXMLScanner@xercesc_3_1@@UAEPAVGrammar@2@ABVInputSource@2@F_N@Z 12065090 f   SGXMLScanner.obj
 0001:00064220       ?loadXMLSchemaGrammar@SGXMLScanner@xercesc_3_1@@AAEPAVGrammar@2@ABVInputSource@2@_N@Z 12065220 f   SGXMLScanner.obj
 0001:00064570       ?normalizeAttValue@SGXMLScanner@xercesc_3_1@@AAE_NQBVXMLAttDef@2@QBG1AAVXMLBuffer@2@@Z 12065570 f   SGXMLScanner.obj
 0001:000647d0       ?parseSchemaLocation@SGXMLScanner@xercesc_3_1@@AAEXQBG_N@Z 120657d0 f   SGXMLScanner.obj
 0001:00064990       ?put@?$ValueHashTableOf@GUStringHasher@xercesc_3_1@@@xercesc_3_1@@QAEXPAXABG@Z 12065990 f i SGXMLScanner.obj
 0001:00064a60       ?rawAttrScan@SGXMLScanner@xercesc_3_1@@IAEKQBGAAV?$RefVectorOf@VKVStringPair@xercesc_3_1@@@2@AA_N@Z 12065a60 f   SGXMLScanner.obj
 0001:00064e40       ?rehash@?$ValueHashTableOf@GUStringHasher@xercesc_3_1@@@xercesc_3_1@@AAEXXZ 12065e40 f i SGXMLScanner.obj
 0001:00064e40       ?rehash@?$ValueHashTableOf@_NUStringHasher@xercesc_3_1@@@xercesc_3_1@@AAEXXZ 12065e40 f i EncodingValidator.obj
 0001:00064e40       ?rehash@?$ValueHashTableOf@W4DataType@XSValue@xercesc_3_1@@UStringHasher@3@@xercesc_3_1@@AAEXXZ 12065e40 f i XSValue.obj
 0001:00064e40       ?rehash@?$ValueHashTableOf@IUStringHasher@xercesc_3_1@@@xercesc_3_1@@AAEXXZ 12065e40 f i DOMLSParserImpl.obj
 0001:00064f70       ?removeAll@?$ValueHashTableOf@_NUPtrHasher@xercesc_3_1@@@xercesc_3_1@@QAEXXZ 12065f70 f i DOMLSParserImpl.obj
 0001:00064f70       ?removeAll@?$ValueHashTableOf@GUStringHasher@xercesc_3_1@@@xercesc_3_1@@QAEXXZ 12065f70 f i SGXMLScanner.obj
 0001:00064f70       ?removeAll@?$ValueHashTableOf@IUStringHasher@xercesc_3_1@@@xercesc_3_1@@QAEXXZ 12065f70 f i DOMLSParserImpl.obj
 0001:00064f70       ?removeAll@?$ValueHashTableOf@_NUStringHasher@xercesc_3_1@@@xercesc_3_1@@QAEXXZ 12065f70 f i EncodingValidator.obj
 0001:00064f70       ?removeAll@?$ValueHashTableOf@W4FilterAction@DOMLSParserFilter@xercesc_3_1@@UPtrHasher@3@@xercesc_3_1@@QAEXXZ 12065f70 f i DOMLSParserImpl.obj
 0001:00064f70       ?removeAll@?$ValueHashTableOf@W4DataType@XSValue@xercesc_3_1@@UStringHasher@3@@xercesc_3_1@@QAEXXZ 12065f70 f i XSValue.obj
 0001:00064fc0       ?resetCachedGrammar@SGXMLScanner@xercesc_3_1@@UAEXXZ 12065fc0 f   SGXMLScanner.obj
 0001:00064fd0       ?resetPSVIElemContext@SGXMLScanner@xercesc_3_1@@AAEXXZ 12065fd0 f   SGXMLScanner.obj
 0001:00065020       ?resizeRawAttrColonList@SGXMLScanner@xercesc_3_1@@IAEXXZ 12066020 f   SGXMLScanner.obj
 0001:00065090       ?resolveSchemaGrammar@SGXMLScanner@xercesc_3_1@@AAEXQBG0_N@Z 12066090 f   SGXMLScanner.obj
 0001:00065910       ?resolveSystemId@SGXMLScanner@xercesc_3_1@@EAEPAVInputSource@2@QBG0@Z 12066910 f   SGXMLScanner.obj
 0001:00065c90       ?scanCDSection@SGXMLScanner@xercesc_3_1@@EAEXXZ 12066c90 f   SGXMLScanner.obj
 0001:00066040       ?scanCharData@SGXMLScanner@xercesc_3_1@@EAEXAAVXMLBuffer@2@@Z 12067040 f   SGXMLScanner.obj
 0001:00066400       ?scanContent@SGXMLScanner@xercesc_3_1@@AAE_NXZ 12067400 f   SGXMLScanner.obj
 0001:000665d0       ?scanDocTypeDecl@SGXMLScanner@xercesc_3_1@@EAEXXZ 120675d0 f   SGXMLScanner.obj
 0001:00066620       ?scanDocument@SGXMLScanner@xercesc_3_1@@UAEXABVInputSource@2@@Z 12067620 f   SGXMLScanner.obj
 0001:000667b0       ?scanEndTag@SGXMLScanner@xercesc_3_1@@MAEXAA_N@Z 120677b0 f   SGXMLScanner.obj
 0001:00066c70       ?scanEntityRef@SGXMLScanner@xercesc_3_1@@EAE?AW4EntityExpRes@XMLScanner@2@_NAAG1AA_N@Z 12067c70 f   SGXMLScanner.obj
 0001:00066ee0       ?scanNext@SGXMLScanner@xercesc_3_1@@UAE_NAAVXMLPScanToken@2@@Z 12067ee0 f   SGXMLScanner.obj
 0001:000671d0       ?scanRawAttrListforNameSpaces@SGXMLScanner@xercesc_3_1@@AAEXK@Z 120681d0 f   SGXMLScanner.obj
 0001:000676c0       ?scanReset@SGXMLScanner@xercesc_3_1@@MAEXABVInputSource@2@@Z 120686c0 f   SGXMLScanner.obj
 0001:00067b50       ?scanStartTag@SGXMLScanner@xercesc_3_1@@MAE_NAA_N@Z 12068b50 f   SGXMLScanner.obj
 0001:00068940       ?sendCharData@SGXMLScanner@xercesc_3_1@@EAEXAAVXMLBuffer@2@@Z 12069940 f   SGXMLScanner.obj
 0001:00068bd0       ?switchGrammar@SGXMLScanner@xercesc_3_1@@AAE_NQBG@Z 12069bd0 f   SGXMLScanner.obj
 0001:00068cb0       ??0InvalidDatatypeValueException@xercesc_3_1@@QAE@ABV01@@Z 12069cb0 f i ValidationContextImpl.obj
 0001:00068d10       ??0InvalidDatatypeValueException@xercesc_3_1@@QAE@QBD_KW4Codes@XMLExcepts@1@0000PAVMemoryManager@1@@Z 12069d10 f i ValidationContextImpl.obj
 0001:00068d90       ??0InvalidDatatypeValueException@xercesc_3_1@@QAE@QBD_KW4Codes@XMLExcepts@1@PAVMemoryManager@1@@Z 12069d90 f i ValidationContextImpl.obj
 0001:00068e00       ??0InvalidDatatypeValueException@xercesc_3_1@@QAE@QBD_KW4Codes@XMLExcepts@1@QBG333PAVMemoryManager@1@@Z 12069e00 f i ValidationContextImpl.obj
 0001:00068e80       ??0ValidationContextImpl@xercesc_3_1@@QAE@QAVMemoryManager@1@@Z 12069e80 f   ValidationContextImpl.obj
 0001:00068f90       ??1InvalidDatatypeValueException@xercesc_3_1@@UAE@XZ 12069f90 f i ValidationContextImpl.obj
 0001:00068fe0       ??1ValidationContextImpl@xercesc_3_1@@UAE@XZ 12069fe0 f   ValidationContextImpl.obj
 0001:00069060       ??_EInvalidDatatypeValueException@xercesc_3_1@@UAEPAXI@Z 1206a060 f i ValidationContextImpl.obj
 0001:00069110       ??_EValidationContextImpl@xercesc_3_1@@UAEPAXI@Z 1206a110 f i ValidationContextImpl.obj
 0001:000691e0       ??_FValidationContextImpl@xercesc_3_1@@QAEXXZ 1206a1e0 f i ValidationContextImpl.obj
 0001:000691f0       ?addId@ValidationContextImpl@xercesc_3_1@@UAEXQBG@Z 1206a1f0 f   ValidationContextImpl.obj
 0001:00069300       ?addIdRef@ValidationContextImpl@xercesc_3_1@@UAEXQBG@Z 1206a300 f   ValidationContextImpl.obj
 0001:000693b0       ?checkEntity@ValidationContextImpl@xercesc_3_1@@UBEXQBG@Z 1206a3b0 f   ValidationContextImpl.obj
 0001:00069490       ?clearIdRefList@ValidationContextImpl@xercesc_3_1@@UAEXXZ 1206a490 f   ValidationContextImpl.obj
 0001:000694a0       ?duplicate@InvalidDatatypeValueException@xercesc_3_1@@UBEPAVXMLException@2@XZ 1206a4a0 f i ValidationContextImpl.obj
 0001:00069540       ?getType@InvalidDatatypeValueException@xercesc_3_1@@UBEPBGXZ 1206a540 f i ValidationContextImpl.obj
 0001:00069550       ?getURIForPrefix@ValidationContextImpl@xercesc_3_1@@UAEPBGPAG@Z 1206a550 f   ValidationContextImpl.obj
 0001:000695c0       ?isPrefixUnknown@ValidationContextImpl@xercesc_3_1@@UAE_NPAG@Z 1206a5c0 f   ValidationContextImpl.obj
 0001:00069650       ?setEntityDeclPool@ValidationContextImpl@xercesc_3_1@@UAEPBV?$NameIdPool@VDTDEntityDecl@xercesc_3_1@@@2@QBV32@@Z 1206a650 f   ValidationContextImpl.obj
 0001:00069660       ?setIdRefList@ValidationContextImpl@xercesc_3_1@@UAEXQAV?$RefHashTableOf@VXMLRefInfo@xercesc_3_1@@UStringHasher@2@@2@@Z 1206a660 f   ValidationContextImpl.obj
 0001:000696a0       ?setElementId@ComplexTypeInfo@xercesc_3_1@@QAEXI@Z 1206a6a0 f i XMLElementDecl.obj
 0001:000696a0       ?setNamespaceScope@ValidationContextImpl@xercesc_3_1@@UAEXPAVNamespaceScope@2@@Z 1206a6a0 f i ValidationContextImpl.obj
 0001:000696a0       ?setGroupInfoRegistry@SchemaGrammar@xercesc_3_1@@QAEXQAV?$RefHashTableOf@VXercesGroupInfo@xercesc_3_1@@UStringHasher@2@@2@@Z 1206a6a0 f i XMLGrammarPoolImpl.obj
 0001:000696a0       ?setTypeDefinition@XSElementDeclaration@xercesc_3_1@@QAEXPAVXSTypeDefinition@2@@Z 1206a6a0 f i PSVIElement.obj
 0001:000696a0       ?setMinOccurs@ContentSpecNode@xercesc_3_1@@QAEXH@Z 1206a6a0 f i XMLGrammarPoolImpl.obj
 0001:000696a0       ?setEntityResolver@SAX2XMLFilterImpl@xercesc_3_1@@UAEXQAVEntityResolver@2@@Z 1206a6a0 f i SAX2XMLFilterImpl.obj
 0001:000696a0       ?setEnclosingScope@SchemaElementDecl@xercesc_3_1@@QAEXI@Z 1206a6a0 f i XMLElementDecl.obj
 0001:000696b0       ??0Attributes@xercesc_3_1@@QAE@XZ 1206a6b0 f i VecAttributesImpl.obj
 0001:000696c0       ??0VecAttributesImpl@xercesc_3_1@@QAE@XZ 1206a6c0 f   VecAttributesImpl.obj
 0001:00069730       ??1Attributes@xercesc_3_1@@UAE@XZ 1206a730 f i VecAttributesImpl.obj
 0001:00069740       ??1VecAttributesImpl@xercesc_3_1@@UAE@XZ 1206a740 f   VecAttributesImpl.obj
 0001:000697b0       ??_EAttributes@xercesc_3_1@@UAEPAXI@Z 1206a7b0 f i VecAttributesImpl.obj
 0001:00069810       ??_EVecAttributesImpl@xercesc_3_1@@UAEPAXI@Z 1206a810 f i VecAttributesImpl.obj
 0001:000698d0       ?getIndex@VecAttributesImpl@xercesc_3_1@@UBEHQBG0@Z 1206a8d0 f   VecAttributesImpl.obj
 0001:00069a60       ?getIndex@VecAttributesImpl@xercesc_3_1@@UBEHQBG@Z 1206aa60 f   VecAttributesImpl.obj
 0001:00069b80       ?getIndex@VecAttributesImpl@xercesc_3_1@@UBE_NQBG0AAK@Z 1206ab80 f   VecAttributesImpl.obj
 0001:00069d20       ?getIndex@VecAttributesImpl@xercesc_3_1@@UBE_NQBGAAK@Z 1206ad20 f   VecAttributesImpl.obj
 0001:00069e50       ?getLocalName@VecAttributesImpl@xercesc_3_1@@UBEPBGK@Z 1206ae50 f   VecAttributesImpl.obj
 0001:00069e80       ?getName@VecAttrListImpl@xercesc_3_1@@UBEPBGK@Z 1206ae80 f   VecAttrListImpl.obj
 0001:00069e80       ?getQName@VecAttributesImpl@xercesc_3_1@@UBEPBGK@Z 1206ae80 f   VecAttributesImpl.obj
 0001:00069eb0       ?getType@VecAttributesImpl@xercesc_3_1@@UBEPBGK@Z 1206aeb0 f   VecAttributesImpl.obj
 0001:00069eb0       ?getType@VecAttrListImpl@xercesc_3_1@@UBEPBGK@Z 1206aeb0 f   VecAttrListImpl.obj
 0001:00069ee0       ?getType@VecAttributesImpl@xercesc_3_1@@UBEPBGQBG0@Z 1206aee0 f   VecAttributesImpl.obj
 0001:00069f20       ?getType@VecAttributesImpl@xercesc_3_1@@UBEPBGQBG@Z 1206af20 f   VecAttributesImpl.obj
 0001:00069f60       ?getURI@VecAttributesImpl@xercesc_3_1@@UBEPBGK@Z 1206af60 f   VecAttributesImpl.obj
 0001:00069fa0       ?getValue@VecAttributesImpl@xercesc_3_1@@UBEPBGQBG0@Z 1206afa0 f   VecAttributesImpl.obj
 0001:00069fe0       ?getValue@VecAttributesImpl@xercesc_3_1@@UBEPBGQBG@Z 1206afe0 f   VecAttributesImpl.obj
 0001:0006a020       ?setVector@VecAttributesImpl@xercesc_3_1@@QAEXQBV?$RefVectorOf@VXMLAttr@xercesc_3_1@@@2@KQBVXMLScanner@2@_N@Z 1206b020 f   VecAttributesImpl.obj
 0001:0006a060       ??0AttributeList@xercesc_3_1@@QAE@XZ 1206b060 f i VecAttrListImpl.obj
 0001:0006a070       ??0VecAttrListImpl@xercesc_3_1@@QAE@XZ 1206b070 f   VecAttrListImpl.obj
 0001:0006a0e0       ??1AttributeList@xercesc_3_1@@UAE@XZ 1206b0e0 f i VecAttrListImpl.obj
 0001:0006a0f0       ??1VecAttrListImpl@xercesc_3_1@@UAE@XZ 1206b0f0 f   VecAttrListImpl.obj
 0001:0006a160       ??_EAttributeList@xercesc_3_1@@UAEPAXI@Z 1206b160 f i VecAttrListImpl.obj
 0001:0006a1c0       ??_EVecAttrListImpl@xercesc_3_1@@UAEPAXI@Z 1206b1c0 f i VecAttrListImpl.obj
 0001:0006a280       ?getType@VecAttrListImpl@xercesc_3_1@@UBEPBGQBG@Z 1206b280 f   VecAttrListImpl.obj
 0001:0006a3c0       ?getValue@VecAttributesImpl@xercesc_3_1@@UBEPBGK@Z 1206b3c0 f   VecAttributesImpl.obj
 0001:0006a3c0       ?getValue@VecAttrListImpl@xercesc_3_1@@UBEPBGK@Z 1206b3c0 f   VecAttrListImpl.obj
 0001:0006a3f0       ?getValue@VecAttrListImpl@xercesc_3_1@@UBEPBGQBD@Z 1206b3f0 f   VecAttrListImpl.obj
 0001:0006a550       ?getValue@VecAttrListImpl@xercesc_3_1@@UBEPBGQBG@Z 1206b550 f   VecAttrListImpl.obj
 0001:0006a680       ?setVector@VecAttrListImpl@xercesc_3_1@@QAEXQBV?$RefVectorOf@VXMLAttr@xercesc_3_1@@@2@K_N@Z 1206b680 f   VecAttrListImpl.obj
 0001:0006a6b0       ??0WFXMLScanner@xercesc_3_1@@QAE@QAVXMLDocumentHandler@1@QAVDocTypeHandler@1@QAVXMLEntityHandler@1@QAVXMLErrorReporter@1@QAVXMLValidator@1@QAVGrammarResolver@1@QAVMemoryManager@1@@Z 1206b6b0 f   WFXMLScanner.obj
 0001:0006a7b0       ??0WFXMLScanner@xercesc_3_1@@QAE@QAVXMLValidator@1@QAVGrammarResolver@1@QAVMemoryManager@1@@Z 1206b7b0 f   WFXMLScanner.obj
 0001:0006a8a0       ??1?$BaseRefVectorOf@VXMLElementDecl@xercesc_3_1@@@xercesc_3_1@@UAE@XZ 1206b8a0 f i WFXMLScanner.obj
 0001:0006a8b0       ??1?$RefVectorOf@VXMLElementDecl@xercesc_3_1@@@xercesc_3_1@@UAE@XZ 1206b8b0 f i WFXMLScanner.obj
 0001:0006a940       ??1WFXMLScanner@xercesc_3_1@@UAE@XZ 1206b940 f   WFXMLScanner.obj
 0001:0006a9a0       ??_EWFXMLScanner@xercesc_3_1@@UAEPAXI@Z 1206b9a0 f i WFXMLScanner.obj
 0001:0006aa60       ??_E?$BaseRefVectorOf@VXMLElementDecl@xercesc_3_1@@@xercesc_3_1@@UAEPAXI@Z 1206ba60 f i WFXMLScanner.obj
 0001:0006aa60       ??_G?$BaseRefVectorOf@VXMLElementDecl@xercesc_3_1@@@xercesc_3_1@@UAEPAXI@Z 1206ba60 f i WFXMLScanner.obj
 0001:0006aa90       ??_G?$RefVectorOf@VXMLElementDecl@xercesc_3_1@@@xercesc_3_1@@UAEPAXI@Z 1206ba90 f i WFXMLScanner.obj
 0001:0006aa90       ??_E?$RefVectorOf@VXMLElementDecl@xercesc_3_1@@@xercesc_3_1@@UAEPAXI@Z 1206ba90 f i WFXMLScanner.obj
 0001:0006aac0       ?cleanUp@WFXMLScanner@xercesc_3_1@@AAEXXZ 1206bac0 f   WFXMLScanner.obj
 0001:0006ab70       ?commonInit@WFXMLScanner@xercesc_3_1@@AAEXXZ 1206bb70 f   WFXMLScanner.obj
 0001:0006ae80       ?elementAt@?$ValueVectorOf@PAVIC_Field@xercesc_3_1@@@xercesc_3_1@@QAEAAPAVIC_Field@2@K@Z 1206be80 f i IGXMLScanner2.obj
 0001:0006ae80       ?elementAt@?$ValueVectorOf@PAVComplexTypeInfo@xercesc_3_1@@@xercesc_3_1@@QAEAAPAVComplexTypeInfo@2@K@Z 1206be80 f i SchemaValidator.obj
 0001:0006ae80       ?elementAt@?$ValueVectorOf@PAVQName@xercesc_3_1@@@xercesc_3_1@@QAEAAPAVQName@2@K@Z 1206be80 f i AllContentModel.obj
 0001:0006ae80       ?elementAt@?$ValueVectorOf@PAX@xercesc_3_1@@QAEAAPAXK@Z 1206be80 f i XSerializeEngine.obj
 0001:0006ae80       ?elementAt@?$ValueVectorOf@PAVDOMNode@xercesc_3_1@@@xercesc_3_1@@QAEAAPAVDOMNode@2@K@Z 1206be80 f i TraverseSchema.obj
 0001:0006ae80       ?elementAt@?$ValueVectorOf@PAVSchemaElementDecl@xercesc_3_1@@@xercesc_3_1@@QAEAAPAVSchemaElementDecl@2@K@Z 1206be80 f i XTemplateSerializer.obj
 0001:0006ae80       ?elementAt@?$ValueVectorOf@I@xercesc_3_1@@QAEAAIK@Z 1206be80 f i XSWildcard.obj
 0001:0006ae80       ?elementAt@?$ValueVectorOf@PAVContentSpecNode@xercesc_3_1@@@xercesc_3_1@@QAEAAPAVContentSpecNode@2@K@Z 1206be80 f i SchemaValidator.obj
 0001:0006ae80       ?elementAt@?$ValueVectorOf@PAVDatatypeValidator@xercesc_3_1@@@xercesc_3_1@@QAEAAPAVDatatypeValidator@2@K@Z 1206be80 f i IGXMLScanner2.obj
 0001:0006ae80       ?elementAt@?$ValueVectorOf@H@xercesc_3_1@@QAEAAHK@Z 1206be80 f i IGXMLScanner.obj
 0001:0006ae80       ?elementAt@?$ValueVectorOf@K@xercesc_3_1@@QAEAAKK@Z 1206be80 f i WFXMLScanner.obj
 0001:0006af10       ?getName@WFXMLScanner@xercesc_3_1@@UBEPBGXZ 1206bf10 f i WFXMLScanner.obj
 0001:0006af20       ?loadGrammar@WFXMLScanner@xercesc_3_1@@UAEPAVGrammar@2@ABVInputSource@2@F_N@Z 1206bf20 f   WFXMLScanner.obj
 0001:0006af30       ?scanAttValue@WFXMLScanner@xercesc_3_1@@AAE_NQBGAAVXMLBuffer@2@@Z 1206bf30 f   WFXMLScanner.obj
 0001:0006b1c0       ?scanCDSection@WFXMLScanner@xercesc_3_1@@EAEXXZ 1206c1c0 f   WFXMLScanner.obj
 0001:0006b400       ?scanCharData@WFXMLScanner@xercesc_3_1@@EAEXAAVXMLBuffer@2@@Z 1206c400 f   WFXMLScanner.obj
 0001:0006b750       ?scanContent@WFXMLScanner@xercesc_3_1@@AAE_NXZ 1206c750 f   WFXMLScanner.obj
 0001:0006b930       ?scanDocTypeDecl@WFXMLScanner@xercesc_3_1@@EAEXXZ 1206c930 f   WFXMLScanner.obj
 0001:0006b980       ?scanDocument@WFXMLScanner@xercesc_3_1@@UAEXABVInputSource@2@@Z 1206c980 f   WFXMLScanner.obj
 0001:0006bb00       ?scanEndTag@WFXMLScanner@xercesc_3_1@@AAEXAA_N@Z 1206cb00 f   WFXMLScanner.obj
 0001:0006bce0       ?scanEntityRef@WFXMLScanner@xercesc_3_1@@EAE?AW4EntityExpRes@XMLScanner@2@_NAAG1AA_N@Z 1206cce0 f   WFXMLScanner.obj
 0001:0006bf20       ?scanNext@WFXMLScanner@xercesc_3_1@@UAE_NAAVXMLPScanToken@2@@Z 1206cf20 f   WFXMLScanner.obj
 0001:0006c210       ?scanReset@WFXMLScanner@xercesc_3_1@@EAEXABVInputSource@2@@Z 1206d210 f   WFXMLScanner.obj
 0001:0006c3b0       ?scanStartTag@WFXMLScanner@xercesc_3_1@@AAE_NAA_N@Z 1206d3b0 f   WFXMLScanner.obj
 0001:0006c9c0       ?scanStartTagNS@WFXMLScanner@xercesc_3_1@@AAE_NAA_N@Z 1206d9c0 f   WFXMLScanner.obj
 0001:0006d4a0       ?sendCharData@WFXMLScanner@xercesc_3_1@@EAEXAAVXMLBuffer@2@@Z 1206e4a0 f   WFXMLScanner.obj
 0001:0006d4e0       ??0XMLReader@xercesc_3_1@@QAE@QBG0QAVBinInputStream@1@0W4RefFrom@01@W4Types@01@W4Sources@01@_N5KW4XMLVersion@01@QAVMemoryManager@1@@Z 1206e4e0 f   XMLReader.obj
 0001:0006d990       ??0XMLReader@xercesc_3_1@@QAE@QBG0QAVBinInputStream@1@W4Encodings@XMLRecognizer@1@W4RefFrom@01@W4Types@01@W4Sources@01@_N6KW4XMLVersion@01@QAVMemoryManager@1@@Z 1206e990 f   XMLReader.obj
 0001:0006dd20       ??0XMLReader@xercesc_3_1@@QAE@QBG0QAVBinInputStream@1@W4RefFrom@01@W4Types@01@W4Sources@01@_N5KW4XMLVersion@01@QAVMemoryManager@1@@Z 1206ed20 f   XMLReader.obj
 0001:0006df90       ??1XMLReader@xercesc_3_1@@QAE@XZ 1206ef90 f   XMLReader.obj
 0001:0006dff0       ?checkForSwapped@XMLReader@xercesc_3_1@@AAEXXZ 1206eff0 f   XMLReader.obj
 0001:0006e030       ?containsWhiteSpace@XMLReader@xercesc_3_1@@QBE_NQBGK@Z 1206f030 f   XMLReader.obj
 0001:0006e070       ?doInitDecode@XMLReader@xercesc_3_1@@AAEXXZ 1206f070 f   XMLReader.obj
 0001:0006e6c0       ?getNCName@XMLReader@xercesc_3_1@@QAE_NAAVXMLBuffer@2@@Z 1206f6c0 f   XMLReader.obj
 0001:0006e890       ?getName@XMLReader@xercesc_3_1@@QAE_NAAVXMLBuffer@2@_N@Z 1206f890 f   XMLReader.obj
 0001:0006ea20       ?getQName@XMLReader@xercesc_3_1@@QAE_NAAVXMLBuffer@2@PAH@Z 1206fa20 f   XMLReader.obj
 0001:0006eac0       ?getSpaces@XMLReader@xercesc_3_1@@QAE_NAAVXMLBuffer@2@@Z 1206fac0 f   XMLReader.obj
 0001:0006eb70       ?getSrcOffset@XMLReader@xercesc_3_1@@QBE_KXZ 1206fb70 f   XMLReader.obj
 0001:0006ec60       ?getUpToCharOrWS@XMLReader@xercesc_3_1@@QAE_NAAVXMLBuffer@2@G@Z 1206fc60 f   XMLReader.obj
 0001:0006ed10       ?handleEOL@XMLReader@xercesc_3_1@@AAEXAAG_N@Z 1206fd10 f   XMLReader.obj
 0001:0006eef0       ?isAllSpaces@XMLReader@xercesc_3_1@@QBE_NQBGK@Z 1206fef0 f   XMLReader.obj
 0001:0006ef30       ?isPublicIdChar@XMLReader@xercesc_3_1@@QBE_NG@Z 1206ff30 f   XMLReader.obj
 0001:0006ef60       ?peekString@XMLReader@xercesc_3_1@@QAE_NQBG@Z 1206ff60 f   XMLReader.obj
 0001:0006f020       ?refreshCharBuffer@XMLReader@xercesc_3_1@@QAE_NXZ 12070020 f   XMLReader.obj
 0001:0006f290       ?refreshRawBuffer@XMLReader@xercesc_3_1@@AAEXXZ 12070290 f   XMLReader.obj
 0001:0006f300       ?setEncoding@XMLReader@xercesc_3_1@@QAE_NQBG@Z 12070300 f   XMLReader.obj
 0001:0006f640       ?skipIfQuote@XMLReader@xercesc_3_1@@QAE_NAAG@Z 12070640 f   XMLReader.obj
 0001:0006f690       ?skipSpaces@XMLReader@xercesc_3_1@@QAE_NAA_N_N@Z 12070690 f   XMLReader.obj
 0001:0006f720       ?skippedChar@XMLReader@xercesc_3_1@@QAE_NG@Z 12070720 f   XMLReader.obj
 0001:0006f770       ?skippedSpace@XMLReader@xercesc_3_1@@QAE_NXZ 12070770 f   XMLReader.obj
 0001:0006f7f0       ?skippedString@XMLReader@xercesc_3_1@@QAE_NQBG@Z 120707f0 f   XMLReader.obj
 0001:0006f8c0       ?skippedStringLong@XMLReader@xercesc_3_1@@QAE_NPBG@Z 120708c0 f   XMLReader.obj
 0001:0006f9e0       ?xcodeMoreChars@XMLReader@xercesc_3_1@@AAEKQAGQAEK@Z 120709e0 f   XMLReader.obj
 0001:0006fad0       ??0?$RefHashTableOfEnumerator@VXMLRefInfo@xercesc_3_1@@UStringHasher@2@@xercesc_3_1@@QAE@QAV?$RefHashTableOf@VXMLRefInfo@xercesc_3_1@@UStringHasher@2@@1@_NQAVMemoryManager@1@@Z 12070ad0 f i XMLScanner.obj
 0001:0006fb90       ??0XMLScanner@xercesc_3_1@@QAE@QAVXMLDocumentHandler@1@QAVDocTypeHandler@1@QAVXMLEntityHandler@1@QAVXMLErrorReporter@1@QAVXMLValidator@1@QAVGrammarResolver@1@QAVMemoryManager@1@@Z 12070b90 f   XMLScanner.obj
 0001:0006ffe0       ??0XMLScanner@xercesc_3_1@@QAE@QAVXMLValidator@1@QAVGrammarResolver@1@QAVMemoryManager@1@@Z 12070fe0 f   XMLScanner.obj
 0001:00070440       ??1?$BaseRefVectorOf@VXMLAttr@xercesc_3_1@@@xercesc_3_1@@UAE@XZ 12071440 f i XMLScanner.obj
 0001:00070450       ??1?$RefHashTableOfEnumerator@VXMLRefInfo@xercesc_3_1@@UStringHasher@2@@xercesc_3_1@@UAE@XZ 12071450 f i XMLScanner.obj
 0001:000704e0       ??1?$RefVectorOf@VXMLAttr@xercesc_3_1@@@xercesc_3_1@@UAE@XZ 120714e0 f i XMLScanner.obj
 0001:00070570       ??1?$XMLEnumerator@VXMLRefInfo@xercesc_3_1@@@xercesc_3_1@@UAE@XZ 12071570 f i XMLScanner.obj
 0001:00070580       ??1XMLScanner@xercesc_3_1@@UAE@XZ 12071580 f   XMLScanner.obj
 0001:000706a0       ??_EXMLScanner@xercesc_3_1@@UAEPAXI@Z 120716a0 f i XMLScanner.obj
 0001:00070700       ??_G?$BaseRefVectorOf@VXMLAttr@xercesc_3_1@@@xercesc_3_1@@UAEPAXI@Z 12071700 f i XMLScanner.obj
 0001:00070700       ??_E?$BaseRefVectorOf@VXMLAttr@xercesc_3_1@@@xercesc_3_1@@UAEPAXI@Z 12071700 f i XMLScanner.obj
 0001:00070730       ??_E?$RefHashTableOfEnumerator@VXMLRefInfo@xercesc_3_1@@UStringHasher@2@@xercesc_3_1@@UAEPAXI@Z 12071730 f i XMLScanner.obj
 0001:00070730       ??_G?$RefHashTableOfEnumerator@VXMLRefInfo@xercesc_3_1@@UStringHasher@2@@xercesc_3_1@@UAEPAXI@Z 12071730 f i XMLScanner.obj
 0001:000707d0       ??_E?$RefVectorOf@VXMLAttr@xercesc_3_1@@@xercesc_3_1@@UAEPAXI@Z 120717d0 f i XMLScanner.obj
 0001:000707d0       ??_G?$RefVectorOf@VXMLAttr@xercesc_3_1@@@xercesc_3_1@@UAEPAXI@Z 120717d0 f i XMLScanner.obj
 0001:00070800       ??_E?$XMLEnumerator@VXMLRefInfo@xercesc_3_1@@@xercesc_3_1@@UAEPAXI@Z 12071800 f i XMLScanner.obj
 0001:00070800       ??_G?$XMLEnumerator@VXMLRefInfo@xercesc_3_1@@@xercesc_3_1@@UAEPAXI@Z 12071800 f i XMLScanner.obj
 0001:00070830       ?checkIDRefs@XMLScanner@xercesc_3_1@@IAEXXZ 12071830 f   XMLScanner.obj
 0001:000709d0       ?checkInternalDTD@XMLScanner@xercesc_3_1@@IAEX_NQBG1@Z 120719d0 f   XMLScanner.obj
 0001:00070af0       ?checkXMLDecl@XMLScanner@xercesc_3_1@@QAE_N_N@Z 12071af0 f   XMLScanner.obj
 0001:00070c90       ?cleanUp@XMLScanner@xercesc_3_1@@AAEXXZ 12071c90 f   XMLScanner.obj
 0001:00070d40       ?cleanup@?$BaseRefVectorOf@VXMLAttr@xercesc_3_1@@@xercesc_3_1@@UAEXXZ 12071d40 f i XMLScanner.obj
 0001:00070d90       ?commonInit@XMLScanner@xercesc_3_1@@AAEXXZ 12071d90 f   XMLScanner.obj
 0001:00070fa0       ?emitError@XMLScanner@xercesc_3_1@@QAEXW4Codes@XMLErrs@2@@Z 12071fa0 f   XMLScanner.obj
 0001:000710b0       ?emitError@XMLScanner@xercesc_3_1@@QAEXW4Codes@XMLErrs@2@QBD111@Z 120720b0 f   XMLScanner.obj
 0001:000711f0       ?emitError@XMLScanner@xercesc_3_1@@QAEXW4Codes@XMLErrs@2@QBG111@Z 120721f0 f   XMLScanner.obj
 0001:00071330       ?emitError@XMLScanner@xercesc_3_1@@QAEXW4Codes@XMLErrs@2@W43XMLExcepts@2@QBG222@Z 12072330 f   XMLScanner.obj
 0001:00071470       ?emitErrorWillThrowException@XMLScanner@xercesc_3_1@@QAE_NW4Codes@XMLErrs@2@@Z 12072470 f   XMLScanner.obj
 0001:000714a0       ?getNewUIntPtr@XMLScanner@xercesc_3_1@@IAEPAIXZ 120724a0 f   XMLScanner.obj
 0001:00071580       ?getQuotedString@XMLScanner@xercesc_3_1@@AAE_NAAVXMLBuffer@2@@Z 12072580 f   XMLScanner.obj
 0001:00071610       ?getURIText@XMLScanner@xercesc_3_1@@QBEPBGI@Z 12072610 f   XMLScanner.obj
 0001:00071660       ?getURIText@XMLScanner@xercesc_3_1@@QBE_NIAAVXMLBuffer@2@@Z 12072660 f   XMLScanner.obj
 0001:000716b0       ?hasMoreElements@?$RefHashTableOfEnumerator@GUStringHasher@xercesc_3_1@@@xercesc_3_1@@UBE_NXZ 120726b0 f i DOMNormalizer.obj
 0001:000716b0       ?hasMoreElements@?$RefHashTableOfEnumerator@VXercesAttGroupInfo@xercesc_3_1@@UStringHasher@2@@xercesc_3_1@@UBE_NXZ 120726b0 f i XSModel.obj
 0001:000716b0       ?hasMoreElements@?$RefHashTableOfEnumerator@VKVStringPair@xercesc_3_1@@UStringHasher@2@@xercesc_3_1@@UBE_NXZ 120726b0 f i XSObjectFactory.obj
 0001:000716b0       ?hasMoreElements@?$RefHash2KeysTableOfEnumerator@VSchemaInfo@xercesc_3_1@@UStringHasher@2@@xercesc_3_1@@UBE_NXZ 120726b0 f i IGXMLScanner2.obj
 0001:000716b0       ?hasMoreElements@?$RefHashTableOfEnumerator@VFieldValueMap@xercesc_3_1@@UICValueHasher@2@@xercesc_3_1@@UBE_NXZ 120726b0 f i ValueStore.obj
 0001:000716b0       ?hasMoreElements@?$RefHash2KeysTableOfEnumerator@VSchemaAttDef@xercesc_3_1@@UStringHasher@2@@xercesc_3_1@@UBE_NXZ 120726b0 f i XMLElementDecl.obj
 0001:000716b0       ?hasMoreElements@?$RefHashTableOfEnumerator@VDTDAttDef@xercesc_3_1@@UStringHasher@2@@xercesc_3_1@@UBE_NXZ 120726b0 f i XTemplateSerializer.obj
 0001:000716b0       ?hasMoreElements@?$RefHash2KeysTableOfEnumerator@V?$KeyRefPair@XVDOMUserDataHandler@xercesc_3_1@@@xercesc_3_1@@UPtrHasher@2@@xercesc_3_1@@UBE_NXZ 120726b0 f i DOMDocumentImpl.obj
 0001:000716b0       ?hasMoreElements@?$RefHashTableOfEnumerator@VDatatypeValidator@xercesc_3_1@@UStringHasher@2@@xercesc_3_1@@UBE_NXZ 120726b0 f i XSModel.obj
 0001:000716b0       ?hasMoreElements@?$RefHashTableOfEnumerator@VValueStore@xercesc_3_1@@UPtrHasher@2@@xercesc_3_1@@UBE_NXZ 120726b0 f i ValueStoreCache.obj
 0001:000716b0       ?hasMoreElements@?$RefHashTableOfEnumerator@VXMLAttDef@xercesc_3_1@@UStringHasher@2@@xercesc_3_1@@UBE_NXZ 120726b0 f i XSModel.obj
 0001:000716b0       ?hasMoreElements@?$RefHashTableOfEnumerator@VXMLRefInfo@xercesc_3_1@@UStringHasher@2@@xercesc_3_1@@UBE_NXZ 120726b0 f i XMLScanner.obj
 0001:000716b0       ?hasMoreElements@?$RefHashTableOfEnumerator@VGrammar@xercesc_3_1@@UStringHasher@2@@xercesc_3_1@@UBE_NXZ 120726b0 f i XMLGrammarPoolImpl.obj
 0001:000716b0       ?hasMoreElements@?$RefHashTableOfEnumerator@VXSAnnotation@xercesc_3_1@@UPtrHasher@2@@xercesc_3_1@@UBE_NXZ 120726b0 f i XTemplateSerializer.obj
 0001:000716b0       ?hasMoreElements@?$RefHashTableOfEnumerator@VComplexTypeInfo@xercesc_3_1@@UStringHasher@2@@xercesc_3_1@@UBE_NXZ 120726b0 f i XSModel.obj
 0001:000716b0       ?hasMoreElements@?$RefHashTableOfEnumerator@VXercesGroupInfo@xercesc_3_1@@UStringHasher@2@@xercesc_3_1@@UBE_NXZ 120726b0 f i XSModel.obj
 0001:000716b0       ?hasMoreElements@?$RefHash2KeysTableOfEnumerator@V?$ValueVectorOf@PAVSchemaElementDecl@xercesc_3_1@@@xercesc_3_1@@UStringHasher@2@@xercesc_3_1@@UBE_NXZ 120726b0 f i XTemplateSerializer.obj
 0001:000716d0       ?initValidator@XMLScanner@xercesc_3_1@@IAEXPAVXMLValidator@2@@Z 120726d0 f   XMLScanner.obj
 0001:00071700       ?initializeXMLScanner@XMLInitializer@xercesc_3_1@@CAXXZ 12072700 f   XMLScanner.obj
 0001:000717b0       ?isLegalToken@XMLScanner@xercesc_3_1@@IAE_NABVXMLPScanToken@2@@Z 120727b0 f   XMLScanner.obj
 0001:000717e0       ?loadGrammar@XMLScanner@xercesc_3_1@@QAEPAVGrammar@2@QBDF_N@Z 120727e0 f   XMLScanner.obj
 0001:00071890       ?loadGrammar@XMLScanner@xercesc_3_1@@QAEPAVGrammar@2@QBGF_N@Z 12072890 f   XMLScanner.obj
 0001:00071b70       ?recreateUIntPool@XMLScanner@xercesc_3_1@@IAEXXZ 12072b70 f   XMLScanner.obj
 0001:00071c10       ?removeAllElements@?$BaseRefVectorOf@VXMLAttr@xercesc_3_1@@@xercesc_3_1@@UAEXXZ 12072c10 f i XMLScanner.obj
 0001:00071c70       ?removeElementAt@?$BaseRefVectorOf@VXMLAttr@xercesc_3_1@@@xercesc_3_1@@UAEXK@Z 12072c70 f i XMLScanner.obj
 0001:00071d60       ?removeLastElement@?$BaseRefVectorOf@VXMLAttr@xercesc_3_1@@@xercesc_3_1@@UAEXXZ 12072d60 f i XMLScanner.obj
 0001:00071d90       ?resetUIntPool@XMLScanner@xercesc_3_1@@IAEXXZ 12072d90 f   XMLScanner.obj
 0001:00071dc0       ?resolvePrefix@XMLScanner@xercesc_3_1@@IAEIQBGW4MapModes@ElemStack@2@@Z 12072dc0 f   XMLScanner.obj
 0001:00071e90       ?resolveQName@XMLScanner@xercesc_3_1@@QAEIQBGAAVXMLBuffer@2@W4MapModes@ElemStack@2@AAH@Z 12072e90 f   XMLScanner.obj
 0001:00071f00       ?resolveQNameWithColon@XMLScanner@xercesc_3_1@@IAEIQBGAAVXMLBuffer@2@W4MapModes@ElemStack@2@H@Z 12072f00 f   XMLScanner.obj
 0001:00071f60       ?scanCharRef@XMLScanner@xercesc_3_1@@IAE_NAAG0@Z 12072f60 f   XMLScanner.obj
 0001:000721a0       ?scanComment@XMLScanner@xercesc_3_1@@IAEXXZ 120731a0 f   XMLScanner.obj
 0001:00072450       ?scanDocument@XMLScanner@xercesc_3_1@@QAEXQBD@Z 12073450 f   XMLScanner.obj
 0001:000724f0       ?scanDocument@XMLScanner@xercesc_3_1@@QAEXQBG@Z 120734f0 f   XMLScanner.obj
 0001:00072780       ?scanEq@XMLScanner@xercesc_3_1@@IAE_N_N@Z 12073780 f   XMLScanner.obj
 0001:000727f0       ?scanFirst@XMLScanner@xercesc_3_1@@QAE_NABVInputSource@2@AAVXMLPScanToken@2@@Z 120737f0 f   XMLScanner.obj
 0001:00072960       ?scanFirst@XMLScanner@xercesc_3_1@@QAE_NQBDAAVXMLPScanToken@2@@Z 12073960 f   XMLScanner.obj
 0001:00072a10       ?scanFirst@XMLScanner@xercesc_3_1@@QAE_NQBGAAVXMLPScanToken@2@@Z 12073a10 f   XMLScanner.obj
 0001:00072c90       ?scanMiscellaneous@XMLScanner@xercesc_3_1@@IAEXXZ 12073c90 f   XMLScanner.obj
 0001:00072e20       ?scanPI@XMLScanner@xercesc_3_1@@IAEXXZ 12073e20 f   XMLScanner.obj
 0001:000731a0       ?scanProlog@XMLScanner@xercesc_3_1@@IAEXXZ 120741a0 f   XMLScanner.obj
 0001:00073400       ?scanReset@XMLScanner@xercesc_3_1@@QAEXAAVXMLPScanToken@2@@Z 12074400 f   XMLScanner.obj
 0001:000734b0       ?scanUpToWSOr@XMLScanner@xercesc_3_1@@AAEKAAVXMLBuffer@2@G@Z 120744b0 f   XMLScanner.obj
 0001:000734d0       ?scanXMLDecl@XMLScanner@xercesc_3_1@@IAEXW4DeclTypes@12@@Z 120744d0 f   XMLScanner.obj
 0001:00073be0       ?senseNextToken@XMLScanner@xercesc_3_1@@IAE?AW4XMLTokens@12@AAK@Z 12074be0 f   XMLScanner.obj
 0001:00073da0       ?setElementAt@?$BaseRefVectorOf@VXMLAttr@xercesc_3_1@@@xercesc_3_1@@UAEXQAVXMLAttr@2@K@Z 12074da0 f i XMLScanner.obj
 0001:00073e50       ?setParseSettings@XMLScanner@xercesc_3_1@@QAEXQAV12@@Z 12074e50 f   XMLScanner.obj
 0001:00073f40       ?setURIStringPool@XMLScanner@xercesc_3_1@@QAEXQAVXMLStringPool@2@@Z 12074f40 f   XMLScanner.obj
 0001:00073fa0       ?setValidator@XMLScanner@xercesc_3_1@@QAEXQAVXMLValidator@2@@Z 12074fa0 f   XMLScanner.obj
 0001:00073ff0       ?terminateXMLScanner@XMLInitializer@xercesc_3_1@@CAXXZ 12074ff0 f   XMLScanner.obj
 0001:00074040       ?getDefaultScanner@XMLScannerResolver@xercesc_3_1@@SAPAVXMLScanner@2@QAVXMLValidator@2@QAVGrammarResolver@2@QAVMemoryManager@2@@Z 12075040 f   XMLScannerResolver.obj
 0001:000740c0       ?resolveScanner@XMLScannerResolver@xercesc_3_1@@SAPAVXMLScanner@2@QBGQAVXMLDocumentHandler@2@QAVDocTypeHandler@2@QAVXMLEntityHandler@2@QAVXMLErrorReporter@2@QAVXMLValidator@2@QAVGrammarResolver@2@QAVMemoryManager@2@@Z 120750c0 f   XMLScannerResolver.obj
 0001:00074270       ?resolveScanner@XMLScannerResolver@xercesc_3_1@@SAPAVXMLScanner@2@QBGQAVXMLValidator@2@QAVGrammarResolver@2@QAVMemoryManager@2@@Z 12075270 f   XMLScannerResolver.obj
 0001:000743f0       ?load@XProtoType@xercesc_3_1@@SAXAAVXSerializeEngine@2@QAEQAVMemoryManager@2@@Z 120753f0 f   XProtoType.obj
 0001:00074620       ?store@XProtoType@xercesc_3_1@@QBEXAAVXSerializeEngine@2@@Z 12075620 f   XProtoType.obj
 0001:00074650       ??0XSAXMLScanner@xercesc_3_1@@IAE@QAVGrammarResolver@1@QAVXMLStringPool@1@QAVSchemaGrammar@1@QAVMemoryManager@1@@Z 12075650 f   XSAXMLScanner.obj
 0001:000746d0       ??1XSAXMLScanner@xercesc_3_1@@UAE@XZ 120756d0 f   XSAXMLScanner.obj
 0001:00074720       ??_EXSAXMLScanner@xercesc_3_1@@UAEPAXI@Z 12075720 f i XSAXMLScanner.obj
 0001:000747d0       ?getName@XSAXMLScanner@xercesc_3_1@@UBEPBGXZ 120757d0 f i XSAXMLScanner.obj
 0001:000747e0       ?scanEndTag@XSAXMLScanner@xercesc_3_1@@MAEXAA_N@Z 120757e0 f   XSAXMLScanner.obj
 0001:00074aa0       ?scanRawAttrListforNameSpaces@XSAXMLScanner@xercesc_3_1@@AAEXK@Z 12075aa0 f   XSAXMLScanner.obj
 0001:00074f10       ?scanReset@XSAXMLScanner@xercesc_3_1@@MAEXABVInputSource@2@@Z 12075f10 f   XSAXMLScanner.obj
 0001:000751a0       ?scanStartTag@XSAXMLScanner@xercesc_3_1@@MAE_NAA_N@Z 120761a0 f   XSAXMLScanner.obj
 0001:00075880       ?switchGrammar@XSAXMLScanner@xercesc_3_1@@AAEXQBG_N@Z 12076880 f   XSAXMLScanner.obj
 0001:00075910       ??0XSerializeEngine@xercesc_3_1@@QAE@PAVBinInputStream@1@QAVXMLGrammarPool@1@K@Z 12076910 f   XSerializeEngine.obj
 0001:00075a20       ??0XSerializeEngine@xercesc_3_1@@QAE@PAVBinOutputStream@1@QAVXMLGrammarPool@1@K@Z 12076a20 f   XSerializeEngine.obj
 0001:00075b70       ??1XSerializeEngine@xercesc_3_1@@QAE@XZ 12076b70 f   XSerializeEngine.obj
 0001:00075c20       ??5XSerializeEngine@xercesc_3_1@@QAEAAV01@AAE@Z 12076c20 f   XSerializeEngine.obj
 0001:00075c20       ??5XSerializeEngine@xercesc_3_1@@QAEAAV01@AAD@Z 12076c20 f   XSerializeEngine.obj
 0001:00075c20       ??5XSerializeEngine@xercesc_3_1@@QAEAAV01@AA_N@Z 12076c20 f   XSerializeEngine.obj
 0001:00075c50       ??5XSerializeEngine@xercesc_3_1@@QAEAAV01@AAF@Z 12076c50 f   XSerializeEngine.obj
 0001:00075c50       ??5XSerializeEngine@xercesc_3_1@@QAEAAV01@AAG@Z 12076c50 f   XSerializeEngine.obj
 0001:00075ca0       ??5XSerializeEngine@xercesc_3_1@@QAEAAV01@AAK@Z 12076ca0 f   XSerializeEngine.obj
 0001:00075ca0       ??5XSerializeEngine@xercesc_3_1@@QAEAAV01@AAH@Z 12076ca0 f   XSerializeEngine.obj
 0001:00075ca0       ??5XSerializeEngine@xercesc_3_1@@QAEAAV01@AAJ@Z 12076ca0 f   XSerializeEngine.obj
 0001:00075ca0       ??5XSerializeEngine@xercesc_3_1@@QAEAAV01@AAM@Z 12076ca0 f   XSerializeEngine.obj
 0001:00075ca0       ??5XSerializeEngine@xercesc_3_1@@QAEAAV01@AAI@Z 12076ca0 f   XSerializeEngine.obj
 0001:00075cf0       ??5XSerializeEngine@xercesc_3_1@@QAEAAV01@AAN@Z 12076cf0 f   XSerializeEngine.obj
 0001:00075d50       ??6XSerializeEngine@xercesc_3_1@@QAEAAV01@D@Z 12076d50 f   XSerializeEngine.obj
 0001:00075d50       ??6XSerializeEngine@xercesc_3_1@@QAEAAV01@_N@Z 12076d50 f   XSerializeEngine.obj
 0001:00075d50       ??6XSerializeEngine@xercesc_3_1@@QAEAAV01@E@Z 12076d50 f   XSerializeEngine.obj
 0001:00075d70       ??6XSerializeEngine@xercesc_3_1@@QAEAAV01@G@Z 12076d70 f   XSerializeEngine.obj
 0001:00075d70       ??6XSerializeEngine@xercesc_3_1@@QAEAAV01@F@Z 12076d70 f   XSerializeEngine.obj
 0001:00075dc0       ??6XSerializeEngine@xercesc_3_1@@QAEAAV01@H@Z 12076dc0 f   XSerializeEngine.obj
 0001:00075dc0       ??6XSerializeEngine@xercesc_3_1@@QAEAAV01@K@Z 12076dc0 f   XSerializeEngine.obj
 0001:00075dc0       ??6XSerializeEngine@xercesc_3_1@@QAEAAV01@J@Z 12076dc0 f   XSerializeEngine.obj
 0001:00075dc0       ??6XSerializeEngine@xercesc_3_1@@QAEAAV01@I@Z 12076dc0 f   XSerializeEngine.obj
 0001:00075e10       ??6XSerializeEngine@xercesc_3_1@@QAEAAV01@M@Z 12076e10 f   XSerializeEngine.obj
 0001:00075e60       ??6XSerializeEngine@xercesc_3_1@@QAEAAV01@N@Z 12076e60 f   XSerializeEngine.obj
 0001:00075eb0       ?addLoadPool@XSerializeEngine@xercesc_3_1@@AAEXQAX@Z 12076eb0 f   XSerializeEngine.obj
 0001:00076000       ?addStorePool@XSerializeEngine@xercesc_3_1@@AAEXQAX@Z 12077000 f   XSerializeEngine.obj
 0001:00076080       ?alignAdjust@XSerializeEngine@xercesc_3_1@@ABEKK@Z 12077080 f i XSerializeEngine.obj
 0001:000760a0       ?alignBufCur@XSerializeEngine@xercesc_3_1@@AAEXK@Z 120770a0 f i XSerializeEngine.obj
 0001:000760d0       ?calBytesNeeded@XSerializeEngine@xercesc_3_1@@ABEKK@Z 120770d0 f i XSerializeEngine.obj
 0001:00076100       ?checkAndFillBuffer@XSerializeEngine@xercesc_3_1@@AAEXK@Z 12077100 f i XSerializeEngine.obj
 0001:00076200       ?checkAndFlushBuffer@XSerializeEngine@xercesc_3_1@@AAEXK@Z 12077200 f i XSerializeEngine.obj
 0001:00076300       ?ensureLoadBuffer@XSerializeEngine@xercesc_3_1@@ABEXXZ 12077300 f i XSerializeEngine.obj
 0001:00076430       ?ensurePointer@XSerializeEngine@xercesc_3_1@@ABEXQAX@Z 12077430 f i XSerializeEngine.obj
 0001:00076520       ?ensureStoreBuffer@XSerializeEngine@xercesc_3_1@@ABEXXZ 12077520 f i XSerializeEngine.obj
 0001:00076650       ?fillBuffer@XSerializeEngine@xercesc_3_1@@AAEXXZ 12077650 f   XSerializeEngine.obj
 0001:00076880       ?flush@XSerializeEngine@xercesc_3_1@@QAEXXZ 12077880 f   XSerializeEngine.obj
 0001:000768d0       ?flushBuffer@XSerializeEngine@xercesc_3_1@@AAEXXZ 120778d0 f   XSerializeEngine.obj
 0001:00076920       ?getMemoryManager@XSerializeEngine@xercesc_3_1@@QBEPAVMemoryManager@2@XZ 12077920 f   XSerializeEngine.obj
 0001:00076940       ?getStringPool@XSerializeEngine@xercesc_3_1@@QBEPAVXMLStringPool@2@XZ 12077940 f   XSerializeEngine.obj
 0001:00076950       ?lookupLoadPool@XSerializeEngine@xercesc_3_1@@ABEPAVXSerializable@2@I@Z 12077950 f   XSerializeEngine.obj
 0001:00076a80       ?lookupStorePool@XSerializeEngine@xercesc_3_1@@ABEIQAX@Z 12077a80 f   XSerializeEngine.obj
 0001:00076ac0       ?needToLoadObject@XSerializeEngine@xercesc_3_1@@QAE_NPAPAX@Z 12077ac0 f   XSerializeEngine.obj
 0001:00076b40       ?needToStoreObject@XSerializeEngine@xercesc_3_1@@QAE_NQAX@Z 12077b40 f   XSerializeEngine.obj
 0001:00076c10       ?pumpCount@XSerializeEngine@xercesc_3_1@@AAEXXZ 12077c10 f   XSerializeEngine.obj
 0001:00076d30       ?put@?$RefHashTableOf@VXSerializedObjectId@xercesc_3_1@@UPtrHasher@2@@xercesc_3_1@@QAEXPAXQAVXSerializedObjectId@2@@Z 12077d30 f i XSerializeEngine.obj
 0001:00076e30       ?read@XSerializeEngine@xercesc_3_1@@QAEPAVXSerializable@2@QAVXProtoType@2@@Z 12077e30 f   XSerializeEngine.obj
 0001:00076ec0       ?read@XSerializeEngine@xercesc_3_1@@QAEXQAEK@Z 12077ec0 f   XSerializeEngine.obj
 0001:00076f80       ?read@XSerializeEngine@xercesc_3_1@@QAEXQAGK@Z 12077f80 f   XSerializeEngine.obj
 0001:00076fa0       ?read@XSerializeEngine@xercesc_3_1@@QAE_NQAVXProtoType@2@PAI@Z 12077fa0 f   XSerializeEngine.obj
 0001:00077180       ?readSize@XSerializeEngine@xercesc_3_1@@QAEXAAK@Z 12078180 f   XSerializeEngine.obj
 0001:000771a0       ?readString@XSerializeEngine@xercesc_3_1@@QAEXAAPAEAAK1_N@Z 120781a0 f   XSerializeEngine.obj
 0001:00077270       ?readString@XSerializeEngine@xercesc_3_1@@QAEXAAPAGAAK1_N@Z 12078270 f   XSerializeEngine.obj
 0001:00077350       ?readUInt64@XSerializeEngine@xercesc_3_1@@QAEXAA_K@Z 12078350 f   XSerializeEngine.obj
 0001:00077350       ?readInt64@XSerializeEngine@xercesc_3_1@@QAEXAA_J@Z 12078350 f   XSerializeEngine.obj
 0001:00077380       ?registerObject@XSerializeEngine@xercesc_3_1@@QAEXQAX@Z 12078380 f   XSerializeEngine.obj
 0001:000773b0       ?resetBuffer@XSerializeEngine@xercesc_3_1@@AAEXXZ 120783b0 f i XSerializeEngine.obj
 0001:000773d0       ?write@XSerializeEngine@xercesc_3_1@@QAEXQAVXProtoType@2@@Z 120783d0 f   XSerializeEngine.obj
 0001:00077540       ?write@XSerializeEngine@xercesc_3_1@@QAEXQAVXSerializable@2@@Z 12078540 f   XSerializeEngine.obj
 0001:00077610       ?write@XSerializeEngine@xercesc_3_1@@QAEXQBEK@Z 12078610 f   XSerializeEngine.obj
 0001:00077780       ?write@XSerializeEngine@xercesc_3_1@@QAEXQBGK@Z 12078780 f   XSerializeEngine.obj
 0001:000777a0       ?writeSize@XSerializeEngine@xercesc_3_1@@QAEXK@Z 120787a0 f   XSerializeEngine.obj
 0001:000777c0       ?writeString@XSerializeEngine@xercesc_3_1@@QAEXQBEK_N@Z 120787c0 f   XSerializeEngine.obj
 0001:00077880       ?writeString@XSerializeEngine@xercesc_3_1@@QAEXQBGK_N@Z 12078880 f   XSerializeEngine.obj
 0001:00077950       ?writeUInt64@XSerializeEngine@xercesc_3_1@@QAEX_K@Z 12078950 f   XSerializeEngine.obj
 0001:00077950       ?writeInt64@XSerializeEngine@xercesc_3_1@@QAEX_J@Z 12078950 f   XSerializeEngine.obj
 0001:00077980       ??0?$RefHashTableOfEnumerator@VKVStringPair@xercesc_3_1@@UStringHasher@2@@xercesc_3_1@@QAE@QAV?$RefHashTableOf@VKVStringPair@xercesc_3_1@@UStringHasher@2@@1@_NQAVMemoryManager@1@@Z 12078980 f i XSObjectFactory.obj
 0001:00077a40       ??0?$XSNamedMap@VXSIDCDefinition@xercesc_3_1@@@xercesc_3_1@@QAE@KKPAVXMLStringPool@1@_NQAVMemoryManager@1@@Z 12078a40 f i XSObjectFactory.obj
 0001:00077b60       ??0XSObjectFactory@xercesc_3_1@@QAE@QAVMemoryManager@1@@Z 12078b60 f   XSObjectFactory.obj
 0001:00077cb0       ??1?$BaseRefVectorOf@VXSAttributeUse@xercesc_3_1@@@xercesc_3_1@@UAE@XZ 12078cb0 f i XSObjectFactory.obj
 0001:00077cc0       ??1?$BaseRefVectorOf@VXSFacet@xercesc_3_1@@@xercesc_3_1@@UAE@XZ 12078cc0 f i XSObjectFactory.obj
 0001:00077cd0       ??1?$BaseRefVectorOf@VXSIDCDefinition@xercesc_3_1@@@xercesc_3_1@@UAE@XZ 12078cd0 f i XSObjectFactory.obj
 0001:00077ce0       ??1?$BaseRefVectorOf@VXSMultiValueFacet@xercesc_3_1@@@xercesc_3_1@@UAE@XZ 12078ce0 f i XSObjectFactory.obj
 0001:00077cf0       ??1?$BaseRefVectorOf@VXSParticle@xercesc_3_1@@@xercesc_3_1@@UAE@XZ 12078cf0 f i XSObjectFactory.obj
 0001:00077d00       ??1?$BaseRefVectorOf@VXSSimpleTypeDefinition@xercesc_3_1@@@xercesc_3_1@@UAE@XZ 12078d00 f i XSObjectFactory.obj
 0001:00077d10       ??1?$RefHashTableOfEnumerator@VKVStringPair@xercesc_3_1@@UStringHasher@2@@xercesc_3_1@@UAE@XZ 12078d10 f i XSObjectFactory.obj
 0001:00077da0       ??1?$RefVectorOf@VXSAttributeUse@xercesc_3_1@@@xercesc_3_1@@UAE@XZ 12078da0 f i XSObjectFactory.obj
 0001:00077e30       ??1?$RefVectorOf@VXSFacet@xercesc_3_1@@@xercesc_3_1@@UAE@XZ 12078e30 f i XSObjectFactory.obj
 0001:00077ec0       ??1?$RefVectorOf@VXSIDCDefinition@xercesc_3_1@@@xercesc_3_1@@UAE@XZ 12078ec0 f i XSObjectFactory.obj
 0001:00077f50       ??1?$RefVectorOf@VXSMultiValueFacet@xercesc_3_1@@@xercesc_3_1@@UAE@XZ 12078f50 f i XSObjectFactory.obj
 0001:00077fe0       ??1?$RefVectorOf@VXSParticle@xercesc_3_1@@@xercesc_3_1@@UAE@XZ 12078fe0 f i XSObjectFactory.obj
 0001:00078070       ??1?$RefVectorOf@VXSSimpleTypeDefinition@xercesc_3_1@@@xercesc_3_1@@UAE@XZ 12079070 f i XSObjectFactory.obj
 0001:00078100       ??1?$XMLEnumerator@VKVStringPair@xercesc_3_1@@@xercesc_3_1@@UAE@XZ 12079100 f i XSObjectFactory.obj
 0001:00078110       ??1XSObjectFactory@xercesc_3_1@@QAE@XZ 12079110 f   XSObjectFactory.obj
 0001:00078150       ??_E?$BaseRefVectorOf@VXSAttributeUse@xercesc_3_1@@@xercesc_3_1@@UAEPAXI@Z 12079150 f i XSObjectFactory.obj
 0001:00078150       ??_G?$BaseRefVectorOf@VXSAttributeUse@xercesc_3_1@@@xercesc_3_1@@UAEPAXI@Z 12079150 f i XSObjectFactory.obj
 0001:00078180       ??_E?$BaseRefVectorOf@VXSFacet@xercesc_3_1@@@xercesc_3_1@@UAEPAXI@Z 12079180 f i XSObjectFactory.obj
 0001:00078180       ??_G?$BaseRefVectorOf@VXSFacet@xercesc_3_1@@@xercesc_3_1@@UAEPAXI@Z 12079180 f i XSObjectFactory.obj
 0001:000781b0       ??_E?$BaseRefVectorOf@VXSIDCDefinition@xercesc_3_1@@@xercesc_3_1@@UAEPAXI@Z 120791b0 f i XSObjectFactory.obj
 0001:000781b0       ??_G?$BaseRefVectorOf@VXSIDCDefinition@xercesc_3_1@@@xercesc_3_1@@UAEPAXI@Z 120791b0 f i XSObjectFactory.obj
 0001:000781e0       ??_G?$BaseRefVectorOf@VXSMultiValueFacet@xercesc_3_1@@@xercesc_3_1@@UAEPAXI@Z 120791e0 f i XSObjectFactory.obj
 0001:000781e0       ??_E?$BaseRefVectorOf@VXSMultiValueFacet@xercesc_3_1@@@xercesc_3_1@@UAEPAXI@Z 120791e0 f i XSObjectFactory.obj
 0001:00078210       ??_G?$BaseRefVectorOf@VXSParticle@xercesc_3_1@@@xercesc_3_1@@UAEPAXI@Z 12079210 f i XSObjectFactory.obj
 0001:00078210       ??_E?$BaseRefVectorOf@VXSParticle@xercesc_3_1@@@xercesc_3_1@@UAEPAXI@Z 12079210 f i XSObjectFactory.obj
 0001:00078240       ??_G?$BaseRefVectorOf@VXSSimpleTypeDefinition@xercesc_3_1@@@xercesc_3_1@@UAEPAXI@Z 12079240 f i XSObjectFactory.obj
 0001:00078240       ??_E?$BaseRefVectorOf@VXSSimpleTypeDefinition@xercesc_3_1@@@xercesc_3_1@@UAEPAXI@Z 12079240 f i XSObjectFactory.obj
 0001:00078270       ??_G?$RefHashTableOfEnumerator@VKVStringPair@xercesc_3_1@@UStringHasher@2@@xercesc_3_1@@UAEPAXI@Z 12079270 f i XSObjectFactory.obj
 0001:00078270       ??_E?$RefHashTableOfEnumerator@VKVStringPair@xercesc_3_1@@UStringHasher@2@@xercesc_3_1@@UAEPAXI@Z 12079270 f i XSObjectFactory.obj
 0001:00078310       ??_E?$RefVectorOf@VXSAttributeUse@xercesc_3_1@@@xercesc_3_1@@UAEPAXI@Z 12079310 f i XSObjectFactory.obj
 0001:00078310       ??_G?$RefVectorOf@VXSAttributeUse@xercesc_3_1@@@xercesc_3_1@@UAEPAXI@Z 12079310 f i XSObjectFactory.obj
 0001:00078340       ??_E?$RefVectorOf@VXSFacet@xercesc_3_1@@@xercesc_3_1@@UAEPAXI@Z 12079340 f i XSObjectFactory.obj
 0001:00078340       ??_G?$RefVectorOf@VXSFacet@xercesc_3_1@@@xercesc_3_1@@UAEPAXI@Z 12079340 f i XSObjectFactory.obj
 0001:00078370       ??_E?$RefVectorOf@VXSIDCDefinition@xercesc_3_1@@@xercesc_3_1@@UAEPAXI@Z 12079370 f i XSObjectFactory.obj
 0001:00078370       ??_G?$RefVectorOf@VXSIDCDefinition@xercesc_3_1@@@xercesc_3_1@@UAEPAXI@Z 12079370 f i XSObjectFactory.obj
 0001:000783a0       ??_E?$RefVectorOf@VXSMultiValueFacet@xercesc_3_1@@@xercesc_3_1@@UAEPAXI@Z 120793a0 f i XSObjectFactory.obj
 0001:000783a0       ??_G?$RefVectorOf@VXSMultiValueFacet@xercesc_3_1@@@xercesc_3_1@@UAEPAXI@Z 120793a0 f i XSObjectFactory.obj
 0001:000783d0       ??_E?$RefVectorOf@VXSParticle@xercesc_3_1@@@xercesc_3_1@@UAEPAXI@Z 120793d0 f i XSObjectFactory.obj
 0001:000783d0       ??_G?$RefVectorOf@VXSParticle@xercesc_3_1@@@xercesc_3_1@@UAEPAXI@Z 120793d0 f i XSObjectFactory.obj
 0001:00078400       ??_E?$RefVectorOf@VXSSimpleTypeDefinition@xercesc_3_1@@@xercesc_3_1@@UAEPAXI@Z 12079400 f i XSObjectFactory.obj
 0001:00078400       ??_G?$RefVectorOf@VXSSimpleTypeDefinition@xercesc_3_1@@@xercesc_3_1@@UAEPAXI@Z 12079400 f i XSObjectFactory.obj
 0001:00078430       ??_G?$XMLEnumerator@VKVStringPair@xercesc_3_1@@@xercesc_3_1@@UAEPAXI@Z 12079430 f i XSObjectFactory.obj
 0001:00078430       ??_E?$XMLEnumerator@VKVStringPair@xercesc_3_1@@@xercesc_3_1@@UAEPAXI@Z 12079430 f i XSObjectFactory.obj
 0001:00078460       ?addOrFind@XSObjectFactory@xercesc_3_1@@AAEPAVXSAttributeDeclaration@2@QAVSchemaAttDef@2@QAVXSModel@2@QAVXSComplexTypeDefinition@2@@Z 12079460 f   XSObjectFactory.obj
 0001:00078590       ?addOrFind@XSObjectFactory@xercesc_3_1@@AAEPAVXSComplexTypeDefinition@2@QAVComplexTypeInfo@2@QAVXSModel@2@@Z 12079590 f   XSObjectFactory.obj
 0001:00078990       ?addOrFind@XSObjectFactory@xercesc_3_1@@AAEPAVXSElementDeclaration@2@QAVSchemaElementDecl@2@QAVXSModel@2@QAVXSComplexTypeDefinition@2@@Z 12079990 f   XSObjectFactory.obj
 0001:00078c30       ?addOrFind@XSObjectFactory@xercesc_3_1@@AAEPAVXSIDCDefinition@2@QAVIdentityConstraint@2@QAVXSModel@2@@Z 12079c30 f   XSObjectFactory.obj
 0001:00078e40       ?addOrFind@XSObjectFactory@xercesc_3_1@@AAEPAVXSNotationDeclaration@2@QAVXMLNotationDecl@2@QAVXSModel@2@@Z 12079e40 f   XSObjectFactory.obj
 0001:00078f00       ?addOrFind@XSObjectFactory@xercesc_3_1@@AAEPAVXSSimpleTypeDefinition@2@QAVDatatypeValidator@2@QAVXSModel@2@_N@Z 12079f00 f   XSObjectFactory.obj
 0001:000791c0       ?buildAllParticles@XSObjectFactory@xercesc_3_1@@AAEXQBVContentSpecNode@2@QAV?$RefVectorOf@VXSParticle@xercesc_3_1@@@2@QAVXSModel@2@@Z 1207a1c0 f   XSObjectFactory.obj
 0001:00079230       ?buildChoiceSequenceParticles@XSObjectFactory@xercesc_3_1@@AAEXQBVContentSpecNode@2@QAV?$RefVectorOf@VXSParticle@xercesc_3_1@@@2@QAVXSModel@2@@Z 1207a230 f   XSObjectFactory.obj
 0001:000792f0       ?createElementParticle@XSObjectFactory@xercesc_3_1@@AAEPAVXSParticle@2@QBVContentSpecNode@2@QAVXSModel@2@@Z 1207a2f0 f   XSObjectFactory.obj
 0001:000793d0       ?createModelGroupParticle@XSObjectFactory@xercesc_3_1@@AAEPAVXSParticle@2@QBVContentSpecNode@2@QAVXSModel@2@@Z 1207a3d0 f   XSObjectFactory.obj
 0001:00079600       ?createWildcardParticle@XSObjectFactory@xercesc_3_1@@AAEPAVXSParticle@2@QBVContentSpecNode@2@QAVXSModel@2@@Z 1207a600 f   XSObjectFactory.obj
 0001:000796d0       ?createXSAttGroupDefinition@XSObjectFactory@xercesc_3_1@@AAEPAVXSAttributeGroupDefinition@2@QAVXercesAttGroupInfo@2@QAVXSModel@2@@Z 1207a6d0 f   XSObjectFactory.obj
 0001:00079950       ?createXSAttributeUse@XSObjectFactory@xercesc_3_1@@AAEPAVXSAttributeUse@2@QAVXSAttributeDeclaration@2@QAVXSModel@2@@Z 1207a950 f   XSObjectFactory.obj
 0001:000799e0       ?createXSModelGroupDefinition@XSObjectFactory@xercesc_3_1@@AAEPAVXSModelGroupDefinition@2@QAVXercesGroupInfo@2@QAVXSModel@2@@Z 1207a9e0 f   XSObjectFactory.obj
 0001:00079b20       ?createXSWildcard@XSObjectFactory@xercesc_3_1@@AAEPAVXSWildcard@2@QAVSchemaAttDef@2@QAVXSModel@2@@Z 1207ab20 f   XSObjectFactory.obj
 0001:00079bd0       ?createXSWildcard@XSObjectFactory@xercesc_3_1@@AAEPAVXSWildcard@2@QBVContentSpecNode@2@QAVXSModel@2@@Z 1207abd0 f   XSObjectFactory.obj
 0001:00079c70       ?findBucketElem@?$RefHash2KeysTableOf@VXSIDCDefinition@xercesc_3_1@@UStringHasher@2@@xercesc_3_1@@AAEPAU?$RefHash2KeysTableBucketElem@VXSIDCDefinition@xercesc_3_1@@@2@QBXHAAK@Z 1207ac70 f i XSObjectFactory.obj
 0001:00079c70       ?findBucketElem@?$RefHash2KeysTableOf@VXMLAttr@xercesc_3_1@@UStringHasher@2@@xercesc_3_1@@AAEPAU?$RefHash2KeysTableBucketElem@VXMLAttr@xercesc_3_1@@@2@QBXHAAK@Z 1207ac70 f i DGXMLScanner.obj
 0001:00079c70       ?findBucketElem@?$RefHash2KeysTableOf@VXMLAttr@xercesc_3_1@@UStringHasher@2@@xercesc_3_1@@ABEPBU?$RefHash2KeysTableBucketElem@VXMLAttr@xercesc_3_1@@@2@QBXHAAK@Z 1207ac70 f i DGXMLScanner.obj
 0001:00079c70       ?findBucketElem@?$RefHash2KeysTableOf@GUStringHasher@xercesc_3_1@@@xercesc_3_1@@AAEPAU?$RefHash2KeysTableBucketElem@G@2@QBXHAAK@Z 1207ac70 f i TraverseSchema.obj
 0001:00079c70       ?findBucketElem@?$RefHash2KeysTableOf@VXSObject@xercesc_3_1@@UStringHasher@2@@xercesc_3_1@@AAEPAU?$RefHash2KeysTableBucketElem@VXSObject@xercesc_3_1@@@2@QBXHAAK@Z 1207ac70 f i XSModel.obj
 0001:00079c70       ?findBucketElem@?$RefHash2KeysTableOf@VSchemaAttDef@xercesc_3_1@@UStringHasher@2@@xercesc_3_1@@AAEPAU?$RefHash2KeysTableBucketElem@VSchemaAttDef@xercesc_3_1@@@2@QBXHAAK@Z 1207ac70 f i XMLElementDecl.obj
 0001:00079c70       ?findBucketElem@?$RefHash2KeysTableOf@VSchemaInfo@xercesc_3_1@@UStringHasher@2@@xercesc_3_1@@AAEPAU?$RefHash2KeysTableBucketElem@VSchemaInfo@xercesc_3_1@@@2@QBXHAAK@Z 1207ac70 f i IGXMLScanner2.obj
 0001:00079c70       ?findBucketElem@?$RefHash2KeysTableOf@VIdentityConstraint@xercesc_3_1@@UStringHasher@2@@xercesc_3_1@@ABEPBU?$RefHash2KeysTableBucketElem@VIdentityConstraint@xercesc_3_1@@@2@QBXHAAK@Z 1207ac70 f i TraverseSchema.obj
 0001:00079c70       ?findBucketElem@?$RefHash2KeysTableOf@GUStringHasher@xercesc_3_1@@@xercesc_3_1@@ABEPBU?$RefHash2KeysTableBucketElem@G@2@QBXHAAK@Z 1207ac70 f i TraverseSchema.obj
 0001:00079c70       ?findBucketElem@?$RefHash2KeysTableOf@VIdentityConstraint@xercesc_3_1@@UStringHasher@2@@xercesc_3_1@@AAEPAU?$RefHash2KeysTableBucketElem@VIdentityConstraint@xercesc_3_1@@@2@QBXHAAK@Z 1207ac70 f i TraverseSchema.obj
 0001:00079c70       ?findBucketElem@?$RefHash2KeysTableOf@V?$ValueVectorOf@PAVSchemaElementDecl@xercesc_3_1@@@xercesc_3_1@@UStringHasher@2@@xercesc_3_1@@AAEPAU?$RefHash2KeysTableBucketElem@V?$ValueVectorOf@PAVSchemaElementDecl@xercesc_3_1@@@xercesc_3_1@@@2@QBXHAAK@Z 1207ac70 f i XTemplateSerializer.obj
 0001:00079d10       ?getAnnotationFromModel@XSObjectFactory@xercesc_3_1@@AAEPAVXSAnnotation@2@QAVXSModel@2@QBX@Z 1207ad10 f   XSObjectFactory.obj
 0001:00079e00       ?isMultiValueFacetDefined@XSObjectFactory@xercesc_3_1@@AAE_NQAVDatatypeValidator@2@@Z 1207ae00 f   XSObjectFactory.obj
 0001:00079e30       ?processAttUse@XSObjectFactory@xercesc_3_1@@AAEXQAVSchemaAttDef@2@QAVXSAttributeUse@2@@Z 1207ae30 f   XSObjectFactory.obj
 0001:00079e80       ?processFacets@XSObjectFactory@xercesc_3_1@@AAEXQAVDatatypeValidator@2@QAVXSModel@2@QAVXSSimpleTypeDefinition@2@@Z 1207ae80 f   XSObjectFactory.obj
 0001:0007a700       ?put@?$RefHash2KeysTableOf@VXSIDCDefinition@xercesc_3_1@@UStringHasher@2@@xercesc_3_1@@QAEXPAXHQAVXSIDCDefinition@2@@Z 1207b700 f i XSObjectFactory.obj
 0001:0007a700       ?put@?$RefHash2KeysTableOf@VIdentityConstraint@xercesc_3_1@@UStringHasher@2@@xercesc_3_1@@QAEXPAXHQAVIdentityConstraint@2@@Z 1207b700 f i TraverseSchema.obj
 0001:0007a700       ?put@?$RefHash2KeysTableOf@VXSObject@xercesc_3_1@@UStringHasher@2@@xercesc_3_1@@QAEXPAXHQAVXSObject@2@@Z 1207b700 f i XSModel.obj
 0001:0007a700       ?put@?$RefHash2KeysTableOf@VSchemaAttDef@xercesc_3_1@@UStringHasher@2@@xercesc_3_1@@QAEXPAXHQAVSchemaAttDef@2@@Z 1207b700 f i XTemplateSerializer.obj
 0001:0007a7f0       ?putObjectInMap@XSObjectFactory@xercesc_3_1@@AAEXPAXQAVXSObject@2@@Z 1207b7f0 f   XSObjectFactory.obj
 0001:0007a830       ?removeAllElements@?$BaseRefVectorOf@VKVStringPair@xercesc_3_1@@@xercesc_3_1@@UAEXXZ 1207b830 f i IGXMLScanner.obj
 0001:0007a830       ?removeAllElements@?$BaseRefVectorOf@VDOMImplementation@xercesc_3_1@@@xercesc_3_1@@UAEXXZ 1207b830 f i DOMImplementationListImpl.obj
 0001:0007a830       ?removeAllElements@?$BaseRefVectorOf@VSchemaElementDecl@xercesc_3_1@@@xercesc_3_1@@UAEXXZ 1207b830 f i XMLElementDecl.obj
 0001:0007a830       ?removeAllElements@?$BaseRefVectorOf@VOp@xercesc_3_1@@@xercesc_3_1@@UAEXXZ 1207b830 f i Op.obj
 0001:0007a830       ?removeAllElements@?$BaseRefVectorOf@VXMLNumber@xercesc_3_1@@@xercesc_3_1@@UAEXXZ 1207b830 f i XTemplateSerializer.obj
 0001:0007a830       ?removeAllElements@?$BaseRefVectorOf@VENameMap@xercesc_3_1@@@xercesc_3_1@@UAEXXZ 1207b830 f i TransService.obj
 0001:0007a830       ?removeAllElements@?$BaseRefVectorOf@VXSSimpleTypeDefinition@xercesc_3_1@@@xercesc_3_1@@UAEXXZ 1207b830 f i XSObjectFactory.obj
 0001:0007a830       ?removeAllElements@?$BaseRefVectorOf@VDOMDocumentImpl@xercesc_3_1@@@xercesc_3_1@@UAEXXZ 1207b830 f i AbstractDOMParser.obj
 0001:0007a830       ?removeAllElements@?$BaseRefVectorOf@VXMLElementDecl@xercesc_3_1@@@xercesc_3_1@@UAEXXZ 1207b830 f i WFXMLScanner.obj
 0001:0007a830       ?removeAllElements@?$BaseRefVectorOf@VXSFacet@xercesc_3_1@@@xercesc_3_1@@UAEXXZ 1207b830 f i XSObjectFactory.obj
 0001:0007a830       ?removeAllElements@?$BaseRefVectorOf@VContentSpecNode@xercesc_3_1@@@xercesc_3_1@@UAEXXZ 1207b830 f i XTemplateSerializer.obj
 0001:0007a830       ?removeAllElements@?$BaseRefVectorOf@VXMLEntityDecl@xercesc_3_1@@@xercesc_3_1@@UAEXXZ 1207b830 f i ReaderMgr.obj
 0001:0007a830       ?removeAllElements@?$BaseRefVectorOf@VXercesLocationPath@xercesc_3_1@@@xercesc_3_1@@UAEXXZ 1207b830 f i XTemplateSerializer.obj
 0001:0007a830       ?removeAllElements@?$BaseRefVectorOf@VXSAnnotation@xercesc_3_1@@@xercesc_3_1@@UAEXXZ 1207b830 f i XSComplexTypeDefinition.obj
 0001:0007a830       ?removeAllElements@?$BaseRefVectorOf@VSchemaAttDef@xercesc_3_1@@@xercesc_3_1@@UAEXXZ 1207b830 f i XMLGrammarPoolImpl.obj
 0001:0007a830       ?removeAllElements@?$BaseRefVectorOf@VXSObject@xercesc_3_1@@@xercesc_3_1@@UAEXXZ 1207b830 f i XSModel.obj
 0001:0007a830       ?removeAllElements@?$BaseRefVectorOf@VDatatypeValidator@xercesc_3_1@@@xercesc_3_1@@UAEXXZ 1207b830 f i XTemplateSerializer.obj
 0001:0007a830       ?removeAllElements@?$BaseRefVectorOf@VIC_Field@xercesc_3_1@@@xercesc_3_1@@UAEXXZ 1207b830 f i XMLElementDecl.obj
 0001:0007a830       ?removeAllElements@?$BaseRefVectorOf@VXSAttributeUse@xercesc_3_1@@@xercesc_3_1@@UAEXXZ 1207b830 f i XSObjectFactory.obj
 0001:0007a830       ?removeAllElements@?$BaseRefVectorOf@VMatch@xercesc_3_1@@@xercesc_3_1@@UAEXXZ 1207b830 f i RegularExpression.obj
 0001:0007a830       ?removeAllElements@?$BaseRefVectorOf@VToken@xercesc_3_1@@@xercesc_3_1@@UAEXXZ 1207b830 f i TokenFactory.obj
 0001:0007a830       ?removeAllElements@?$BaseRefVectorOf@VXSMultiValueFacet@xercesc_3_1@@@xercesc_3_1@@UAEXXZ 1207b830 f i XSObjectFactory.obj
 0001:0007a830       ?removeAllElements@?$BaseRefVectorOf@VDOMNodeIteratorImpl@xercesc_3_1@@@xercesc_3_1@@UAEXXZ 1207b830 f i DOMDocumentImpl.obj
 0001:0007a830       ?removeAllElements@?$BaseRefVectorOf@VXPathMatcher@xercesc_3_1@@@xercesc_3_1@@UAEXXZ 1207b830 f i XPathMatcherStack.obj
 0001:0007a830       ?removeAllElements@?$BaseRefVectorOf@VDOMRangeImpl@xercesc_3_1@@@xercesc_3_1@@UAEXXZ 1207b830 f i DOMDocumentImpl.obj
 0001:0007a830       ?removeAllElements@?$BaseRefVectorOf@VDOMImplementationSource@xercesc_3_1@@@xercesc_3_1@@UAEXXZ 1207b830 f i DOMImplementationRegistry.obj
 0001:0007a830       ?removeAllElements@?$BaseRefVectorOf@VDOMNode@xercesc_3_1@@@xercesc_3_1@@UAEXXZ 1207b830 f i DOMDocumentImpl.obj
 0001:0007a830       ?removeAllElements@?$BaseRefVectorOf@VXSParticle@xercesc_3_1@@@xercesc_3_1@@UAEXXZ 1207b830 f i XSObjectFactory.obj
 0001:0007a830       ?removeAllElements@?$BaseRefVectorOf@VXSIDCDefinition@xercesc_3_1@@@xercesc_3_1@@UAEXXZ 1207b830 f i XSObjectFactory.obj
 0001:0007a830       ?removeAllElements@?$BaseRefVectorOf@VXercesStep@xercesc_3_1@@@xercesc_3_1@@UAEXXZ 1207b830 f i XTemplateSerializer.obj
 0001:0007a830       ?removeAllElements@?$BaseRefVectorOf@VIdentityConstraint@xercesc_3_1@@@xercesc_3_1@@UAEXXZ 1207b830 f i XMLElementDecl.obj
 0001:0007a880       ?removeElementAt@?$BaseRefVectorOf@VXPathMatcher@xercesc_3_1@@@xercesc_3_1@@UAEXK@Z 1207b880 f i XPathMatcherStack.obj
 0001:0007a880       ?removeElementAt@?$BaseRefVectorOf@VDOMImplementationSource@xercesc_3_1@@@xercesc_3_1@@UAEXK@Z 1207b880 f i DOMImplementationRegistry.obj
 0001:0007a880       ?removeElementAt@?$BaseRefVectorOf@VDOMImplementation@xercesc_3_1@@@xercesc_3_1@@UAEXK@Z 1207b880 f i DOMImplementationListImpl.obj
 0001:0007a880       ?removeElementAt@?$BaseRefVectorOf@VSchemaAttDef@xercesc_3_1@@@xercesc_3_1@@UAEXK@Z 1207b880 f i XMLGrammarPoolImpl.obj
 0001:0007a880       ?removeElementAt@?$BaseRefVectorOf@VDOMDocumentImpl@xercesc_3_1@@@xercesc_3_1@@UAEXK@Z 1207b880 f i AbstractDOMParser.obj
 0001:0007a880       ?removeElementAt@?$BaseRefVectorOf@VXSFacet@xercesc_3_1@@@xercesc_3_1@@UAEXK@Z 1207b880 f i XSObjectFactory.obj
 0001:0007a880       ?removeElementAt@?$BaseRefVectorOf@VKVStringPair@xercesc_3_1@@@xercesc_3_1@@UAEXK@Z 1207b880 f i IGXMLScanner.obj
 0001:0007a880       ?removeElementAt@?$BaseRefVectorOf@VOp@xercesc_3_1@@@xercesc_3_1@@UAEXK@Z 1207b880 f i Op.obj
 0001:0007a880       ?removeElementAt@?$BaseRefVectorOf@VXSParticle@xercesc_3_1@@@xercesc_3_1@@UAEXK@Z 1207b880 f i XSObjectFactory.obj
